; Listing generated by Microsoft (R) Optimizing Compiler Version 19.29.30133.0 

include listing.inc

INCLUDELIB OLDNAMES

PUBLIC	??_C@_0O@MJEPJDIE@sendVstEvents@		; `string'
PUBLIC	??_C@_0BB@DBLEMDJI@sendVstMidiEvent@		; `string'
PUBLIC	??_C@_0BA@CEBMKOGA@sendVstTimeInfo@		; `string'
PUBLIC	??_C@_0BB@LOJILAKC@receiveVstEvents@		; `string'
PUBLIC	??_C@_0BE@KLGKMJKL@receiveVstMidiEvent@		; `string'
PUBLIC	??_C@_0BI@KIPHNALO@reportConnectionChanges@	; `string'
PUBLIC	??_C@_0BA@CLGFDKLL@acceptIOChanges@		; `string'
PUBLIC	??_C@_0L@FLPGPBDA@sizeWindow@			; `string'
PUBLIC	??_C@_07OFPCFMBE@offline@			; `string'
PUBLIC	??_C@_0BB@MMLONEO@openFileSelector@		; `string'
PUBLIC	??_C@_0BC@LNIFLEPM@closeFileSelector@		; `string'
PUBLIC	??_C@_0BB@CANNHKE@startStopProcess@		; `string'
PUBLIC	??_C@_0O@JHMBCFDD@shellCategory@		; `string'
PUBLIC	??_C@_0BP@BNOFLLOD@sendVstMidiEventFlagIsRealtime@ ; `string'
PUBLIC	??_C@_0BD@EFKFCLOB@receiveVstTimeInfo@		; `string'
PUBLIC	??_C@_0BB@FCGDCDJB@midiProgramNames@		; `string'
PUBLIC	??_C@_06HKHKKNNB@bypass@			; `string'
PUBLIC	??_R2AudioEffectX@@8				; AudioEffectX::`RTTI Base Class Array'
PUBLIC	??_R4AudioEffectX@@6B@				; AudioEffectX::`RTTI Complete Object Locator'
PUBLIC	??_R1A@?0A@EA@AudioEffectX@@8			; AudioEffectX::`RTTI Base Class Descriptor at (0,-1,0,64)'
PUBLIC	??_7AudioEffectX@@6B@				; AudioEffectX::`vftable'
PUBLIC	??_R3AudioEffectX@@8				; AudioEffectX::`RTTI Class Hierarchy Descriptor'
PUBLIC	??_R0?AVAudioEffectX@@@8			; AudioEffectX `RTTI Type Descriptor'
EXTRN	__imp_memcpy:PROC
EXTRN	??_V@YAXPEAX@Z:PROC				; operator delete[]
;	COMDAT ??_R0?AVAudioEffectX@@@8
data$rs	SEGMENT
??_R0?AVAudioEffectX@@@8 DQ FLAT:??_7type_info@@6B@	; AudioEffectX `RTTI Type Descriptor'
	DQ	0000000000000000H
	DB	'.?AVAudioEffectX@@', 00H
data$rs	ENDS
;	COMDAT ??_R3AudioEffectX@@8
rdata$r	SEGMENT
??_R3AudioEffectX@@8 DD 00H				; AudioEffectX::`RTTI Class Hierarchy Descriptor'
	DD	00H
	DD	02H
	DD	imagerel ??_R2AudioEffectX@@8
rdata$r	ENDS
;	COMDAT ??_7AudioEffectX@@6B@
CONST	SEGMENT
??_7AudioEffectX@@6B@ DQ FLAT:??_R4AudioEffectX@@6B@	; AudioEffectX::`vftable'
	DQ	FLAT:??_EAudioEffectX@@UEAAPEAXI@Z
	DQ	FLAT:?dispatcher@AudioEffectX@@UEAA_JHH_JPEAXM@Z
	DQ	FLAT:?open@AudioEffect@@UEAAXXZ
	DQ	FLAT:?close@AudioEffect@@UEAAXXZ
	DQ	FLAT:?suspend@AudioEffect@@UEAAXXZ
	DQ	FLAT:?resume@AudioEffectX@@UEAAXXZ
	DQ	FLAT:?setSampleRate@AudioEffect@@UEAAXM@Z
	DQ	FLAT:?setBlockSize@AudioEffect@@UEAAXH@Z
	DQ	FLAT:_purecall
	DQ	FLAT:?processDoubleReplacing@AudioEffect@@UEAAXPEAPEAN0H@Z
	DQ	FLAT:?setParameter@AudioEffect@@UEAAXHM@Z
	DQ	FLAT:?getParameter@AudioEffect@@UEAAMH@Z
	DQ	FLAT:?setParameterAutomated@AudioEffect@@UEAAXHM@Z
	DQ	FLAT:?getProgram@AudioEffect@@UEAAHXZ
	DQ	FLAT:?setProgram@AudioEffect@@UEAAXH@Z
	DQ	FLAT:?setProgramName@AudioEffect@@UEAAXPEAD@Z
	DQ	FLAT:?getProgramName@AudioEffect@@UEAAXPEAD@Z
	DQ	FLAT:?getParameterLabel@AudioEffect@@UEAAXHPEAD@Z
	DQ	FLAT:?getParameterDisplay@AudioEffect@@UEAAXHPEAD@Z
	DQ	FLAT:?getParameterName@AudioEffect@@UEAAXHPEAD@Z
	DQ	FLAT:?getChunk@AudioEffect@@UEAAHPEAPEAX_N@Z
	DQ	FLAT:?setChunk@AudioEffect@@UEAAHPEAXH_N@Z
	DQ	FLAT:?setUniqueID@AudioEffect@@UEAAXH@Z
	DQ	FLAT:?setNumInputs@AudioEffect@@UEAAXH@Z
	DQ	FLAT:?setNumOutputs@AudioEffect@@UEAAXH@Z
	DQ	FLAT:?canProcessReplacing@AudioEffect@@UEAAX_N@Z
	DQ	FLAT:?canDoubleReplacing@AudioEffect@@UEAAX_N@Z
	DQ	FLAT:?programsAreChunks@AudioEffect@@UEAAX_N@Z
	DQ	FLAT:?setInitialDelay@AudioEffect@@UEAAXH@Z
	DQ	FLAT:?getEditor@AudioEffect@@UEAAPEAVAEffEditor@@XZ
	DQ	FLAT:?getAeffect@AudioEffect@@UEAAPEAUAEffect@@XZ
	DQ	FLAT:?getSampleRate@AudioEffect@@UEAAMXZ
	DQ	FLAT:?getBlockSize@AudioEffect@@UEAAHXZ
	DQ	FLAT:?getMasterVersion@AudioEffect@@UEAAHXZ
	DQ	FLAT:?getCurrentUniqueId@AudioEffect@@UEAAHXZ
	DQ	FLAT:?masterIdle@AudioEffect@@UEAAXXZ
	DQ	FLAT:?dB2string@AudioEffect@@UEAAXMPEADH@Z
	DQ	FLAT:?Hz2string@AudioEffect@@UEAAXMPEADH@Z
	DQ	FLAT:?ms2string@AudioEffect@@UEAAXMPEADH@Z
	DQ	FLAT:?float2string@AudioEffect@@UEAAXMPEADH@Z
	DQ	FLAT:?int2string@AudioEffect@@UEAAXHPEADH@Z
	DQ	FLAT:?__processDeprecated@AudioEffect@@UEAAXPEAPEAM0H@Z
	DQ	FLAT:?__getVuDeprecated@AudioEffect@@UEAAMXZ
	DQ	FLAT:?__hasVuDeprecated@AudioEffect@@UEAAX_N@Z
	DQ	FLAT:?__hasClipDeprecated@AudioEffect@@UEAAX_N@Z
	DQ	FLAT:?__canMonoDeprecated@AudioEffect@@UEAAX_N@Z
	DQ	FLAT:?__setRealtimeQualitiesDeprecated@AudioEffect@@UEAAXH@Z
	DQ	FLAT:?__setOfflineQualitiesDeprecated@AudioEffect@@UEAAXH@Z
	DQ	FLAT:?__isInputConnectedDeprecated@AudioEffect@@UEAA_NH@Z
	DQ	FLAT:?__isOutputConnectedDeprecated@AudioEffect@@UEAA_NH@Z
	DQ	FLAT:?canParameterBeAutomated@AudioEffectX@@UEAA_NH@Z
	DQ	FLAT:?string2parameter@AudioEffectX@@UEAA_NHPEAD@Z
	DQ	FLAT:?getParameterProperties@AudioEffectX@@UEAA_NHPEAUVstParameterProperties@@@Z
	DQ	FLAT:?beginEdit@AudioEffectX@@UEAA_NH@Z
	DQ	FLAT:?endEdit@AudioEffectX@@UEAA_NH@Z
	DQ	FLAT:?getProgramNameIndexed@AudioEffectX@@UEAA_NHHPEAD@Z
	DQ	FLAT:?beginSetProgram@AudioEffectX@@UEAA_NXZ
	DQ	FLAT:?endSetProgram@AudioEffectX@@UEAA_NXZ
	DQ	FLAT:?beginLoadBank@AudioEffectX@@UEAAHPEAUVstPatchChunkInfo@@@Z
	DQ	FLAT:?beginLoadProgram@AudioEffectX@@UEAAHPEAUVstPatchChunkInfo@@@Z
	DQ	FLAT:?ioChanged@AudioEffectX@@UEAA_NXZ
	DQ	FLAT:?updateSampleRate@AudioEffectX@@UEAANXZ
	DQ	FLAT:?updateBlockSize@AudioEffectX@@UEAAHXZ
	DQ	FLAT:?getInputLatency@AudioEffectX@@UEAAHXZ
	DQ	FLAT:?getOutputLatency@AudioEffectX@@UEAAHXZ
	DQ	FLAT:?getInputProperties@AudioEffectX@@UEAA_NHPEAUVstPinProperties@@@Z
	DQ	FLAT:?getOutputProperties@AudioEffectX@@UEAA_NHPEAUVstPinProperties@@@Z
	DQ	FLAT:?setSpeakerArrangement@AudioEffectX@@UEAA_NPEAUVstSpeakerArrangement@@0@Z
	DQ	FLAT:?getSpeakerArrangement@AudioEffectX@@UEAA_NPEAPEAUVstSpeakerArrangement@@0@Z
	DQ	FLAT:?setBypass@AudioEffectX@@UEAA_N_N@Z
	DQ	FLAT:?setPanLaw@AudioEffectX@@UEAA_NHM@Z
	DQ	FLAT:?setProcessPrecision@AudioEffectX@@UEAA_NH@Z
	DQ	FLAT:?getNumMidiInputChannels@AudioEffectX@@UEAAHXZ
	DQ	FLAT:?getNumMidiOutputChannels@AudioEffectX@@UEAAHXZ
	DQ	FLAT:?getTimeInfo@AudioEffectX@@UEAAPEAUVstTimeInfo@@H@Z
	DQ	FLAT:?getCurrentProcessLevel@AudioEffectX@@UEAAHXZ
	DQ	FLAT:?getAutomationState@AudioEffectX@@UEAAHXZ
	DQ	FLAT:?processEvents@AudioEffectX@@UEAAHPEAUVstEvents@@@Z
	DQ	FLAT:?startProcess@AudioEffectX@@UEAAHXZ
	DQ	FLAT:?stopProcess@AudioEffectX@@UEAAHXZ
	DQ	FLAT:?processVariableIo@AudioEffectX@@UEAA_NPEAUVstVariableIo@@@Z
	DQ	FLAT:?setTotalSampleToProcess@AudioEffectX@@UEAAHH@Z
	DQ	FLAT:?getHostVendorString@AudioEffectX@@UEAA_NPEAD@Z
	DQ	FLAT:?getHostProductString@AudioEffectX@@UEAA_NPEAD@Z
	DQ	FLAT:?getHostVendorVersion@AudioEffectX@@UEAAHXZ
	DQ	FLAT:?hostVendorSpecific@AudioEffectX@@UEAA_JH_JPEAXM@Z
	DQ	FLAT:?canHostDo@AudioEffectX@@UEAAHPEAD@Z
	DQ	FLAT:?getHostLanguage@AudioEffectX@@UEAAHXZ
	DQ	FLAT:?isSynth@AudioEffectX@@UEAAX_N@Z
	DQ	FLAT:?noTail@AudioEffectX@@UEAAX_N@Z
	DQ	FLAT:?getGetTailSize@AudioEffectX@@UEAAHXZ
	DQ	FLAT:?getDirectory@AudioEffectX@@UEAAPEAXXZ
	DQ	FLAT:?getEffectName@AudioEffectX@@UEAA_NPEAD@Z
	DQ	FLAT:?getVendorString@AudioEffectX@@UEAA_NPEAD@Z
	DQ	FLAT:?getProductString@AudioEffectX@@UEAA_NPEAD@Z
	DQ	FLAT:?getVendorVersion@AudioEffectX@@UEAAHXZ
	DQ	FLAT:?vendorSpecific@AudioEffectX@@UEAA_JH_JPEAXM@Z
	DQ	FLAT:?canDo@AudioEffectX@@UEAAHPEAD@Z
	DQ	FLAT:?getVstVersion@AudioEffectX@@UEAAHXZ
	DQ	FLAT:?getPlugCategory@AudioEffectX@@UEAA?AW4VstPlugCategory@@XZ
	DQ	FLAT:?getMidiProgramName@AudioEffectX@@UEAAHHPEAUMidiProgramName@@@Z
	DQ	FLAT:?getCurrentMidiProgram@AudioEffectX@@UEAAHHPEAUMidiProgramName@@@Z
	DQ	FLAT:?getMidiProgramCategory@AudioEffectX@@UEAAHHPEAUMidiProgramCategory@@@Z
	DQ	FLAT:?hasMidiProgramsChanged@AudioEffectX@@UEAA_NH@Z
	DQ	FLAT:?getMidiKeyName@AudioEffectX@@UEAA_NHPEAUMidiKeyName@@@Z
	DQ	FLAT:?updateDisplay@AudioEffectX@@UEAA_NXZ
	DQ	FLAT:?sizeWindow@AudioEffectX@@UEAA_NHH@Z
	DQ	FLAT:?openFileSelector@AudioEffectX@@UEAA_NPEAUVstFileSelect@@@Z
	DQ	FLAT:?closeFileSelector@AudioEffectX@@UEAA_NPEAUVstFileSelect@@@Z
	DQ	FLAT:?getNextShellPlugin@AudioEffectX@@UEAAHPEAD@Z
	DQ	FLAT:?allocateArrangement@AudioEffectX@@UEAA_NPEAPEAUVstSpeakerArrangement@@H@Z
	DQ	FLAT:?deallocateArrangement@AudioEffectX@@UEAA_NPEAPEAUVstSpeakerArrangement@@@Z
	DQ	FLAT:?copySpeaker@AudioEffectX@@UEAA_NPEAUVstSpeakerProperties@@0@Z
	DQ	FLAT:?matchArrangement@AudioEffectX@@UEAA_NPEAPEAUVstSpeakerArrangement@@PEAU2@@Z
	DQ	FLAT:?offlineRead@AudioEffectX@@UEAA_NPEAUVstOfflineTask@@W4VstOfflineOption@@_N@Z
	DQ	FLAT:?offlineWrite@AudioEffectX@@UEAA_NPEAUVstOfflineTask@@W4VstOfflineOption@@@Z
	DQ	FLAT:?offlineStart@AudioEffectX@@UEAA_NPEAUVstAudioFile@@HH@Z
	DQ	FLAT:?offlineGetCurrentPass@AudioEffectX@@UEAAHXZ
	DQ	FLAT:?offlineGetCurrentMetaPass@AudioEffectX@@UEAAHXZ
	DQ	FLAT:?offlineNotify@AudioEffectX@@UEAA_NPEAUVstAudioFile@@H_N@Z
	DQ	FLAT:?offlinePrepare@AudioEffectX@@UEAA_NPEAUVstOfflineTask@@H@Z
	DQ	FLAT:?offlineRun@AudioEffectX@@UEAA_NPEAUVstOfflineTask@@H@Z
	DQ	FLAT:?offlineGetNumPasses@AudioEffectX@@UEAAHXZ
	DQ	FLAT:?offlineGetNumMetaPasses@AudioEffectX@@UEAAHXZ
	DQ	FLAT:?__wantEventsDeprecated@AudioEffectX@@UEAAXH@Z
	DQ	FLAT:?__tempoAtDeprecated@AudioEffectX@@UEAAHH@Z
	DQ	FLAT:?__getNumAutomatableParametersDeprecated@AudioEffectX@@UEAAHXZ
	DQ	FLAT:?__getParameterQuantizationDeprecated@AudioEffectX@@UEAAHXZ
	DQ	FLAT:?__getNumCategoriesDeprecated@AudioEffectX@@UEAAHXZ
	DQ	FLAT:?__copyProgramDeprecated@AudioEffectX@@UEAA_NH@Z
	DQ	FLAT:?__needIdleDeprecated@AudioEffectX@@UEAA_NXZ
	DQ	FLAT:?__getPreviousPlugDeprecated@AudioEffectX@@UEAAPEAUAEffect@@H@Z
	DQ	FLAT:?__getNextPlugDeprecated@AudioEffectX@@UEAAPEAUAEffect@@H@Z
	DQ	FLAT:?__inputConnectedDeprecated@AudioEffectX@@UEAAXH_N@Z
	DQ	FLAT:?__outputConnectedDeprecated@AudioEffectX@@UEAAXH_N@Z
	DQ	FLAT:?__willProcessReplacingDeprecated@AudioEffectX@@UEAAHXZ
	DQ	FLAT:?__wantAsyncOperationDeprecated@AudioEffectX@@UEAAX_N@Z
	DQ	FLAT:?__hasExternalBufferDeprecated@AudioEffectX@@UEAAX_N@Z
	DQ	FLAT:?__reportCurrentPositionDeprecated@AudioEffectX@@UEAAHXZ
	DQ	FLAT:?__reportDestinationBufferDeprecated@AudioEffectX@@UEAAPEAMXZ
	DQ	FLAT:?__setOutputSamplerateDeprecated@AudioEffectX@@UEAAXM@Z
	DQ	FLAT:?__getInputSpeakerArrangementDeprecated@AudioEffectX@@UEAAPEAUVstSpeakerArrangement@@XZ
	DQ	FLAT:?__getOutputSpeakerArrangementDeprecated@AudioEffectX@@UEAAPEAUVstSpeakerArrangement@@XZ
	DQ	FLAT:?__openWindowDeprecated@AudioEffectX@@UEAAPEAXPEAU__VstWindowDeprecated@@@Z
	DQ	FLAT:?__closeWindowDeprecated@AudioEffectX@@UEAA_NPEAU__VstWindowDeprecated@@@Z
	DQ	FLAT:?__setBlockSizeAndSampleRateDeprecated@AudioEffectX@@UEAAXHM@Z
	DQ	FLAT:?__getErrorTextDeprecated@AudioEffectX@@UEAA_NPEAD@Z
	DQ	FLAT:?__getIconDeprecated@AudioEffectX@@UEAAPEAXXZ
	DQ	FLAT:?__setViewPositionDeprecated@AudioEffectX@@UEAA_NHH@Z
	DQ	FLAT:?__fxIdleDeprecated@AudioEffectX@@UEAAHXZ
	DQ	FLAT:?__keysRequiredDeprecated@AudioEffectX@@UEAA_NXZ
	DQ	FLAT:?__getChunkFileDeprecated@AudioEffectX@@UEAA_NPEAX@Z
CONST	ENDS
;	COMDAT ??_R1A@?0A@EA@AudioEffectX@@8
rdata$r	SEGMENT
??_R1A@?0A@EA@AudioEffectX@@8 DD imagerel ??_R0?AVAudioEffectX@@@8 ; AudioEffectX::`RTTI Base Class Descriptor at (0,-1,0,64)'
	DD	01H
	DD	00H
	DD	0ffffffffH
	DD	00H
	DD	040H
	DD	imagerel ??_R3AudioEffectX@@8
rdata$r	ENDS
;	COMDAT ??_R4AudioEffectX@@6B@
rdata$r	SEGMENT
??_R4AudioEffectX@@6B@ DD 01H				; AudioEffectX::`RTTI Complete Object Locator'
	DD	00H
	DD	00H
	DD	imagerel ??_R0?AVAudioEffectX@@@8
	DD	imagerel ??_R3AudioEffectX@@8
	DD	imagerel ??_R4AudioEffectX@@6B@
rdata$r	ENDS
;	COMDAT ??_R2AudioEffectX@@8
rdata$r	SEGMENT
??_R2AudioEffectX@@8 DD imagerel ??_R1A@?0A@EA@AudioEffectX@@8 ; AudioEffectX::`RTTI Base Class Array'
	DD	imagerel ??_R1A@?0A@EA@AudioEffect@@8
	ORG $+3
rdata$r	ENDS
;	COMDAT ??_C@_06HKHKKNNB@bypass@
CONST	SEGMENT
??_C@_06HKHKKNNB@bypass@ DB 'bypass', 00H		; `string'
CONST	ENDS
;	COMDAT ??_C@_0BB@FCGDCDJB@midiProgramNames@
CONST	SEGMENT
??_C@_0BB@FCGDCDJB@midiProgramNames@ DB 'midiProgramNames', 00H ; `string'
CONST	ENDS
;	COMDAT ??_C@_0BD@EFKFCLOB@receiveVstTimeInfo@
CONST	SEGMENT
??_C@_0BD@EFKFCLOB@receiveVstTimeInfo@ DB 'receiveVstTimeInfo', 00H ; `string'
CONST	ENDS
;	COMDAT ??_C@_0BP@BNOFLLOD@sendVstMidiEventFlagIsRealtime@
CONST	SEGMENT
??_C@_0BP@BNOFLLOD@sendVstMidiEventFlagIsRealtime@ DB 'sendVstMidiEventFl'
	DB	'agIsRealtime', 00H				; `string'
CONST	ENDS
;	COMDAT ??_C@_0O@JHMBCFDD@shellCategory@
CONST	SEGMENT
??_C@_0O@JHMBCFDD@shellCategory@ DB 'shellCategory', 00H ; `string'
CONST	ENDS
;	COMDAT ??_C@_0BB@CANNHKE@startStopProcess@
CONST	SEGMENT
??_C@_0BB@CANNHKE@startStopProcess@ DB 'startStopProcess', 00H ; `string'
CONST	ENDS
;	COMDAT ??_C@_0BC@LNIFLEPM@closeFileSelector@
CONST	SEGMENT
??_C@_0BC@LNIFLEPM@closeFileSelector@ DB 'closeFileSelector', 00H ; `string'
CONST	ENDS
;	COMDAT ??_C@_0BB@MMLONEO@openFileSelector@
CONST	SEGMENT
??_C@_0BB@MMLONEO@openFileSelector@ DB 'openFileSelector', 00H ; `string'
CONST	ENDS
;	COMDAT ??_C@_07OFPCFMBE@offline@
CONST	SEGMENT
??_C@_07OFPCFMBE@offline@ DB 'offline', 00H		; `string'
CONST	ENDS
;	COMDAT ??_C@_0L@FLPGPBDA@sizeWindow@
CONST	SEGMENT
??_C@_0L@FLPGPBDA@sizeWindow@ DB 'sizeWindow', 00H	; `string'
CONST	ENDS
;	COMDAT ??_C@_0BA@CLGFDKLL@acceptIOChanges@
CONST	SEGMENT
??_C@_0BA@CLGFDKLL@acceptIOChanges@ DB 'acceptIOChanges', 00H ; `string'
CONST	ENDS
;	COMDAT ??_C@_0BI@KIPHNALO@reportConnectionChanges@
CONST	SEGMENT
??_C@_0BI@KIPHNALO@reportConnectionChanges@ DB 'reportConnectionChanges', 00H ; `string'
CONST	ENDS
;	COMDAT ??_C@_0BE@KLGKMJKL@receiveVstMidiEvent@
CONST	SEGMENT
??_C@_0BE@KLGKMJKL@receiveVstMidiEvent@ DB 'receiveVstMidiEvent', 00H ; `string'
CONST	ENDS
;	COMDAT ??_C@_0BB@LOJILAKC@receiveVstEvents@
CONST	SEGMENT
??_C@_0BB@LOJILAKC@receiveVstEvents@ DB 'receiveVstEvents', 00H ; `string'
CONST	ENDS
;	COMDAT ??_C@_0BA@CEBMKOGA@sendVstTimeInfo@
CONST	SEGMENT
??_C@_0BA@CEBMKOGA@sendVstTimeInfo@ DB 'sendVstTimeInfo', 00H ; `string'
CONST	ENDS
;	COMDAT ??_C@_0BB@DBLEMDJI@sendVstMidiEvent@
CONST	SEGMENT
??_C@_0BB@DBLEMDJI@sendVstMidiEvent@ DB 'sendVstMidiEvent', 00H ; `string'
CONST	ENDS
;	COMDAT ??_C@_0O@MJEPJDIE@sendVstEvents@
CONST	SEGMENT
??_C@_0O@MJEPJDIE@sendVstEvents@ DB 'sendVstEvents', 00H ; `string'
PUBLIC	??$FromVstPtr@X@@YAPEAXAEA_J@Z			; FromVstPtr<void>
PUBLIC	??$FromVstPtr@UAEffect@@@@YAPEAUAEffect@@AEA_J@Z ; FromVstPtr<AEffect>
PUBLIC	??$FromVstPtr@UVstTimeInfo@@@@YAPEAUVstTimeInfo@@AEA_J@Z ; FromVstPtr<VstTimeInfo>
PUBLIC	??$FromVstPtr@PEAUVstSpeakerArrangement@@@@YAPEAPEAUVstSpeakerArrangement@@AEA_J@Z ; FromVstPtr<VstSpeakerArrangement *>
PUBLIC	??$FromVstPtr@UVstSpeakerArrangement@@@@YAPEAUVstSpeakerArrangement@@AEA_J@Z ; FromVstPtr<VstSpeakerArrangement>
PUBLIC	?matchArrangement@AudioEffectX@@UEAA_NPEAPEAUVstSpeakerArrangement@@PEAU2@@Z ; AudioEffectX::matchArrangement
PUBLIC	?copySpeaker@AudioEffectX@@UEAA_NPEAUVstSpeakerProperties@@0@Z ; AudioEffectX::copySpeaker
PUBLIC	?deallocateArrangement@AudioEffectX@@UEAA_NPEAPEAUVstSpeakerArrangement@@@Z ; AudioEffectX::deallocateArrangement
PUBLIC	?allocateArrangement@AudioEffectX@@UEAA_NPEAPEAUVstSpeakerArrangement@@H@Z ; AudioEffectX::allocateArrangement
PUBLIC	?__getChunkFileDeprecated@AudioEffectX@@UEAA_NPEAX@Z ; AudioEffectX::__getChunkFileDeprecated
PUBLIC	?closeFileSelector@AudioEffectX@@UEAA_NPEAUVstFileSelect@@@Z ; AudioEffectX::closeFileSelector
PUBLIC	?openFileSelector@AudioEffectX@@UEAA_NPEAUVstFileSelect@@@Z ; AudioEffectX::openFileSelector
PUBLIC	?endEdit@AudioEffectX@@UEAA_NH@Z		; AudioEffectX::endEdit
PUBLIC	?beginEdit@AudioEffectX@@UEAA_NH@Z		; AudioEffectX::beginEdit
PUBLIC	?updateDisplay@AudioEffectX@@UEAA_NXZ		; AudioEffectX::updateDisplay
PUBLIC	?getDirectory@AudioEffectX@@UEAAPEAXXZ		; AudioEffectX::getDirectory
PUBLIC	?__closeWindowDeprecated@AudioEffectX@@UEAA_NPEAU__VstWindowDeprecated@@@Z ; AudioEffectX::__closeWindowDeprecated
PUBLIC	?__openWindowDeprecated@AudioEffectX@@UEAAPEAXPEAU__VstWindowDeprecated@@@Z ; AudioEffectX::__openWindowDeprecated
PUBLIC	?getHostLanguage@AudioEffectX@@UEAAHXZ		; AudioEffectX::getHostLanguage
PUBLIC	?noTail@AudioEffectX@@UEAAX_N@Z			; AudioEffectX::noTail
PUBLIC	?isSynth@AudioEffectX@@UEAAX_N@Z		; AudioEffectX::isSynth
PUBLIC	?canHostDo@AudioEffectX@@UEAAHPEAD@Z		; AudioEffectX::canHostDo
PUBLIC	?hostVendorSpecific@AudioEffectX@@UEAA_JH_JPEAXM@Z ; AudioEffectX::hostVendorSpecific
PUBLIC	?getHostVendorVersion@AudioEffectX@@UEAAHXZ	; AudioEffectX::getHostVendorVersion
PUBLIC	?getHostProductString@AudioEffectX@@UEAA_NPEAD@Z ; AudioEffectX::getHostProductString
PUBLIC	?getHostVendorString@AudioEffectX@@UEAA_NPEAD@Z	; AudioEffectX::getHostVendorString
PUBLIC	?__getOutputSpeakerArrangementDeprecated@AudioEffectX@@UEAAPEAUVstSpeakerArrangement@@XZ ; AudioEffectX::__getOutputSpeakerArrangementDeprecated
PUBLIC	?__getInputSpeakerArrangementDeprecated@AudioEffectX@@UEAAPEAUVstSpeakerArrangement@@XZ ; AudioEffectX::__getInputSpeakerArrangementDeprecated
PUBLIC	?__setOutputSamplerateDeprecated@AudioEffectX@@UEAAXM@Z ; AudioEffectX::__setOutputSamplerateDeprecated
PUBLIC	?offlineGetCurrentMetaPass@AudioEffectX@@UEAAHXZ ; AudioEffectX::offlineGetCurrentMetaPass
PUBLIC	?offlineGetCurrentPass@AudioEffectX@@UEAAHXZ	; AudioEffectX::offlineGetCurrentPass
PUBLIC	?offlineStart@AudioEffectX@@UEAA_NPEAUVstAudioFile@@HH@Z ; AudioEffectX::offlineStart
PUBLIC	?offlineWrite@AudioEffectX@@UEAA_NPEAUVstOfflineTask@@W4VstOfflineOption@@@Z ; AudioEffectX::offlineWrite
PUBLIC	?offlineRead@AudioEffectX@@UEAA_NPEAUVstOfflineTask@@W4VstOfflineOption@@_N@Z ; AudioEffectX::offlineRead
PUBLIC	?__hasExternalBufferDeprecated@AudioEffectX@@UEAAX_N@Z ; AudioEffectX::__hasExternalBufferDeprecated
PUBLIC	?__wantAsyncOperationDeprecated@AudioEffectX@@UEAAX_N@Z ; AudioEffectX::__wantAsyncOperationDeprecated
PUBLIC	?getAutomationState@AudioEffectX@@UEAAHXZ	; AudioEffectX::getAutomationState
PUBLIC	?getCurrentProcessLevel@AudioEffectX@@UEAAHXZ	; AudioEffectX::getCurrentProcessLevel
PUBLIC	?__willProcessReplacingDeprecated@AudioEffectX@@UEAAHXZ ; AudioEffectX::__willProcessReplacingDeprecated
PUBLIC	?getPlugCategory@AudioEffectX@@UEAA?AW4VstPlugCategory@@XZ ; AudioEffectX::getPlugCategory
PUBLIC	?__getNextPlugDeprecated@AudioEffectX@@UEAAPEAUAEffect@@H@Z ; AudioEffectX::__getNextPlugDeprecated
PUBLIC	?__getPreviousPlugDeprecated@AudioEffectX@@UEAAPEAUAEffect@@H@Z ; AudioEffectX::__getPreviousPlugDeprecated
PUBLIC	?getOutputLatency@AudioEffectX@@UEAAHXZ		; AudioEffectX::getOutputLatency
PUBLIC	?getInputLatency@AudioEffectX@@UEAAHXZ		; AudioEffectX::getInputLatency
PUBLIC	?updateBlockSize@AudioEffectX@@UEAAHXZ		; AudioEffectX::updateBlockSize
PUBLIC	?updateSampleRate@AudioEffectX@@UEAANXZ		; AudioEffectX::updateSampleRate
PUBLIC	?sizeWindow@AudioEffectX@@UEAA_NHH@Z		; AudioEffectX::sizeWindow
PUBLIC	?__needIdleDeprecated@AudioEffectX@@UEAA_NXZ	; AudioEffectX::__needIdleDeprecated
PUBLIC	?ioChanged@AudioEffectX@@UEAA_NXZ		; AudioEffectX::ioChanged
PUBLIC	?__getParameterQuantizationDeprecated@AudioEffectX@@UEAAHXZ ; AudioEffectX::__getParameterQuantizationDeprecated
PUBLIC	?__getNumAutomatableParametersDeprecated@AudioEffectX@@UEAAHXZ ; AudioEffectX::__getNumAutomatableParametersDeprecated
PUBLIC	?__tempoAtDeprecated@AudioEffectX@@UEAAHH@Z	; AudioEffectX::__tempoAtDeprecated
PUBLIC	?getTimeInfo@AudioEffectX@@UEAAPEAUVstTimeInfo@@H@Z ; AudioEffectX::getTimeInfo
PUBLIC	?__wantEventsDeprecated@AudioEffectX@@UEAAXH@Z	; AudioEffectX::__wantEventsDeprecated
PUBLIC	?resume@AudioEffectX@@UEAAXXZ			; AudioEffectX::resume
PUBLIC	?dispatcher@AudioEffectX@@UEAA_JHH_JPEAXM@Z	; AudioEffectX::dispatcher
PUBLIC	??1AudioEffectX@@UEAA@XZ			; AudioEffectX::~AudioEffectX
PUBLIC	??_GAudioEffectX@@UEAAPEAXI@Z			; AudioEffectX::`scalar deleting destructor'
PUBLIC	??0AudioEffectX@@QEAA@P6A_JPEAUAEffect@@HH_JPEAXM@ZHH@Z ; AudioEffectX::AudioEffectX
PUBLIC	?__keysRequiredDeprecated@AudioEffectX@@UEAA_NXZ ; AudioEffectX::__keysRequiredDeprecated
PUBLIC	?__fxIdleDeprecated@AudioEffectX@@UEAAHXZ	; AudioEffectX::__fxIdleDeprecated
PUBLIC	?__setViewPositionDeprecated@AudioEffectX@@UEAA_NHH@Z ; AudioEffectX::__setViewPositionDeprecated
PUBLIC	?__getIconDeprecated@AudioEffectX@@UEAAPEAXXZ	; AudioEffectX::__getIconDeprecated
PUBLIC	?__getErrorTextDeprecated@AudioEffectX@@UEAA_NPEAD@Z ; AudioEffectX::__getErrorTextDeprecated
PUBLIC	?__setBlockSizeAndSampleRateDeprecated@AudioEffectX@@UEAAXHM@Z ; AudioEffectX::__setBlockSizeAndSampleRateDeprecated
PUBLIC	?__reportDestinationBufferDeprecated@AudioEffectX@@UEAAPEAMXZ ; AudioEffectX::__reportDestinationBufferDeprecated
PUBLIC	?__reportCurrentPositionDeprecated@AudioEffectX@@UEAAHXZ ; AudioEffectX::__reportCurrentPositionDeprecated
PUBLIC	?__outputConnectedDeprecated@AudioEffectX@@UEAAXH_N@Z ; AudioEffectX::__outputConnectedDeprecated
PUBLIC	?__inputConnectedDeprecated@AudioEffectX@@UEAAXH_N@Z ; AudioEffectX::__inputConnectedDeprecated
PUBLIC	?__copyProgramDeprecated@AudioEffectX@@UEAA_NH@Z ; AudioEffectX::__copyProgramDeprecated
PUBLIC	?__getNumCategoriesDeprecated@AudioEffectX@@UEAAHXZ ; AudioEffectX::__getNumCategoriesDeprecated
PUBLIC	?offlineGetNumMetaPasses@AudioEffectX@@UEAAHXZ	; AudioEffectX::offlineGetNumMetaPasses
PUBLIC	?offlineGetNumPasses@AudioEffectX@@UEAAHXZ	; AudioEffectX::offlineGetNumPasses
PUBLIC	?offlineRun@AudioEffectX@@UEAA_NPEAUVstOfflineTask@@H@Z ; AudioEffectX::offlineRun
PUBLIC	?offlinePrepare@AudioEffectX@@UEAA_NPEAUVstOfflineTask@@H@Z ; AudioEffectX::offlinePrepare
PUBLIC	?offlineNotify@AudioEffectX@@UEAA_NPEAUVstAudioFile@@H_N@Z ; AudioEffectX::offlineNotify
PUBLIC	?getNextShellPlugin@AudioEffectX@@UEAAHPEAD@Z	; AudioEffectX::getNextShellPlugin
PUBLIC	?getMidiKeyName@AudioEffectX@@UEAA_NHPEAUMidiKeyName@@@Z ; AudioEffectX::getMidiKeyName
PUBLIC	?hasMidiProgramsChanged@AudioEffectX@@UEAA_NH@Z	; AudioEffectX::hasMidiProgramsChanged
PUBLIC	?getMidiProgramCategory@AudioEffectX@@UEAAHHPEAUMidiProgramCategory@@@Z ; AudioEffectX::getMidiProgramCategory
PUBLIC	?getCurrentMidiProgram@AudioEffectX@@UEAAHHPEAUMidiProgramName@@@Z ; AudioEffectX::getCurrentMidiProgram
PUBLIC	?getMidiProgramName@AudioEffectX@@UEAAHHPEAUMidiProgramName@@@Z ; AudioEffectX::getMidiProgramName
PUBLIC	?getVstVersion@AudioEffectX@@UEAAHXZ		; AudioEffectX::getVstVersion
PUBLIC	?canDo@AudioEffectX@@UEAAHPEAD@Z		; AudioEffectX::canDo
PUBLIC	?vendorSpecific@AudioEffectX@@UEAA_JH_JPEAXM@Z	; AudioEffectX::vendorSpecific
PUBLIC	?getVendorVersion@AudioEffectX@@UEAAHXZ		; AudioEffectX::getVendorVersion
PUBLIC	?getProductString@AudioEffectX@@UEAA_NPEAD@Z	; AudioEffectX::getProductString
PUBLIC	?getVendorString@AudioEffectX@@UEAA_NPEAD@Z	; AudioEffectX::getVendorString
PUBLIC	?getEffectName@AudioEffectX@@UEAA_NPEAD@Z	; AudioEffectX::getEffectName
PUBLIC	?getGetTailSize@AudioEffectX@@UEAAHXZ		; AudioEffectX::getGetTailSize
PUBLIC	?setTotalSampleToProcess@AudioEffectX@@UEAAHH@Z	; AudioEffectX::setTotalSampleToProcess
PUBLIC	?processVariableIo@AudioEffectX@@UEAA_NPEAUVstVariableIo@@@Z ; AudioEffectX::processVariableIo
PUBLIC	?stopProcess@AudioEffectX@@UEAAHXZ		; AudioEffectX::stopProcess
PUBLIC	?startProcess@AudioEffectX@@UEAAHXZ		; AudioEffectX::startProcess
PUBLIC	?processEvents@AudioEffectX@@UEAAHPEAUVstEvents@@@Z ; AudioEffectX::processEvents
PUBLIC	?getNumMidiOutputChannels@AudioEffectX@@UEAAHXZ	; AudioEffectX::getNumMidiOutputChannels
PUBLIC	?getNumMidiInputChannels@AudioEffectX@@UEAAHXZ	; AudioEffectX::getNumMidiInputChannels
PUBLIC	?setProcessPrecision@AudioEffectX@@UEAA_NH@Z	; AudioEffectX::setProcessPrecision
PUBLIC	?setPanLaw@AudioEffectX@@UEAA_NHM@Z		; AudioEffectX::setPanLaw
PUBLIC	?setBypass@AudioEffectX@@UEAA_N_N@Z		; AudioEffectX::setBypass
PUBLIC	?getSpeakerArrangement@AudioEffectX@@UEAA_NPEAPEAUVstSpeakerArrangement@@0@Z ; AudioEffectX::getSpeakerArrangement
PUBLIC	?setSpeakerArrangement@AudioEffectX@@UEAA_NPEAUVstSpeakerArrangement@@0@Z ; AudioEffectX::setSpeakerArrangement
PUBLIC	?getOutputProperties@AudioEffectX@@UEAA_NHPEAUVstPinProperties@@@Z ; AudioEffectX::getOutputProperties
PUBLIC	?getInputProperties@AudioEffectX@@UEAA_NHPEAUVstPinProperties@@@Z ; AudioEffectX::getInputProperties
PUBLIC	?beginLoadProgram@AudioEffectX@@UEAAHPEAUVstPatchChunkInfo@@@Z ; AudioEffectX::beginLoadProgram
PUBLIC	?beginLoadBank@AudioEffectX@@UEAAHPEAUVstPatchChunkInfo@@@Z ; AudioEffectX::beginLoadBank
PUBLIC	?endSetProgram@AudioEffectX@@UEAA_NXZ		; AudioEffectX::endSetProgram
PUBLIC	?beginSetProgram@AudioEffectX@@UEAA_NXZ		; AudioEffectX::beginSetProgram
PUBLIC	?getProgramNameIndexed@AudioEffectX@@UEAA_NHHPEAD@Z ; AudioEffectX::getProgramNameIndexed
PUBLIC	?getParameterProperties@AudioEffectX@@UEAA_NHPEAUVstParameterProperties@@@Z ; AudioEffectX::getParameterProperties
PUBLIC	?string2parameter@AudioEffectX@@UEAA_NHPEAD@Z	; AudioEffectX::string2parameter
PUBLIC	?canParameterBeAutomated@AudioEffectX@@UEAA_NH@Z ; AudioEffectX::canParameterBeAutomated
EXTRN	??_EAudioEffectX@@UEAAPEAXI@Z:PROC		; AudioEffectX::`vector deleting destructor'
;	COMDAT pdata
pdata	SEGMENT
$pdata$?matchArrangement@AudioEffectX@@UEAA_NPEAPEAUVstSpeakerArrangement@@PEAU2@@Z DD imagerel $LN16
	DD	imagerel $LN16+165
	DD	imagerel $unwind$?matchArrangement@AudioEffectX@@UEAA_NPEAPEAUVstSpeakerArrangement@@PEAU2@@Z
pdata	ENDS
;	COMDAT pdata
pdata	SEGMENT
$pdata$?copySpeaker@AudioEffectX@@UEAA_NPEAUVstSpeakerProperties@@0@Z DD imagerel $LN8
	DD	imagerel $LN8+125
	DD	imagerel $unwind$?copySpeaker@AudioEffectX@@UEAA_NPEAUVstSpeakerProperties@@0@Z
pdata	ENDS
;	COMDAT pdata
pdata	SEGMENT
$pdata$?deallocateArrangement@AudioEffectX@@UEAA_NPEAPEAUVstSpeakerArrangement@@@Z DD imagerel $LN5
	DD	imagerel $LN5+34
	DD	imagerel $unwind$?deallocateArrangement@AudioEffectX@@UEAA_NPEAPEAUVstSpeakerArrangement@@@Z
pdata	ENDS
;	COMDAT pdata
pdata	SEGMENT
$pdata$?allocateArrangement@AudioEffectX@@UEAA_NPEAPEAUVstSpeakerArrangement@@H@Z DD imagerel $LN6
	DD	imagerel $LN6+101
	DD	imagerel $unwind$?allocateArrangement@AudioEffectX@@UEAA_NPEAPEAUVstSpeakerArrangement@@H@Z
pdata	ENDS
;	COMDAT pdata
pdata	SEGMENT
$pdata$?__getChunkFileDeprecated@AudioEffectX@@UEAA_NPEAX@Z DD imagerel $LN5
	DD	imagerel $LN5+63
	DD	imagerel $unwind$?__getChunkFileDeprecated@AudioEffectX@@UEAA_NPEAX@Z
pdata	ENDS
;	COMDAT pdata
pdata	SEGMENT
$pdata$?closeFileSelector@AudioEffectX@@UEAA_NPEAUVstFileSelect@@@Z DD imagerel $LN5
	DD	imagerel $LN5+63
	DD	imagerel $unwind$?closeFileSelector@AudioEffectX@@UEAA_NPEAUVstFileSelect@@@Z
pdata	ENDS
;	COMDAT pdata
pdata	SEGMENT
$pdata$?openFileSelector@AudioEffectX@@UEAA_NPEAUVstFileSelect@@@Z DD imagerel $LN5
	DD	imagerel $LN5+63
	DD	imagerel $unwind$?openFileSelector@AudioEffectX@@UEAA_NPEAUVstFileSelect@@@Z
pdata	ENDS
;	COMDAT pdata
pdata	SEGMENT
$pdata$?endEdit@AudioEffectX@@UEAA_NH@Z DD imagerel $LN5
	DD	imagerel $LN5+55
	DD	imagerel $unwind$?endEdit@AudioEffectX@@UEAA_NH@Z
pdata	ENDS
;	COMDAT pdata
pdata	SEGMENT
$pdata$?beginEdit@AudioEffectX@@UEAA_NH@Z DD imagerel $LN5
	DD	imagerel $LN5+55
	DD	imagerel $unwind$?beginEdit@AudioEffectX@@UEAA_NH@Z
pdata	ENDS
;	COMDAT pdata
pdata	SEGMENT
$pdata$?updateDisplay@AudioEffectX@@UEAA_NXZ DD imagerel $LN5
	DD	imagerel $LN5+55
	DD	imagerel $unwind$?updateDisplay@AudioEffectX@@UEAA_NXZ
pdata	ENDS
;	COMDAT pdata
pdata	SEGMENT
$pdata$?getDirectory@AudioEffectX@@UEAAPEAXXZ DD imagerel $LN5
	DD	imagerel $LN5+49
	DD	imagerel $unwind$?getDirectory@AudioEffectX@@UEAAPEAXXZ
pdata	ENDS
;	COMDAT pdata
pdata	SEGMENT
$pdata$?__closeWindowDeprecated@AudioEffectX@@UEAA_NPEAU__VstWindowDeprecated@@@Z DD imagerel $LN5
	DD	imagerel $LN5+54
	DD	imagerel $unwind$?__closeWindowDeprecated@AudioEffectX@@UEAA_NPEAU__VstWindowDeprecated@@@Z
pdata	ENDS
;	COMDAT pdata
pdata	SEGMENT
$pdata$?__openWindowDeprecated@AudioEffectX@@UEAAPEAXPEAU__VstWindowDeprecated@@@Z DD imagerel $LN5
	DD	imagerel $LN5+48
	DD	imagerel $unwind$?__openWindowDeprecated@AudioEffectX@@UEAAPEAXPEAU__VstWindowDeprecated@@@Z
pdata	ENDS
;	COMDAT pdata
pdata	SEGMENT
$pdata$?getHostLanguage@AudioEffectX@@UEAAHXZ DD imagerel $LN5
	DD	imagerel $LN5+49
	DD	imagerel $unwind$?getHostLanguage@AudioEffectX@@UEAAHXZ
pdata	ENDS
;	COMDAT pdata
pdata	SEGMENT
$pdata$?canHostDo@AudioEffectX@@UEAAHPEAD@Z DD imagerel $LN5
	DD	imagerel $LN5+60
	DD	imagerel $unwind$?canHostDo@AudioEffectX@@UEAAHPEAD@Z
pdata	ENDS
;	COMDAT pdata
pdata	SEGMENT
$pdata$?hostVendorSpecific@AudioEffectX@@UEAA_JH_JPEAXM@Z DD imagerel $LN5
	DD	imagerel $LN5+52
	DD	imagerel $unwind$?hostVendorSpecific@AudioEffectX@@UEAA_JH_JPEAXM@Z
pdata	ENDS
;	COMDAT pdata
pdata	SEGMENT
$pdata$?getHostVendorVersion@AudioEffectX@@UEAAHXZ DD imagerel $LN5
	DD	imagerel $LN5+49
	DD	imagerel $unwind$?getHostVendorVersion@AudioEffectX@@UEAAHXZ
pdata	ENDS
;	COMDAT pdata
pdata	SEGMENT
$pdata$?getHostProductString@AudioEffectX@@UEAA_NPEAD@Z DD imagerel $LN5
	DD	imagerel $LN5+54
	DD	imagerel $unwind$?getHostProductString@AudioEffectX@@UEAA_NPEAD@Z
pdata	ENDS
;	COMDAT pdata
pdata	SEGMENT
$pdata$?getHostVendorString@AudioEffectX@@UEAA_NPEAD@Z DD imagerel $LN5
	DD	imagerel $LN5+54
	DD	imagerel $unwind$?getHostVendorString@AudioEffectX@@UEAA_NPEAD@Z
pdata	ENDS
;	COMDAT pdata
pdata	SEGMENT
$pdata$?__getOutputSpeakerArrangementDeprecated@AudioEffectX@@UEAAPEAUVstSpeakerArrangement@@XZ DD imagerel $LN5
	DD	imagerel $LN5+49
	DD	imagerel $unwind$?__getOutputSpeakerArrangementDeprecated@AudioEffectX@@UEAAPEAUVstSpeakerArrangement@@XZ
pdata	ENDS
;	COMDAT pdata
pdata	SEGMENT
$pdata$?__getInputSpeakerArrangementDeprecated@AudioEffectX@@UEAAPEAUVstSpeakerArrangement@@XZ DD imagerel $LN5
	DD	imagerel $LN5+49
	DD	imagerel $unwind$?__getInputSpeakerArrangementDeprecated@AudioEffectX@@UEAAPEAUVstSpeakerArrangement@@XZ
pdata	ENDS
;	COMDAT pdata
pdata	SEGMENT
$pdata$?__setOutputSamplerateDeprecated@AudioEffectX@@UEAAXM@Z DD imagerel $LN5
	DD	imagerel $LN5+46
	DD	imagerel $unwind$?__setOutputSamplerateDeprecated@AudioEffectX@@UEAAXM@Z
pdata	ENDS
;	COMDAT pdata
pdata	SEGMENT
$pdata$?offlineGetCurrentMetaPass@AudioEffectX@@UEAAHXZ DD imagerel $LN5
	DD	imagerel $LN5+60
	DD	imagerel $unwind$?offlineGetCurrentMetaPass@AudioEffectX@@UEAAHXZ
pdata	ENDS
;	COMDAT pdata
pdata	SEGMENT
$pdata$?offlineGetCurrentPass@AudioEffectX@@UEAAHXZ DD imagerel $LN5
	DD	imagerel $LN5+60
	DD	imagerel $unwind$?offlineGetCurrentPass@AudioEffectX@@UEAAHXZ
pdata	ENDS
;	COMDAT pdata
pdata	SEGMENT
$pdata$?offlineStart@AudioEffectX@@UEAA_NPEAUVstAudioFile@@HH@Z DD imagerel $LN5
	DD	imagerel $LN5+58
	DD	imagerel $unwind$?offlineStart@AudioEffectX@@UEAA_NPEAUVstAudioFile@@HH@Z
pdata	ENDS
;	COMDAT pdata
pdata	SEGMENT
$pdata$?offlineWrite@AudioEffectX@@UEAA_NPEAUVstOfflineTask@@W4VstOfflineOption@@@Z DD imagerel $LN5
	DD	imagerel $LN5+54
	DD	imagerel $unwind$?offlineWrite@AudioEffectX@@UEAA_NPEAUVstOfflineTask@@W4VstOfflineOption@@@Z
pdata	ENDS
;	COMDAT pdata
pdata	SEGMENT
$pdata$?offlineRead@AudioEffectX@@UEAA_NPEAUVstOfflineTask@@W4VstOfflineOption@@_N@Z DD imagerel $LN5
	DD	imagerel $LN5+59
	DD	imagerel $unwind$?offlineRead@AudioEffectX@@UEAA_NPEAUVstOfflineTask@@W4VstOfflineOption@@_N@Z
pdata	ENDS
;	COMDAT pdata
pdata	SEGMENT
$pdata$?getAutomationState@AudioEffectX@@UEAAHXZ DD imagerel $LN5
	DD	imagerel $LN5+49
	DD	imagerel $unwind$?getAutomationState@AudioEffectX@@UEAAHXZ
pdata	ENDS
;	COMDAT pdata
pdata	SEGMENT
$pdata$?getCurrentProcessLevel@AudioEffectX@@UEAAHXZ DD imagerel $LN5
	DD	imagerel $LN5+49
	DD	imagerel $unwind$?getCurrentProcessLevel@AudioEffectX@@UEAAHXZ
pdata	ENDS
;	COMDAT pdata
pdata	SEGMENT
$pdata$?__willProcessReplacingDeprecated@AudioEffectX@@UEAAHXZ DD imagerel $LN5
	DD	imagerel $LN5+49
	DD	imagerel $unwind$?__willProcessReplacingDeprecated@AudioEffectX@@UEAAHXZ
pdata	ENDS
;	COMDAT pdata
pdata	SEGMENT
$pdata$?__getNextPlugDeprecated@AudioEffectX@@UEAAPEAUAEffect@@H@Z DD imagerel $LN5
	DD	imagerel $LN5+49
	DD	imagerel $unwind$?__getNextPlugDeprecated@AudioEffectX@@UEAAPEAUAEffect@@H@Z
pdata	ENDS
;	COMDAT pdata
pdata	SEGMENT
$pdata$?__getPreviousPlugDeprecated@AudioEffectX@@UEAAPEAUAEffect@@H@Z DD imagerel $LN5
	DD	imagerel $LN5+49
	DD	imagerel $unwind$?__getPreviousPlugDeprecated@AudioEffectX@@UEAAPEAUAEffect@@H@Z
pdata	ENDS
;	COMDAT pdata
pdata	SEGMENT
$pdata$?getOutputLatency@AudioEffectX@@UEAAHXZ DD imagerel $LN5
	DD	imagerel $LN5+49
	DD	imagerel $unwind$?getOutputLatency@AudioEffectX@@UEAAHXZ
pdata	ENDS
;	COMDAT pdata
pdata	SEGMENT
$pdata$?getInputLatency@AudioEffectX@@UEAAHXZ DD imagerel $LN5
	DD	imagerel $LN5+49
	DD	imagerel $unwind$?getInputLatency@AudioEffectX@@UEAAHXZ
pdata	ENDS
;	COMDAT pdata
pdata	SEGMENT
$pdata$?updateBlockSize@AudioEffectX@@UEAAHXZ DD imagerel $LN6
	DD	imagerel $LN6+65
	DD	imagerel $unwind$?updateBlockSize@AudioEffectX@@UEAAHXZ
pdata	ENDS
;	COMDAT pdata
pdata	SEGMENT
$pdata$?updateSampleRate@AudioEffectX@@UEAANXZ DD imagerel $LN6
	DD	imagerel $LN6+81
	DD	imagerel $unwind$?updateSampleRate@AudioEffectX@@UEAANXZ
pdata	ENDS
;	COMDAT pdata
pdata	SEGMENT
$pdata$?sizeWindow@AudioEffectX@@UEAA_NHH@Z DD imagerel $LN5
	DD	imagerel $LN5+56
	DD	imagerel $unwind$?sizeWindow@AudioEffectX@@UEAA_NHH@Z
pdata	ENDS
;	COMDAT pdata
pdata	SEGMENT
$pdata$?__needIdleDeprecated@AudioEffectX@@UEAA_NXZ DD imagerel $LN5
	DD	imagerel $LN5+55
	DD	imagerel $unwind$?__needIdleDeprecated@AudioEffectX@@UEAA_NXZ
pdata	ENDS
;	COMDAT pdata
pdata	SEGMENT
$pdata$?ioChanged@AudioEffectX@@UEAA_NXZ DD imagerel $LN5
	DD	imagerel $LN5+55
	DD	imagerel $unwind$?ioChanged@AudioEffectX@@UEAA_NXZ
pdata	ENDS
;	COMDAT pdata
pdata	SEGMENT
$pdata$?__getParameterQuantizationDeprecated@AudioEffectX@@UEAAHXZ DD imagerel $LN5
	DD	imagerel $LN5+49
	DD	imagerel $unwind$?__getParameterQuantizationDeprecated@AudioEffectX@@UEAAHXZ
pdata	ENDS
;	COMDAT pdata
pdata	SEGMENT
$pdata$?__getNumAutomatableParametersDeprecated@AudioEffectX@@UEAAHXZ DD imagerel $LN5
	DD	imagerel $LN5+49
	DD	imagerel $unwind$?__getNumAutomatableParametersDeprecated@AudioEffectX@@UEAAHXZ
pdata	ENDS
;	COMDAT pdata
pdata	SEGMENT
$pdata$?__tempoAtDeprecated@AudioEffectX@@UEAAHH@Z DD imagerel $LN5
	DD	imagerel $LN5+49
	DD	imagerel $unwind$?__tempoAtDeprecated@AudioEffectX@@UEAAHH@Z
pdata	ENDS
;	COMDAT pdata
pdata	SEGMENT
$pdata$?getTimeInfo@AudioEffectX@@UEAAPEAUVstTimeInfo@@H@Z DD imagerel $LN5
	DD	imagerel $LN5+49
	DD	imagerel $unwind$?getTimeInfo@AudioEffectX@@UEAAPEAUVstTimeInfo@@H@Z
pdata	ENDS
;	COMDAT pdata
pdata	SEGMENT
$pdata$?__wantEventsDeprecated@AudioEffectX@@UEAAXH@Z DD imagerel $LN5
	DD	imagerel $LN5+49
	DD	imagerel $unwind$?__wantEventsDeprecated@AudioEffectX@@UEAAXH@Z
pdata	ENDS
;	COMDAT pdata
pdata	SEGMENT
$pdata$?resume@AudioEffectX@@UEAAXXZ DD imagerel $LN6
	DD	imagerel $LN6+62
	DD	imagerel $unwind$?resume@AudioEffectX@@UEAAXXZ
pdata	ENDS
;	COMDAT pdata
pdata	SEGMENT
$pdata$?dispatcher@AudioEffectX@@UEAA_JHH_JPEAXM@Z DD imagerel $LN64
	DD	imagerel $LN64+1282
	DD	imagerel $unwind$?dispatcher@AudioEffectX@@UEAA_JHH_JPEAXM@Z
pdata	ENDS
;	COMDAT pdata
pdata	SEGMENT
$pdata$??_GAudioEffectX@@UEAAPEAXI@Z DD imagerel $LN9
	DD	imagerel $LN9+52
	DD	imagerel $unwind$??_GAudioEffectX@@UEAAPEAXI@Z
pdata	ENDS
;	COMDAT pdata
pdata	SEGMENT
$pdata$??0AudioEffectX@@QEAA@P6A_JPEAUAEffect@@HH_JPEAXM@ZHH@Z DD imagerel $LN11
	DD	imagerel $LN11+251
	DD	imagerel $unwind$??0AudioEffectX@@QEAA@P6A_JPEAUAEffect@@HH_JPEAXM@ZHH@Z
;	COMDAT xdata
xdata	SEGMENT
$unwind$??0AudioEffectX@@QEAA@P6A_JPEAUAEffect@@HH_JPEAXM@ZHH@Z DD 040a01H
	DD	06340aH
	DD	07006320aH
xdata	ENDS
;	COMDAT xdata
xdata	SEGMENT
$unwind$??_GAudioEffectX@@UEAAPEAXI@Z DD 040a01H
	DD	06340aH
	DD	07006320aH
xdata	ENDS
;	COMDAT xdata
xdata	SEGMENT
$unwind$?dispatcher@AudioEffectX@@UEAA_JHH_JPEAXM@Z DD 040d01H
	DD	0a340dH
	DD	05006720dH
xdata	ENDS
;	COMDAT xdata
xdata	SEGMENT
$unwind$?resume@AudioEffectX@@UEAAXXZ DD 020601H
	DD	030023206H
xdata	ENDS
;	COMDAT xdata
xdata	SEGMENT
$unwind$?__wantEventsDeprecated@AudioEffectX@@UEAAXH@Z DD 010401H
	DD	06204H
xdata	ENDS
;	COMDAT xdata
xdata	SEGMENT
$unwind$?getTimeInfo@AudioEffectX@@UEAAPEAUVstTimeInfo@@H@Z DD 010401H
	DD	06204H
xdata	ENDS
;	COMDAT xdata
xdata	SEGMENT
$unwind$?__tempoAtDeprecated@AudioEffectX@@UEAAHH@Z DD 010401H
	DD	06204H
xdata	ENDS
;	COMDAT xdata
xdata	SEGMENT
$unwind$?__getNumAutomatableParametersDeprecated@AudioEffectX@@UEAAHXZ DD 010401H
	DD	06204H
xdata	ENDS
;	COMDAT xdata
xdata	SEGMENT
$unwind$?__getParameterQuantizationDeprecated@AudioEffectX@@UEAAHXZ DD 010401H
	DD	06204H
xdata	ENDS
;	COMDAT xdata
xdata	SEGMENT
$unwind$?ioChanged@AudioEffectX@@UEAA_NXZ DD 010401H
	DD	06204H
xdata	ENDS
;	COMDAT xdata
xdata	SEGMENT
$unwind$?__needIdleDeprecated@AudioEffectX@@UEAA_NXZ DD 010401H
	DD	06204H
xdata	ENDS
;	COMDAT xdata
xdata	SEGMENT
$unwind$?sizeWindow@AudioEffectX@@UEAA_NHH@Z DD 010401H
	DD	06204H
xdata	ENDS
;	COMDAT xdata
xdata	SEGMENT
$unwind$?updateSampleRate@AudioEffectX@@UEAANXZ DD 020601H
	DD	030025206H
xdata	ENDS
;	COMDAT xdata
xdata	SEGMENT
$unwind$?updateBlockSize@AudioEffectX@@UEAAHXZ DD 020601H
	DD	030025206H
xdata	ENDS
;	COMDAT xdata
xdata	SEGMENT
$unwind$?getInputLatency@AudioEffectX@@UEAAHXZ DD 010401H
	DD	06204H
xdata	ENDS
;	COMDAT xdata
xdata	SEGMENT
$unwind$?getOutputLatency@AudioEffectX@@UEAAHXZ DD 010401H
	DD	06204H
xdata	ENDS
;	COMDAT xdata
xdata	SEGMENT
$unwind$?__getPreviousPlugDeprecated@AudioEffectX@@UEAAPEAUAEffect@@H@Z DD 010401H
	DD	06204H
xdata	ENDS
;	COMDAT xdata
xdata	SEGMENT
$unwind$?__getNextPlugDeprecated@AudioEffectX@@UEAAPEAUAEffect@@H@Z DD 010401H
	DD	06204H
xdata	ENDS
;	COMDAT xdata
xdata	SEGMENT
$unwind$?__willProcessReplacingDeprecated@AudioEffectX@@UEAAHXZ DD 010401H
	DD	06204H
xdata	ENDS
;	COMDAT xdata
xdata	SEGMENT
$unwind$?getCurrentProcessLevel@AudioEffectX@@UEAAHXZ DD 010401H
	DD	06204H
xdata	ENDS
;	COMDAT xdata
xdata	SEGMENT
$unwind$?getAutomationState@AudioEffectX@@UEAAHXZ DD 010401H
	DD	06204H
xdata	ENDS
;	COMDAT xdata
xdata	SEGMENT
$unwind$?offlineRead@AudioEffectX@@UEAA_NPEAUVstOfflineTask@@W4VstOfflineOption@@_N@Z DD 010401H
	DD	06204H
xdata	ENDS
;	COMDAT xdata
xdata	SEGMENT
$unwind$?offlineWrite@AudioEffectX@@UEAA_NPEAUVstOfflineTask@@W4VstOfflineOption@@@Z DD 010401H
	DD	06204H
xdata	ENDS
;	COMDAT xdata
xdata	SEGMENT
$unwind$?offlineStart@AudioEffectX@@UEAA_NPEAUVstAudioFile@@HH@Z DD 010401H
	DD	06204H
xdata	ENDS
;	COMDAT xdata
xdata	SEGMENT
$unwind$?offlineGetCurrentPass@AudioEffectX@@UEAAHXZ DD 020601H
	DD	030025206H
xdata	ENDS
;	COMDAT xdata
xdata	SEGMENT
$unwind$?offlineGetCurrentMetaPass@AudioEffectX@@UEAAHXZ DD 020601H
	DD	030025206H
xdata	ENDS
;	COMDAT xdata
xdata	SEGMENT
$unwind$?__setOutputSamplerateDeprecated@AudioEffectX@@UEAAXM@Z DD 010401H
	DD	06204H
xdata	ENDS
;	COMDAT xdata
xdata	SEGMENT
$unwind$?__getInputSpeakerArrangementDeprecated@AudioEffectX@@UEAAPEAUVstSpeakerArrangement@@XZ DD 010401H
	DD	06204H
xdata	ENDS
;	COMDAT xdata
xdata	SEGMENT
$unwind$?__getOutputSpeakerArrangementDeprecated@AudioEffectX@@UEAAPEAUVstSpeakerArrangement@@XZ DD 010401H
	DD	06204H
xdata	ENDS
;	COMDAT xdata
xdata	SEGMENT
$unwind$?getHostVendorString@AudioEffectX@@UEAA_NPEAD@Z DD 010401H
	DD	06204H
xdata	ENDS
;	COMDAT xdata
xdata	SEGMENT
$unwind$?getHostProductString@AudioEffectX@@UEAA_NPEAD@Z DD 010401H
	DD	06204H
xdata	ENDS
;	COMDAT xdata
xdata	SEGMENT
$unwind$?getHostVendorVersion@AudioEffectX@@UEAAHXZ DD 010401H
	DD	06204H
xdata	ENDS
;	COMDAT xdata
xdata	SEGMENT
$unwind$?hostVendorSpecific@AudioEffectX@@UEAA_JH_JPEAXM@Z DD 010401H
	DD	06204H
xdata	ENDS
;	COMDAT xdata
xdata	SEGMENT
$unwind$?canHostDo@AudioEffectX@@UEAAHPEAD@Z DD 020601H
	DD	030025206H
xdata	ENDS
;	COMDAT xdata
xdata	SEGMENT
$unwind$?getHostLanguage@AudioEffectX@@UEAAHXZ DD 010401H
	DD	06204H
xdata	ENDS
;	COMDAT xdata
xdata	SEGMENT
$unwind$?__openWindowDeprecated@AudioEffectX@@UEAAPEAXPEAU__VstWindowDeprecated@@@Z DD 010401H
	DD	06204H
xdata	ENDS
;	COMDAT xdata
xdata	SEGMENT
$unwind$?__closeWindowDeprecated@AudioEffectX@@UEAA_NPEAU__VstWindowDeprecated@@@Z DD 010401H
	DD	06204H
xdata	ENDS
;	COMDAT xdata
xdata	SEGMENT
$unwind$?getDirectory@AudioEffectX@@UEAAPEAXXZ DD 010401H
	DD	06204H
xdata	ENDS
;	COMDAT xdata
xdata	SEGMENT
$unwind$?updateDisplay@AudioEffectX@@UEAA_NXZ DD 010401H
	DD	06204H
xdata	ENDS
;	COMDAT xdata
xdata	SEGMENT
$unwind$?beginEdit@AudioEffectX@@UEAA_NH@Z DD 010401H
	DD	06204H
xdata	ENDS
;	COMDAT xdata
xdata	SEGMENT
$unwind$?endEdit@AudioEffectX@@UEAA_NH@Z DD 010401H
	DD	06204H
xdata	ENDS
;	COMDAT xdata
xdata	SEGMENT
$unwind$?openFileSelector@AudioEffectX@@UEAA_NPEAUVstFileSelect@@@Z DD 010401H
	DD	06204H
xdata	ENDS
;	COMDAT xdata
xdata	SEGMENT
$unwind$?closeFileSelector@AudioEffectX@@UEAA_NPEAUVstFileSelect@@@Z DD 010401H
	DD	06204H
xdata	ENDS
;	COMDAT xdata
xdata	SEGMENT
$unwind$?__getChunkFileDeprecated@AudioEffectX@@UEAA_NPEAX@Z DD 010401H
	DD	06204H
xdata	ENDS
;	COMDAT xdata
xdata	SEGMENT
$unwind$?allocateArrangement@AudioEffectX@@UEAA_NPEAPEAUVstSpeakerArrangement@@H@Z DD 081401H
	DD	086414H
	DD	075414H
	DD	063414H
	DD	070103214H
xdata	ENDS
;	COMDAT xdata
xdata	SEGMENT
$unwind$?deallocateArrangement@AudioEffectX@@UEAA_NPEAPEAUVstSpeakerArrangement@@@Z DD 020601H
	DD	030023206H
xdata	ENDS
;	COMDAT xdata
xdata	SEGMENT
$unwind$?copySpeaker@AudioEffectX@@UEAA_NPEAUVstSpeakerProperties@@0@Z DD 060f01H
	DD	07640fH
	DD	06340fH
	DD	0700b320fH
xdata	ENDS
;	COMDAT xdata
xdata	SEGMENT
$unwind$?matchArrangement@AudioEffectX@@UEAA_NPEAPEAUVstSpeakerArrangement@@PEAU2@@Z DD 081501H
	DD	087415H
	DD	076415H
	DD	063415H
	DD	0e0113215H
; Function compile flags: /Ogspy
; File E:\prova\Shimmer\vst-2.4-sdk\vstsdk2.4\public.sdk\source\vst2.x\audioeffectx.h
;	COMDAT ?canParameterBeAutomated@AudioEffectX@@UEAA_NH@Z
_TEXT	SEGMENT
this$ = 8
index$ = 16
?canParameterBeAutomated@AudioEffectX@@UEAA_NH@Z PROC	; AudioEffectX::canParameterBeAutomated, COMDAT

; 33   : 	virtual bool canParameterBeAutomated (VstInt32 index) { return true; }			///< Indicates if a parameter can be automated

	mov	al, 1
	ret	0
?canParameterBeAutomated@AudioEffectX@@UEAA_NH@Z ENDP	; AudioEffectX::canParameterBeAutomated
_TEXT	ENDS
; Function compile flags: /Ogspy
; File E:\prova\Shimmer\vst-2.4-sdk\vstsdk2.4\public.sdk\source\vst2.x\audioeffectx.h
;	COMDAT ?string2parameter@AudioEffectX@@UEAA_NHPEAD@Z
_TEXT	SEGMENT
this$ = 8
index$ = 16
text$ = 24
?string2parameter@AudioEffectX@@UEAA_NHPEAD@Z PROC	; AudioEffectX::string2parameter, COMDAT

; 34   : 	virtual bool string2parameter (VstInt32 index, char* text) { return false; }	///< Convert a string representation to a parameter value

	xor	al, al
	ret	0
?string2parameter@AudioEffectX@@UEAA_NHPEAD@Z ENDP	; AudioEffectX::string2parameter
_TEXT	ENDS
; Function compile flags: /Ogspy
; File E:\prova\Shimmer\vst-2.4-sdk\vstsdk2.4\public.sdk\source\vst2.x\audioeffectx.h
;	COMDAT ?getParameterProperties@AudioEffectX@@UEAA_NHPEAUVstParameterProperties@@@Z
_TEXT	SEGMENT
this$ = 8
index$ = 16
p$ = 24
?getParameterProperties@AudioEffectX@@UEAA_NHPEAUVstParameterProperties@@@Z PROC ; AudioEffectX::getParameterProperties, COMDAT

; 35   : 	virtual bool getParameterProperties (VstInt32 index, VstParameterProperties* p) { return false; } ///< Return parameter properties

	xor	al, al
	ret	0
?getParameterProperties@AudioEffectX@@UEAA_NHPEAUVstParameterProperties@@@Z ENDP ; AudioEffectX::getParameterProperties
_TEXT	ENDS
; Function compile flags: /Ogspy
; File E:\prova\Shimmer\vst-2.4-sdk\vstsdk2.4\public.sdk\source\vst2.x\audioeffectx.h
;	COMDAT ?getProgramNameIndexed@AudioEffectX@@UEAA_NHHPEAD@Z
_TEXT	SEGMENT
this$ = 8
category$ = 16
index$ = 24
text$ = 32
?getProgramNameIndexed@AudioEffectX@@UEAA_NHHPEAD@Z PROC ; AudioEffectX::getProgramNameIndexed, COMDAT

; 47   : 	virtual bool getProgramNameIndexed (VstInt32 category, VstInt32 index, char* text) { return false; } ///< Fill \e text with name of program \e index (\e category deprecated in VST 2.4)

	xor	al, al
	ret	0
?getProgramNameIndexed@AudioEffectX@@UEAA_NHHPEAD@Z ENDP ; AudioEffectX::getProgramNameIndexed
_TEXT	ENDS
; Function compile flags: /Ogspy
; File E:\prova\Shimmer\vst-2.4-sdk\vstsdk2.4\public.sdk\source\vst2.x\audioeffectx.h
;	COMDAT ?beginSetProgram@AudioEffectX@@UEAA_NXZ
_TEXT	SEGMENT
this$ = 8
?beginSetProgram@AudioEffectX@@UEAA_NXZ PROC		; AudioEffectX::beginSetProgram, COMDAT

; 50   : 	virtual bool beginSetProgram () { return false; }	///< Called before a program is loaded

	xor	al, al
	ret	0
?beginSetProgram@AudioEffectX@@UEAA_NXZ ENDP		; AudioEffectX::beginSetProgram
_TEXT	ENDS
; Function compile flags: /Ogspy
; File E:\prova\Shimmer\vst-2.4-sdk\vstsdk2.4\public.sdk\source\vst2.x\audioeffectx.h
;	COMDAT ?endSetProgram@AudioEffectX@@UEAA_NXZ
_TEXT	SEGMENT
this$ = 8
?endSetProgram@AudioEffectX@@UEAA_NXZ PROC		; AudioEffectX::endSetProgram, COMDAT

; 51   : 	virtual bool endSetProgram () { return false; }		///< Called after a program was loaded

	xor	al, al
	ret	0
?endSetProgram@AudioEffectX@@UEAA_NXZ ENDP		; AudioEffectX::endSetProgram
_TEXT	ENDS
; Function compile flags: /Ogspy
; File E:\prova\Shimmer\vst-2.4-sdk\vstsdk2.4\public.sdk\source\vst2.x\audioeffectx.h
;	COMDAT ?beginLoadBank@AudioEffectX@@UEAAHPEAUVstPatchChunkInfo@@@Z
_TEXT	SEGMENT
this$ = 8
ptr$ = 16
?beginLoadBank@AudioEffectX@@UEAAHPEAUVstPatchChunkInfo@@@Z PROC ; AudioEffectX::beginLoadBank, COMDAT

; 55   : 	virtual VstInt32 beginLoadBank (VstPatchChunkInfo* ptr) { return 0; }		///< Called before a Bank is loaded.

	xor	eax, eax
	ret	0
?beginLoadBank@AudioEffectX@@UEAAHPEAUVstPatchChunkInfo@@@Z ENDP ; AudioEffectX::beginLoadBank
_TEXT	ENDS
; Function compile flags: /Ogspy
; File E:\prova\Shimmer\vst-2.4-sdk\vstsdk2.4\public.sdk\source\vst2.x\audioeffectx.h
;	COMDAT ?beginLoadProgram@AudioEffectX@@UEAAHPEAUVstPatchChunkInfo@@@Z
_TEXT	SEGMENT
this$ = 8
ptr$ = 16
?beginLoadProgram@AudioEffectX@@UEAAHPEAUVstPatchChunkInfo@@@Z PROC ; AudioEffectX::beginLoadProgram, COMDAT

; 56   : 	virtual VstInt32 beginLoadProgram (VstPatchChunkInfo* ptr) { return 0; }	///< Called before a Program is loaded. (called before #beginSetProgram).

	xor	eax, eax
	ret	0
?beginLoadProgram@AudioEffectX@@UEAAHPEAUVstPatchChunkInfo@@@Z ENDP ; AudioEffectX::beginLoadProgram
_TEXT	ENDS
; Function compile flags: /Ogspy
; File E:\prova\Shimmer\vst-2.4-sdk\vstsdk2.4\public.sdk\source\vst2.x\audioeffectx.h
;	COMDAT ?getInputProperties@AudioEffectX@@UEAA_NHPEAUVstPinProperties@@@Z
_TEXT	SEGMENT
this$ = 8
index$ = 16
properties$ = 24
?getInputProperties@AudioEffectX@@UEAA_NHPEAUVstPinProperties@@@Z PROC ; AudioEffectX::getInputProperties, COMDAT

; 71   : 	virtual bool getInputProperties (VstInt32 index, VstPinProperties* properties) { return false; } ///< Return the \e properties of output \e index

	xor	al, al
	ret	0
?getInputProperties@AudioEffectX@@UEAA_NHPEAUVstPinProperties@@@Z ENDP ; AudioEffectX::getInputProperties
_TEXT	ENDS
; Function compile flags: /Ogspy
; File E:\prova\Shimmer\vst-2.4-sdk\vstsdk2.4\public.sdk\source\vst2.x\audioeffectx.h
;	COMDAT ?getOutputProperties@AudioEffectX@@UEAA_NHPEAUVstPinProperties@@@Z
_TEXT	SEGMENT
this$ = 8
index$ = 16
properties$ = 24
?getOutputProperties@AudioEffectX@@UEAA_NHPEAUVstPinProperties@@@Z PROC ; AudioEffectX::getOutputProperties, COMDAT

; 72   : 	virtual bool getOutputProperties (VstInt32 index, VstPinProperties* properties) { return false; }///< Return the \e properties of input \e index

	xor	al, al
	ret	0
?getOutputProperties@AudioEffectX@@UEAA_NHPEAUVstPinProperties@@@Z ENDP ; AudioEffectX::getOutputProperties
_TEXT	ENDS
; Function compile flags: /Ogspy
; File E:\prova\Shimmer\vst-2.4-sdk\vstsdk2.4\public.sdk\source\vst2.x\audioeffectx.h
;	COMDAT ?setSpeakerArrangement@AudioEffectX@@UEAA_NPEAUVstSpeakerArrangement@@0@Z
_TEXT	SEGMENT
this$ = 8
pluginInput$ = 16
pluginOutput$ = 24
?setSpeakerArrangement@AudioEffectX@@UEAA_NPEAUVstSpeakerArrangement@@0@Z PROC ; AudioEffectX::setSpeakerArrangement, COMDAT

; 74   : 	virtual bool setSpeakerArrangement (VstSpeakerArrangement* pluginInput, VstSpeakerArrangement* pluginOutput) { return false; } ///< Set the plug-in's speaker arrangements

	xor	al, al
	ret	0
?setSpeakerArrangement@AudioEffectX@@UEAA_NPEAUVstSpeakerArrangement@@0@Z ENDP ; AudioEffectX::setSpeakerArrangement
_TEXT	ENDS
; Function compile flags: /Ogspy
; File E:\prova\Shimmer\vst-2.4-sdk\vstsdk2.4\public.sdk\source\vst2.x\audioeffectx.h
;	COMDAT ?getSpeakerArrangement@AudioEffectX@@UEAA_NPEAPEAUVstSpeakerArrangement@@0@Z
_TEXT	SEGMENT
this$ = 8
pluginInput$ = 16
pluginOutput$ = 24
?getSpeakerArrangement@AudioEffectX@@UEAA_NPEAPEAUVstSpeakerArrangement@@0@Z PROC ; AudioEffectX::getSpeakerArrangement, COMDAT

; 75   : 	virtual bool getSpeakerArrangement (VstSpeakerArrangement** pluginInput, VstSpeakerArrangement** pluginOutput) { *pluginInput = 0; *pluginOutput = 0; return false; } ///< Return the plug-in's speaker arrangements

	and	QWORD PTR [rdx], 0
	xor	al, al
	and	QWORD PTR [r8], 0
	ret	0
?getSpeakerArrangement@AudioEffectX@@UEAA_NPEAPEAUVstSpeakerArrangement@@0@Z ENDP ; AudioEffectX::getSpeakerArrangement
_TEXT	ENDS
; Function compile flags: /Ogspy
; File E:\prova\Shimmer\vst-2.4-sdk\vstsdk2.4\public.sdk\source\vst2.x\audioeffectx.h
;	COMDAT ?setBypass@AudioEffectX@@UEAA_N_N@Z
_TEXT	SEGMENT
this$ = 8
onOff$ = 16
?setBypass@AudioEffectX@@UEAA_N_N@Z PROC		; AudioEffectX::setBypass, COMDAT

; 76   : 	virtual bool setBypass (bool onOff) { return false; }				///< For 'soft-bypass' (this could be automated (in Audio Thread) that why you could NOT call iochanged (if needed) in this function, do it in fxidle).

	xor	al, al
	ret	0
?setBypass@AudioEffectX@@UEAA_N_N@Z ENDP		; AudioEffectX::setBypass
_TEXT	ENDS
; Function compile flags: /Ogspy
; File E:\prova\Shimmer\vst-2.4-sdk\vstsdk2.4\public.sdk\source\vst2.x\audioeffectx.h
;	COMDAT ?setPanLaw@AudioEffectX@@UEAA_NHM@Z
_TEXT	SEGMENT
this$ = 8
type$ = 16
val$ = 24
?setPanLaw@AudioEffectX@@UEAA_NHM@Z PROC		; AudioEffectX::setPanLaw, COMDAT

; 79   : 	virtual bool setPanLaw (VstInt32 type, float val) { return false; }	///< Set the Panning Law used by the Host @see VstPanLawType.

	xor	al, al
	ret	0
?setPanLaw@AudioEffectX@@UEAA_NHM@Z ENDP		; AudioEffectX::setPanLaw
_TEXT	ENDS
; Function compile flags: /Ogspy
; File E:\prova\Shimmer\vst-2.4-sdk\vstsdk2.4\public.sdk\source\vst2.x\audioeffectx.h
;	COMDAT ?setProcessPrecision@AudioEffectX@@UEAA_NH@Z
_TEXT	SEGMENT
this$ = 8
precision$ = 16
?setProcessPrecision@AudioEffectX@@UEAA_NH@Z PROC	; AudioEffectX::setProcessPrecision, COMDAT

; 83   : 	virtual bool setProcessPrecision (VstInt32 precision) { return false; }	///< Set floating-point precision used for processing (32 or 64 bit)

	xor	al, al
	ret	0
?setProcessPrecision@AudioEffectX@@UEAA_NH@Z ENDP	; AudioEffectX::setProcessPrecision
_TEXT	ENDS
; Function compile flags: /Ogspy
; File E:\prova\Shimmer\vst-2.4-sdk\vstsdk2.4\public.sdk\source\vst2.x\audioeffectx.h
;	COMDAT ?getNumMidiInputChannels@AudioEffectX@@UEAAHXZ
_TEXT	SEGMENT
this$ = 8
?getNumMidiInputChannels@AudioEffectX@@UEAAHXZ PROC	; AudioEffectX::getNumMidiInputChannels, COMDAT

; 85   : 	virtual VstInt32 getNumMidiInputChannels ()  { return 0; }				///< Returns number of MIDI input channels used [0, 16]

	xor	eax, eax
	ret	0
?getNumMidiInputChannels@AudioEffectX@@UEAAHXZ ENDP	; AudioEffectX::getNumMidiInputChannels
_TEXT	ENDS
; Function compile flags: /Ogspy
; File E:\prova\Shimmer\vst-2.4-sdk\vstsdk2.4\public.sdk\source\vst2.x\audioeffectx.h
;	COMDAT ?getNumMidiOutputChannels@AudioEffectX@@UEAAHXZ
_TEXT	SEGMENT
this$ = 8
?getNumMidiOutputChannels@AudioEffectX@@UEAAHXZ PROC	; AudioEffectX::getNumMidiOutputChannels, COMDAT

; 86   : 	virtual VstInt32 getNumMidiOutputChannels () { return 0; }				///< Returns number of MIDI output channels used [0, 16]

	xor	eax, eax
	ret	0
?getNumMidiOutputChannels@AudioEffectX@@UEAAHXZ ENDP	; AudioEffectX::getNumMidiOutputChannels
_TEXT	ENDS
; Function compile flags: /Ogspy
; File E:\prova\Shimmer\vst-2.4-sdk\vstsdk2.4\public.sdk\source\vst2.x\audioeffectx.h
;	COMDAT ?processEvents@AudioEffectX@@UEAAHPEAUVstEvents@@@Z
_TEXT	SEGMENT
this$ = 8
events$ = 16
?processEvents@AudioEffectX@@UEAAHPEAUVstEvents@@@Z PROC ; AudioEffectX::processEvents, COMDAT

; 98   : 	virtual VstInt32 processEvents (VstEvents* events) { return 0; }	///< Called when new MIDI events come in

	xor	eax, eax
	ret	0
?processEvents@AudioEffectX@@UEAAHPEAUVstEvents@@@Z ENDP ; AudioEffectX::processEvents
_TEXT	ENDS
; Function compile flags: /Ogspy
; File E:\prova\Shimmer\vst-2.4-sdk\vstsdk2.4\public.sdk\source\vst2.x\audioeffectx.h
;	COMDAT ?startProcess@AudioEffectX@@UEAAHXZ
_TEXT	SEGMENT
this$ = 8
?startProcess@AudioEffectX@@UEAAHXZ PROC		; AudioEffectX::startProcess, COMDAT

; 102  : 	virtual VstInt32 startProcess () { return 0; }		///< Called one time before the start of process call. This indicates that the process call will be interrupted (due to Host reconfiguration or bypass state when the plug-in doesn't support softBypass)

	xor	eax, eax
	ret	0
?startProcess@AudioEffectX@@UEAAHXZ ENDP		; AudioEffectX::startProcess
_TEXT	ENDS
; Function compile flags: /Ogspy
; File E:\prova\Shimmer\vst-2.4-sdk\vstsdk2.4\public.sdk\source\vst2.x\audioeffectx.h
;	COMDAT ?stopProcess@AudioEffectX@@UEAAHXZ
_TEXT	SEGMENT
this$ = 8
?stopProcess@AudioEffectX@@UEAAHXZ PROC			; AudioEffectX::stopProcess, COMDAT

; 103  : 	virtual VstInt32 stopProcess () { return 0;}		///< Called after the stop of process call

	xor	eax, eax
	ret	0
?stopProcess@AudioEffectX@@UEAAHXZ ENDP			; AudioEffectX::stopProcess
_TEXT	ENDS
; Function compile flags: /Ogspy
; File E:\prova\Shimmer\vst-2.4-sdk\vstsdk2.4\public.sdk\source\vst2.x\audioeffectx.h
;	COMDAT ?processVariableIo@AudioEffectX@@UEAA_NPEAUVstVariableIo@@@Z
_TEXT	SEGMENT
this$ = 8
varIo$ = 16
?processVariableIo@AudioEffectX@@UEAA_NPEAUVstVariableIo@@@Z PROC ; AudioEffectX::processVariableIo, COMDAT

; 111  : 	virtual bool processVariableIo (VstVariableIo* varIo) { return false; }		///< Used for variable I/O processing (offline processing like timestreching)

	xor	al, al
	ret	0
?processVariableIo@AudioEffectX@@UEAA_NPEAUVstVariableIo@@@Z ENDP ; AudioEffectX::processVariableIo
_TEXT	ENDS
; Function compile flags: /Ogspy
; File E:\prova\Shimmer\vst-2.4-sdk\vstsdk2.4\public.sdk\source\vst2.x\audioeffectx.h
;	COMDAT ?setTotalSampleToProcess@AudioEffectX@@UEAAHH@Z
_TEXT	SEGMENT
this$ = 8
value$ = 16
?setTotalSampleToProcess@AudioEffectX@@UEAAHH@Z PROC	; AudioEffectX::setTotalSampleToProcess, COMDAT

; 114  : 	virtual VstInt32 setTotalSampleToProcess (VstInt32 value) {	return value; }	///< Called in offline mode before process() or processVariableIo ()

	mov	eax, edx
	ret	0
?setTotalSampleToProcess@AudioEffectX@@UEAAHH@Z ENDP	; AudioEffectX::setTotalSampleToProcess
_TEXT	ENDS
; Function compile flags: /Ogspy
; File E:\prova\Shimmer\vst-2.4-sdk\vstsdk2.4\public.sdk\source\vst2.x\audioeffectx.h
;	COMDAT ?getGetTailSize@AudioEffectX@@UEAAHXZ
_TEXT	SEGMENT
this$ = 8
?getGetTailSize@AudioEffectX@@UEAAHXZ PROC		; AudioEffectX::getGetTailSize, COMDAT

; 136  : 	virtual VstInt32 getGetTailSize () { return 0; }///< Returns tail size; 0 is default (return 1 for 'no tail'), used in offline processing too

	xor	eax, eax
	ret	0
?getGetTailSize@AudioEffectX@@UEAAHXZ ENDP		; AudioEffectX::getGetTailSize
_TEXT	ENDS
; Function compile flags: /Ogspy
; File E:\prova\Shimmer\vst-2.4-sdk\vstsdk2.4\public.sdk\source\vst2.x\audioeffectx.h
;	COMDAT ?getEffectName@AudioEffectX@@UEAA_NPEAD@Z
_TEXT	SEGMENT
this$ = 8
name$ = 16
?getEffectName@AudioEffectX@@UEAA_NPEAD@Z PROC		; AudioEffectX::getEffectName, COMDAT

; 138  : 	virtual bool getEffectName (char* name) { return false; }	///< Fill \e text with a string identifying the effect

	xor	al, al
	ret	0
?getEffectName@AudioEffectX@@UEAA_NPEAD@Z ENDP		; AudioEffectX::getEffectName
_TEXT	ENDS
; Function compile flags: /Ogspy
; File E:\prova\Shimmer\vst-2.4-sdk\vstsdk2.4\public.sdk\source\vst2.x\audioeffectx.h
;	COMDAT ?getVendorString@AudioEffectX@@UEAA_NPEAD@Z
_TEXT	SEGMENT
this$ = 8
text$ = 16
?getVendorString@AudioEffectX@@UEAA_NPEAD@Z PROC	; AudioEffectX::getVendorString, COMDAT

; 139  : 	virtual bool getVendorString (char* text) { return false; }	///< Fill \e text with a string identifying the vendor

	xor	al, al
	ret	0
?getVendorString@AudioEffectX@@UEAA_NPEAD@Z ENDP	; AudioEffectX::getVendorString
_TEXT	ENDS
; Function compile flags: /Ogspy
; File E:\prova\Shimmer\vst-2.4-sdk\vstsdk2.4\public.sdk\source\vst2.x\audioeffectx.h
;	COMDAT ?getProductString@AudioEffectX@@UEAA_NPEAD@Z
_TEXT	SEGMENT
this$ = 8
text$ = 16
?getProductString@AudioEffectX@@UEAA_NPEAD@Z PROC	; AudioEffectX::getProductString, COMDAT

; 140  : 	virtual bool getProductString (char* text) { return false; }///< Fill \e text with a string identifying the product name

	xor	al, al
	ret	0
?getProductString@AudioEffectX@@UEAA_NPEAD@Z ENDP	; AudioEffectX::getProductString
_TEXT	ENDS
; Function compile flags: /Ogspy
; File E:\prova\Shimmer\vst-2.4-sdk\vstsdk2.4\public.sdk\source\vst2.x\audioeffectx.h
;	COMDAT ?getVendorVersion@AudioEffectX@@UEAAHXZ
_TEXT	SEGMENT
this$ = 8
?getVendorVersion@AudioEffectX@@UEAAHXZ PROC		; AudioEffectX::getVendorVersion, COMDAT

; 141  : 	virtual VstInt32 getVendorVersion () { return 0; }			///< Return vendor-specific version

	xor	eax, eax
	ret	0
?getVendorVersion@AudioEffectX@@UEAAHXZ ENDP		; AudioEffectX::getVendorVersion
_TEXT	ENDS
; Function compile flags: /Ogspy
; File E:\prova\Shimmer\vst-2.4-sdk\vstsdk2.4\public.sdk\source\vst2.x\audioeffectx.h
;	COMDAT ?vendorSpecific@AudioEffectX@@UEAA_JH_JPEAXM@Z
_TEXT	SEGMENT
this$ = 8
lArg$ = 16
lArg2$ = 24
ptrArg$ = 32
floatArg$ = 40
?vendorSpecific@AudioEffectX@@UEAA_JH_JPEAXM@Z PROC	; AudioEffectX::vendorSpecific, COMDAT

; 142  : 	virtual VstIntPtr vendorSpecific (VstInt32 lArg, VstIntPtr lArg2, void* ptrArg, float floatArg) { return 0; } ///< No definition, vendor specific handling

	xor	eax, eax
	ret	0
?vendorSpecific@AudioEffectX@@UEAA_JH_JPEAXM@Z ENDP	; AudioEffectX::vendorSpecific
_TEXT	ENDS
; Function compile flags: /Ogspy
; File E:\prova\Shimmer\vst-2.4-sdk\vstsdk2.4\public.sdk\source\vst2.x\audioeffectx.h
;	COMDAT ?canDo@AudioEffectX@@UEAAHPEAD@Z
_TEXT	SEGMENT
this$ = 8
text$ = 16
?canDo@AudioEffectX@@UEAAHPEAD@Z PROC			; AudioEffectX::canDo, COMDAT

; 143  : 	virtual VstInt32 canDo (char* text) { return 0; }			///< Reports what the plug-in is able to do (#plugCanDos in audioeffectx.cpp)

	xor	eax, eax
	ret	0
?canDo@AudioEffectX@@UEAAHPEAD@Z ENDP			; AudioEffectX::canDo
_TEXT	ENDS
; Function compile flags: /Ogspy
; File E:\prova\Shimmer\vst-2.4-sdk\vstsdk2.4\public.sdk\source\vst2.x\audioeffectx.h
;	COMDAT ?getVstVersion@AudioEffectX@@UEAAHXZ
_TEXT	SEGMENT
this$ = 8
?getVstVersion@AudioEffectX@@UEAAHXZ PROC		; AudioEffectX::getVstVersion, COMDAT

; 144  : 	virtual VstInt32 getVstVersion () { return kVstVersion; }	///< Returns the current VST Version (#kVstVersion)

	mov	eax, 2400				; 00000960H
	ret	0
?getVstVersion@AudioEffectX@@UEAAHXZ ENDP		; AudioEffectX::getVstVersion
_TEXT	ENDS
; Function compile flags: /Ogspy
; File E:\prova\Shimmer\vst-2.4-sdk\vstsdk2.4\public.sdk\source\vst2.x\audioeffectx.h
;	COMDAT ?getMidiProgramName@AudioEffectX@@UEAAHHPEAUMidiProgramName@@@Z
_TEXT	SEGMENT
this$ = 8
channel$ = 16
midiProgramName$ = 24
?getMidiProgramName@AudioEffectX@@UEAAHHPEAUMidiProgramName@@@Z PROC ; AudioEffectX::getMidiProgramName, COMDAT

; 153  : 	virtual VstInt32 getMidiProgramName (VstInt32 channel, MidiProgramName* midiProgramName) { return 0; }		///< Fill \e midiProgramName with information for 'thisProgramIndex'.

	xor	eax, eax
	ret	0
?getMidiProgramName@AudioEffectX@@UEAAHHPEAUMidiProgramName@@@Z ENDP ; AudioEffectX::getMidiProgramName
_TEXT	ENDS
; Function compile flags: /Ogspy
; File E:\prova\Shimmer\vst-2.4-sdk\vstsdk2.4\public.sdk\source\vst2.x\audioeffectx.h
;	COMDAT ?getCurrentMidiProgram@AudioEffectX@@UEAAHHPEAUMidiProgramName@@@Z
_TEXT	SEGMENT
this$ = 8
channel$ = 16
currentProgram$ = 24
?getCurrentMidiProgram@AudioEffectX@@UEAAHHPEAUMidiProgramName@@@Z PROC ; AudioEffectX::getCurrentMidiProgram, COMDAT

; 154  : 	virtual VstInt32 getCurrentMidiProgram (VstInt32 channel, MidiProgramName* currentProgram) { return -1; }	///< Fill \e currentProgram with information for the current MIDI program.

	or	eax, -1
	ret	0
?getCurrentMidiProgram@AudioEffectX@@UEAAHHPEAUMidiProgramName@@@Z ENDP ; AudioEffectX::getCurrentMidiProgram
_TEXT	ENDS
; Function compile flags: /Ogspy
; File E:\prova\Shimmer\vst-2.4-sdk\vstsdk2.4\public.sdk\source\vst2.x\audioeffectx.h
;	COMDAT ?getMidiProgramCategory@AudioEffectX@@UEAAHHPEAUMidiProgramCategory@@@Z
_TEXT	SEGMENT
this$ = 8
channel$ = 16
category$ = 24
?getMidiProgramCategory@AudioEffectX@@UEAAHHPEAUMidiProgramCategory@@@Z PROC ; AudioEffectX::getMidiProgramCategory, COMDAT

; 155  : 	virtual VstInt32 getMidiProgramCategory (VstInt32 channel, MidiProgramCategory* category) { return 0; }		///< Fill \e category with information for 'thisCategoryIndex'.

	xor	eax, eax
	ret	0
?getMidiProgramCategory@AudioEffectX@@UEAAHHPEAUMidiProgramCategory@@@Z ENDP ; AudioEffectX::getMidiProgramCategory
_TEXT	ENDS
; Function compile flags: /Ogspy
; File E:\prova\Shimmer\vst-2.4-sdk\vstsdk2.4\public.sdk\source\vst2.x\audioeffectx.h
;	COMDAT ?hasMidiProgramsChanged@AudioEffectX@@UEAA_NH@Z
_TEXT	SEGMENT
this$ = 8
channel$ = 16
?hasMidiProgramsChanged@AudioEffectX@@UEAA_NH@Z PROC	; AudioEffectX::hasMidiProgramsChanged, COMDAT

; 156  : 	virtual bool hasMidiProgramsChanged (VstInt32 channel) { return false; } ///< Return true if the #MidiProgramNames, #MidiKeyNames or #MidiControllerNames had changed on this MIDI channel.

	xor	al, al
	ret	0
?hasMidiProgramsChanged@AudioEffectX@@UEAA_NH@Z ENDP	; AudioEffectX::hasMidiProgramsChanged
_TEXT	ENDS
; Function compile flags: /Ogspy
; File E:\prova\Shimmer\vst-2.4-sdk\vstsdk2.4\public.sdk\source\vst2.x\audioeffectx.h
;	COMDAT ?getMidiKeyName@AudioEffectX@@UEAA_NHPEAUMidiKeyName@@@Z
_TEXT	SEGMENT
this$ = 8
channel$ = 16
keyName$ = 24
?getMidiKeyName@AudioEffectX@@UEAA_NHPEAUMidiKeyName@@@Z PROC ; AudioEffectX::getMidiKeyName, COMDAT

; 157  : 	virtual bool getMidiKeyName (VstInt32 channel, MidiKeyName* keyName) { return false; } ///< Fill \e keyName with information for 'thisProgramIndex' and 'thisKeyNumber'

	xor	al, al
	ret	0
?getMidiKeyName@AudioEffectX@@UEAA_NHPEAUMidiKeyName@@@Z ENDP ; AudioEffectX::getMidiKeyName
_TEXT	ENDS
; Function compile flags: /Ogspy
; File E:\prova\Shimmer\vst-2.4-sdk\vstsdk2.4\public.sdk\source\vst2.x\audioeffectx.h
;	COMDAT ?getNextShellPlugin@AudioEffectX@@UEAAHPEAD@Z
_TEXT	SEGMENT
this$ = 8
name$ = 16
?getNextShellPlugin@AudioEffectX@@UEAAHPEAD@Z PROC	; AudioEffectX::getNextShellPlugin, COMDAT

; 177  : 	virtual VstInt32 getNextShellPlugin (char* name) { return 0; }	 ///< This opcode is only called, if the plug-in is of type #kPlugCategShell, in order to extract all included sub-plugins names.

	xor	eax, eax
	ret	0
?getNextShellPlugin@AudioEffectX@@UEAAHPEAD@Z ENDP	; AudioEffectX::getNextShellPlugin
_TEXT	ENDS
; Function compile flags: /Ogspy
; File E:\prova\Shimmer\vst-2.4-sdk\vstsdk2.4\public.sdk\source\vst2.x\audioeffectx.h
;	COMDAT ?offlineNotify@AudioEffectX@@UEAA_NPEAUVstAudioFile@@H_N@Z
_TEXT	SEGMENT
this$ = 8
ptr$ = 16
numAudioFiles$ = 24
start$ = 32
?offlineNotify@AudioEffectX@@UEAA_NPEAUVstAudioFile@@H_N@Z PROC ; AudioEffectX::offlineNotify, COMDAT

; 202  : 	virtual bool offlineNotify (VstAudioFile* ptr, VstInt32 numAudioFiles, bool start) { return false; }

	xor	al, al
	ret	0
?offlineNotify@AudioEffectX@@UEAA_NPEAUVstAudioFile@@H_N@Z ENDP ; AudioEffectX::offlineNotify
_TEXT	ENDS
; Function compile flags: /Ogspy
; File E:\prova\Shimmer\vst-2.4-sdk\vstsdk2.4\public.sdk\source\vst2.x\audioeffectx.h
;	COMDAT ?offlinePrepare@AudioEffectX@@UEAA_NPEAUVstOfflineTask@@H@Z
_TEXT	SEGMENT
this$ = 8
offline$ = 16
count$ = 24
?offlinePrepare@AudioEffectX@@UEAA_NPEAUVstOfflineTask@@H@Z PROC ; AudioEffectX::offlinePrepare, COMDAT

; 203  : 	virtual bool offlinePrepare (VstOfflineTask* offline, VstInt32 count) { return false; }

	xor	al, al
	ret	0
?offlinePrepare@AudioEffectX@@UEAA_NPEAUVstOfflineTask@@H@Z ENDP ; AudioEffectX::offlinePrepare
_TEXT	ENDS
; Function compile flags: /Ogspy
; File E:\prova\Shimmer\vst-2.4-sdk\vstsdk2.4\public.sdk\source\vst2.x\audioeffectx.h
;	COMDAT ?offlineRun@AudioEffectX@@UEAA_NPEAUVstOfflineTask@@H@Z
_TEXT	SEGMENT
this$ = 8
offline$ = 16
count$ = 24
?offlineRun@AudioEffectX@@UEAA_NPEAUVstOfflineTask@@H@Z PROC ; AudioEffectX::offlineRun, COMDAT

; 204  : 	virtual bool offlineRun (VstOfflineTask* offline, VstInt32 count) { return false; }

	xor	al, al
	ret	0
?offlineRun@AudioEffectX@@UEAA_NPEAUVstOfflineTask@@H@Z ENDP ; AudioEffectX::offlineRun
_TEXT	ENDS
; Function compile flags: /Ogspy
; File E:\prova\Shimmer\vst-2.4-sdk\vstsdk2.4\public.sdk\source\vst2.x\audioeffectx.h
;	COMDAT ?offlineGetNumPasses@AudioEffectX@@UEAAHXZ
_TEXT	SEGMENT
this$ = 8
?offlineGetNumPasses@AudioEffectX@@UEAAHXZ PROC		; AudioEffectX::offlineGetNumPasses, COMDAT

; 205  : 	virtual VstInt32 offlineGetNumPasses () { return 0; }

	xor	eax, eax
	ret	0
?offlineGetNumPasses@AudioEffectX@@UEAAHXZ ENDP		; AudioEffectX::offlineGetNumPasses
_TEXT	ENDS
; Function compile flags: /Ogspy
; File E:\prova\Shimmer\vst-2.4-sdk\vstsdk2.4\public.sdk\source\vst2.x\audioeffectx.h
;	COMDAT ?offlineGetNumMetaPasses@AudioEffectX@@UEAAHXZ
_TEXT	SEGMENT
this$ = 8
?offlineGetNumMetaPasses@AudioEffectX@@UEAAHXZ PROC	; AudioEffectX::offlineGetNumMetaPasses, COMDAT

; 206  : 	virtual VstInt32 offlineGetNumMetaPasses () { return 0; }

	xor	eax, eax
	ret	0
?offlineGetNumMetaPasses@AudioEffectX@@UEAAHXZ ENDP	; AudioEffectX::offlineGetNumMetaPasses
_TEXT	ENDS
; Function compile flags: /Ogspy
; File E:\prova\Shimmer\vst-2.4-sdk\vstsdk2.4\public.sdk\source\vst2.x\audioeffectx.h
;	COMDAT ?__getNumCategoriesDeprecated@AudioEffectX@@UEAAHXZ
_TEXT	SEGMENT
this$ = 8
?__getNumCategoriesDeprecated@AudioEffectX@@UEAAHXZ PROC ; AudioEffectX::__getNumCategoriesDeprecated, COMDAT

; 221  : 	virtual VstInt32 DECLARE_VST_DEPRECATED (getNumCategories) () { return 1L; }

	mov	eax, 1
	ret	0
?__getNumCategoriesDeprecated@AudioEffectX@@UEAAHXZ ENDP ; AudioEffectX::__getNumCategoriesDeprecated
_TEXT	ENDS
; Function compile flags: /Ogspy
; File E:\prova\Shimmer\vst-2.4-sdk\vstsdk2.4\public.sdk\source\vst2.x\audioeffectx.h
;	COMDAT ?__copyProgramDeprecated@AudioEffectX@@UEAA_NH@Z
_TEXT	SEGMENT
this$ = 8
destination$ = 16
?__copyProgramDeprecated@AudioEffectX@@UEAA_NH@Z PROC	; AudioEffectX::__copyProgramDeprecated, COMDAT

; 222  : 	virtual bool DECLARE_VST_DEPRECATED (copyProgram) (VstInt32 destination) { return false; }

	xor	al, al
	ret	0
?__copyProgramDeprecated@AudioEffectX@@UEAA_NH@Z ENDP	; AudioEffectX::__copyProgramDeprecated
_TEXT	ENDS
; Function compile flags: /Ogspy
; File E:\prova\Shimmer\vst-2.4-sdk\vstsdk2.4\public.sdk\source\vst2.x\audioeffectx.h
;	COMDAT ?__inputConnectedDeprecated@AudioEffectX@@UEAAXH_N@Z
_TEXT	SEGMENT
this$ = 8
index$ = 16
state$ = 24
?__inputConnectedDeprecated@AudioEffectX@@UEAAXH_N@Z PROC ; AudioEffectX::__inputConnectedDeprecated, COMDAT

; 226  : 	virtual void DECLARE_VST_DEPRECATED (inputConnected) (VstInt32 index, bool state) {}

	ret	0
?__inputConnectedDeprecated@AudioEffectX@@UEAAXH_N@Z ENDP ; AudioEffectX::__inputConnectedDeprecated
_TEXT	ENDS
; Function compile flags: /Ogspy
; File E:\prova\Shimmer\vst-2.4-sdk\vstsdk2.4\public.sdk\source\vst2.x\audioeffectx.h
;	COMDAT ?__outputConnectedDeprecated@AudioEffectX@@UEAAXH_N@Z
_TEXT	SEGMENT
this$ = 8
index$ = 16
state$ = 24
?__outputConnectedDeprecated@AudioEffectX@@UEAAXH_N@Z PROC ; AudioEffectX::__outputConnectedDeprecated, COMDAT

; 227  : 	virtual void DECLARE_VST_DEPRECATED (outputConnected) (VstInt32 index, bool state) {}

	ret	0
?__outputConnectedDeprecated@AudioEffectX@@UEAAXH_N@Z ENDP ; AudioEffectX::__outputConnectedDeprecated
_TEXT	ENDS
; Function compile flags: /Ogspy
; File E:\prova\Shimmer\vst-2.4-sdk\vstsdk2.4\public.sdk\source\vst2.x\audioeffectx.h
;	COMDAT ?__reportCurrentPositionDeprecated@AudioEffectX@@UEAAHXZ
_TEXT	SEGMENT
this$ = 8
?__reportCurrentPositionDeprecated@AudioEffectX@@UEAAHXZ PROC ; AudioEffectX::__reportCurrentPositionDeprecated, COMDAT

; 231  : 	virtual VstInt32 DECLARE_VST_DEPRECATED (reportCurrentPosition) () { return 0; }

	xor	eax, eax
	ret	0
?__reportCurrentPositionDeprecated@AudioEffectX@@UEAAHXZ ENDP ; AudioEffectX::__reportCurrentPositionDeprecated
_TEXT	ENDS
; Function compile flags: /Ogspy
; File E:\prova\Shimmer\vst-2.4-sdk\vstsdk2.4\public.sdk\source\vst2.x\audioeffectx.h
;	COMDAT ?__reportDestinationBufferDeprecated@AudioEffectX@@UEAAPEAMXZ
_TEXT	SEGMENT
this$ = 8
?__reportDestinationBufferDeprecated@AudioEffectX@@UEAAPEAMXZ PROC ; AudioEffectX::__reportDestinationBufferDeprecated, COMDAT

; 232  : 	virtual float* DECLARE_VST_DEPRECATED (reportDestinationBuffer) () { return 0; }

	xor	eax, eax
	ret	0
?__reportDestinationBufferDeprecated@AudioEffectX@@UEAAPEAMXZ ENDP ; AudioEffectX::__reportDestinationBufferDeprecated
_TEXT	ENDS
; Function compile flags: /Ogspy
; File E:\prova\Shimmer\vst-2.4-sdk\vstsdk2.4\public.sdk\source\vst2.x\audioeffectx.h
;	COMDAT ?__setBlockSizeAndSampleRateDeprecated@AudioEffectX@@UEAAXHM@Z
_TEXT	SEGMENT
this$ = 8
_blockSize$ = 16
_sampleRate$ = 24
?__setBlockSizeAndSampleRateDeprecated@AudioEffectX@@UEAAXHM@Z PROC ; AudioEffectX::__setBlockSizeAndSampleRateDeprecated, COMDAT

; 238  : 	virtual void DECLARE_VST_DEPRECATED (setBlockSizeAndSampleRate) (VstInt32 _blockSize, float _sampleRate) { blockSize = _blockSize; sampleRate = _sampleRate; }

	movss	DWORD PTR [rcx+24], xmm2
	mov	DWORD PTR [rcx+28], edx
	ret	0
?__setBlockSizeAndSampleRateDeprecated@AudioEffectX@@UEAAXHM@Z ENDP ; AudioEffectX::__setBlockSizeAndSampleRateDeprecated
_TEXT	ENDS
; Function compile flags: /Ogspy
; File E:\prova\Shimmer\vst-2.4-sdk\vstsdk2.4\public.sdk\source\vst2.x\audioeffectx.h
;	COMDAT ?__getErrorTextDeprecated@AudioEffectX@@UEAA_NPEAD@Z
_TEXT	SEGMENT
this$ = 8
text$ = 16
?__getErrorTextDeprecated@AudioEffectX@@UEAA_NPEAD@Z PROC ; AudioEffectX::__getErrorTextDeprecated, COMDAT

; 239  : 	virtual bool DECLARE_VST_DEPRECATED (getErrorText) (char* text) { return false; }

	xor	al, al
	ret	0
?__getErrorTextDeprecated@AudioEffectX@@UEAA_NPEAD@Z ENDP ; AudioEffectX::__getErrorTextDeprecated
_TEXT	ENDS
; Function compile flags: /Ogspy
; File E:\prova\Shimmer\vst-2.4-sdk\vstsdk2.4\public.sdk\source\vst2.x\audioeffectx.h
;	COMDAT ?__getIconDeprecated@AudioEffectX@@UEAAPEAXXZ
_TEXT	SEGMENT
this$ = 8
?__getIconDeprecated@AudioEffectX@@UEAAPEAXXZ PROC	; AudioEffectX::__getIconDeprecated, COMDAT

; 240  : 	virtual void* DECLARE_VST_DEPRECATED (getIcon) () { return 0; }

	xor	eax, eax
	ret	0
?__getIconDeprecated@AudioEffectX@@UEAAPEAXXZ ENDP	; AudioEffectX::__getIconDeprecated
_TEXT	ENDS
; Function compile flags: /Ogspy
; File E:\prova\Shimmer\vst-2.4-sdk\vstsdk2.4\public.sdk\source\vst2.x\audioeffectx.h
;	COMDAT ?__setViewPositionDeprecated@AudioEffectX@@UEAA_NHH@Z
_TEXT	SEGMENT
this$ = 8
x$ = 16
y$ = 24
?__setViewPositionDeprecated@AudioEffectX@@UEAA_NHH@Z PROC ; AudioEffectX::__setViewPositionDeprecated, COMDAT

; 241  : 	virtual bool DECLARE_VST_DEPRECATED (setViewPosition) (VstInt32 x, VstInt32 y) { return false; }

	xor	al, al
	ret	0
?__setViewPositionDeprecated@AudioEffectX@@UEAA_NHH@Z ENDP ; AudioEffectX::__setViewPositionDeprecated
_TEXT	ENDS
; Function compile flags: /Ogspy
; File E:\prova\Shimmer\vst-2.4-sdk\vstsdk2.4\public.sdk\source\vst2.x\audioeffectx.h
;	COMDAT ?__fxIdleDeprecated@AudioEffectX@@UEAAHXZ
_TEXT	SEGMENT
this$ = 8
?__fxIdleDeprecated@AudioEffectX@@UEAAHXZ PROC		; AudioEffectX::__fxIdleDeprecated, COMDAT

; 242  : 	virtual VstInt32 DECLARE_VST_DEPRECATED (fxIdle) () { return 0; }

	xor	eax, eax
	ret	0
?__fxIdleDeprecated@AudioEffectX@@UEAAHXZ ENDP		; AudioEffectX::__fxIdleDeprecated
_TEXT	ENDS
; Function compile flags: /Ogspy
; File E:\prova\Shimmer\vst-2.4-sdk\vstsdk2.4\public.sdk\source\vst2.x\audioeffectx.h
;	COMDAT ?__keysRequiredDeprecated@AudioEffectX@@UEAA_NXZ
_TEXT	SEGMENT
this$ = 8
?__keysRequiredDeprecated@AudioEffectX@@UEAA_NXZ PROC	; AudioEffectX::__keysRequiredDeprecated, COMDAT

; 243  : 	virtual bool DECLARE_VST_DEPRECATED (keysRequired) () { return false; }

	xor	al, al
	ret	0
?__keysRequiredDeprecated@AudioEffectX@@UEAA_NXZ ENDP	; AudioEffectX::__keysRequiredDeprecated
_TEXT	ENDS
; Function compile flags: /Ogspy
; File E:\prova\Shimmer\vst-2.4-sdk\vstsdk2.4\public.sdk\source\vst2.x\audioeffectx.cpp
; File E:\prova\Shimmer\vst-2.4-sdk\vstsdk2.4\public.sdk\source\vst2.x\audioeffect.cpp
; File E:\prova\Shimmer\vst-2.4-sdk\vstsdk2.4\public.sdk\source\vst2.x\audioeffectx.cpp
; File E:\prova\Shimmer\vst-2.4-sdk\vstsdk2.4\public.sdk\source\vst2.x\audioeffect.cpp
; File E:\prova\Shimmer\vst-2.4-sdk\vstsdk2.4\public.sdk\source\vst2.x\audioeffectx.cpp
; File E:\prova\Shimmer\vst-2.4-sdk\vstsdk2.4\public.sdk\source\vst2.x\audioeffect.cpp
; File E:\prova\Shimmer\vst-2.4-sdk\vstsdk2.4\public.sdk\source\vst2.x\audioeffectx.cpp
; File E:\prova\Shimmer\vst-2.4-sdk\vstsdk2.4\public.sdk\source\vst2.x\audioeffect.cpp
; File E:\prova\Shimmer\vst-2.4-sdk\vstsdk2.4\public.sdk\source\vst2.x\audioeffectx.cpp
;	COMDAT ??0AudioEffectX@@QEAA@P6A_JPEAUAEffect@@HH_JPEAXM@ZHH@Z
_TEXT	SEGMENT
this$ = 48
audioMaster$ = 56
numPrograms$dead$ = 64
numParams$dead$ = 72
??0AudioEffectX@@QEAA@P6A_JPEAUAEffect@@HH_JPEAXM@ZHH@Z PROC ; AudioEffectX::AudioEffectX, COMDAT

; 59   : {}

$LN11:
	mov	QWORD PTR [rsp+8], rbx
	push	rdi
	sub	rsp, 32					; 00000020H
; File E:\prova\Shimmer\vst-2.4-sdk\vstsdk2.4\public.sdk\source\vst2.x\audioeffect.cpp

; 101  : , editor (0)

	and	QWORD PTR [rcx+16], 0
	lea	rax, OFFSET FLAT:??_7AudioEffect@@6B@

; 102  : , sampleRate (44100.f)
; 103  : , blockSize (1024)
; 104  : , numPrograms (numPrograms)
; 105  : , numParams (numParams)
; 106  : , curProgram (0)

	and	DWORD PTR [rcx+40], 0
; File E:\prova\Shimmer\vst-2.4-sdk\vstsdk2.4\public.sdk\source\vst2.x\audioeffectx.cpp

; 59   : {}

	mov	rdi, rcx
; File E:\prova\Shimmer\vst-2.4-sdk\vstsdk2.4\public.sdk\source\vst2.x\audioeffect.cpp

; 100  : : audioMaster (audioMaster)

	mov	QWORD PTR [rcx+8], rdx

; 107  : {
; 108  : 	memset (&cEffect, 0, sizeof (cEffect));

	mov	r8d, 192				; 000000c0H
	mov	QWORD PTR [rcx], rax
	xor	edx, edx
	mov	DWORD PTR [rcx+24], 1194083328		; 472c4400H
	mov	DWORD PTR [rcx+28], 1024		; 00000400H
	mov	DWORD PTR [rcx+32], 5
	mov	DWORD PTR [rcx+36], 11
	add	rcx, 48					; 00000030H
	call	QWORD PTR __imp_memset

; 124  : 
; 125  : #if VST_2_4_EXTENSIONS
; 126  : 	canProcessReplacing (); // mandatory in VST 2.4!
; 127  : 	cEffect.processDoubleReplacing = processClassDoubleReplacing;

	or	DWORD PTR [rdi+104], 16
	lea	rax, OFFSET FLAT:?dispatchEffectClass@AudioEffect@@KA_JPEAUAEffect@@HH_JPEAXM@Z ; AudioEffect::dispatchEffectClass
; File E:\prova\Shimmer\vst-2.4-sdk\vstsdk2.4\public.sdk\source\vst2.x\audioeffectx.cpp

; 59   : {}

	mov	rbx, QWORD PTR [rsp+48]
; File E:\prova\Shimmer\vst-2.4-sdk\vstsdk2.4\public.sdk\source\vst2.x\audioeffect.cpp

; 111  : 	cEffect.dispatcher = dispatchEffectClass;

	mov	QWORD PTR [rdi+56], rax

; 112  : 	cEffect.DECLARE_VST_DEPRECATED (process) = DECLARE_VST_DEPRECATED (processClass);

	lea	rax, OFFSET FLAT:?__processClassDeprecated@AudioEffect@@KAXPEAUAEffect@@PEAPEAM1H@Z ; AudioEffect::__processClassDeprecated
	mov	QWORD PTR [rdi+64], rax

; 113  : 	cEffect.setParameter = setParameterClass;

	lea	rax, OFFSET FLAT:?setParameterClass@AudioEffect@@KAXPEAUAEffect@@HM@Z ; AudioEffect::setParameterClass
	mov	QWORD PTR [rdi+72], rax

; 114  : 	cEffect.getParameter = getParameterClass;

	lea	rax, OFFSET FLAT:?getParameterClass@AudioEffect@@KAMPEAUAEffect@@H@Z ; AudioEffect::getParameterClass
	mov	QWORD PTR [rdi+80], rax

; 117  : 	cEffect.numInputs  = 1;		// mono input

	mov	eax, 1
	mov	DWORD PTR [rdi+96], eax

; 122  : 	cEffect.version  = 1;

	mov	DWORD PTR [rdi+164], eax

; 123  : 	cEffect.processReplacing = processClassReplacing;

	lea	rax, OFFSET FLAT:?processClassReplacing@AudioEffect@@KAXPEAUAEffect@@PEAPEAM1H@Z ; AudioEffect::processClassReplacing
	mov	QWORD PTR [rdi+168], rax

; 124  : 
; 125  : #if VST_2_4_EXTENSIONS
; 126  : 	canProcessReplacing (); // mandatory in VST 2.4!
; 127  : 	cEffect.processDoubleReplacing = processClassDoubleReplacing;

	lea	rax, OFFSET FLAT:?processClassDoubleReplacing@AudioEffect@@KAXPEAUAEffect@@PEAPEAN1H@Z ; AudioEffect::processClassDoubleReplacing
	mov	QWORD PTR [rdi+176], rax
; File E:\prova\Shimmer\vst-2.4-sdk\vstsdk2.4\public.sdk\source\vst2.x\audioeffectx.cpp

; 59   : {}

	lea	rax, OFFSET FLAT:??_7AudioEffectX@@6B@
	mov	QWORD PTR [rdi], rax
	mov	rax, rdi
; File E:\prova\Shimmer\vst-2.4-sdk\vstsdk2.4\public.sdk\source\vst2.x\audioeffect.cpp

; 110  : 	cEffect.magic = kEffectMagic;

	mov	DWORD PTR [rdi+48], 1450406992		; 56737450H

; 115  : 	cEffect.numPrograms  = numPrograms;

	mov	DWORD PTR [rdi+88], 5

; 116  : 	cEffect.numParams    = numParams;

	mov	DWORD PTR [rdi+92], 11

; 118  : 	cEffect.numOutputs = 2;		// stereo output

	mov	DWORD PTR [rdi+100], 2

; 119  : 	cEffect.DECLARE_VST_DEPRECATED (ioRatio) = 1.f;

	mov	DWORD PTR [rdi+140], 1065353216		; 3f800000H

; 120  : 	cEffect.object = this;

	mov	QWORD PTR [rdi+144], rdi

; 121  : 	cEffect.uniqueID = CCONST ('N', 'o', 'E', 'f');

	mov	DWORD PTR [rdi+160], 1315915110		; 4e6f4566H
; File E:\prova\Shimmer\vst-2.4-sdk\vstsdk2.4\public.sdk\source\vst2.x\audioeffectx.cpp

; 59   : {}

	add	rsp, 32					; 00000020H
	pop	rdi
	ret	0
??0AudioEffectX@@QEAA@P6A_JPEAUAEffect@@HH_JPEAXM@ZHH@Z ENDP ; AudioEffectX::AudioEffectX
_TEXT	ENDS
; Function compile flags: /Ogspy
;	COMDAT ??_GAudioEffectX@@UEAAPEAXI@Z
_TEXT	SEGMENT
this$ = 48
__flags$ = 56
??_GAudioEffectX@@UEAAPEAXI@Z PROC			; AudioEffectX::`scalar deleting destructor', COMDAT
$LN9:
	mov	QWORD PTR [rsp+8], rbx
	push	rdi
	sub	rsp, 32					; 00000020H
	mov	ebx, edx
	mov	rdi, rcx
	call	??1AudioEffect@@UEAA@XZ			; AudioEffect::~AudioEffect
	test	bl, 1
	je	SHORT $LN2@scalar
	mov	edx, 240				; 000000f0H
	mov	rcx, rdi
	call	??3@YAXPEAX_K@Z				; operator delete
$LN2@scalar:
	mov	rbx, QWORD PTR [rsp+48]
	mov	rax, rdi
	add	rsp, 32					; 00000020H
	pop	rdi
	ret	0
??_GAudioEffectX@@UEAAPEAXI@Z ENDP			; AudioEffectX::`scalar deleting destructor'
_TEXT	ENDS
; Function compile flags: /Ogspy
;	COMDAT ??1AudioEffectX@@UEAA@XZ
_TEXT	SEGMENT
this$ = 8
??1AudioEffectX@@UEAA@XZ PROC				; AudioEffectX::~AudioEffectX, COMDAT
	jmp	??1AudioEffect@@UEAA@XZ			; AudioEffect::~AudioEffect
??1AudioEffectX@@UEAA@XZ ENDP				; AudioEffectX::~AudioEffectX
_TEXT	ENDS
; Function compile flags: /Ogspy
; File E:\prova\Shimmer\vst-2.4-sdk\vstsdk2.4\public.sdk\source\vst2.x\audioeffectx.cpp
;	COMDAT ?dispatcher@AudioEffectX@@UEAA_JHH_JPEAXM@Z
_TEXT	SEGMENT
keyCode$1 = 48
keyCode$2 = 48
this$ = 80
opcode$ = 88
index$ = 96
value$ = 104
ptr$ = 112
opt$ = 120
?dispatcher@AudioEffectX@@UEAA_JHH_JPEAXM@Z PROC	; AudioEffectX::dispatcher, COMDAT

; 63   : {

$LN64:
	mov	QWORD PTR [rsp+8], rbx
	push	rbp
	mov	rbp, rsp
	sub	rsp, 64					; 00000040H

; 64   : 	VstIntPtr v = 0;

	xor	ebx, ebx
	mov	r11, r9
	mov	r10d, r8d

; 65   : 	switch (opcode)

	cmp	edx, 58					; 0000003aH
	jg	$LN52@dispatcher
	je	$LN25@dispatcher
	cmp	edx, 41					; 00000029H
	jg	$LN53@dispatcher
	je	$LN15@dispatcher
	cmp	edx, 34					; 00000022H
	jg	$LN54@dispatcher
	je	$LN9@dispatcher
	mov	r8d, edx
	sub	r8d, 25
	je	SHORT $LN4@dispatcher
	sub	r8d, 1
	je	SHORT $LN5@dispatcher
	sub	r8d, 1
	je	SHORT $LN6@dispatcher
	sub	r8d, 2
	je	SHORT $LN7@dispatcher
	cmp	r8d, 4
	jne	$LN50@dispatcher

; 83   : 	#if !VST_FORCE_DEPRECATED
; 84   : 		case effGetNumProgramCategories:
; 85   : 			v = getNumCategories ();
; 86   : 			break;
; 87   : 		case effCopyProgram:
; 88   : 			v = copyProgram (index) ? 1 : 0;
; 89   : 			break;
; 90   : 
; 91   : 		//---Connections, Configuration----------------------
; 92   : 		case effConnectInput:
; 93   : 			inputConnected (index, value ? true : false);
; 94   : 			v = 1;
; 95   : 			break;	
; 96   : 		case effConnectOutput:
; 97   : 			outputConnected (index, value ? true : false);
; 98   : 			v = 1;
; 99   : 			break;	
; 100  : 	#endif // !VST_FORCE_DEPRECATED
; 101  : 
; 102  : 		case effGetInputProperties:
; 103  : 			v = getInputProperties (index, (VstPinProperties*)ptr) ? 1 : 0;

	mov	rax, QWORD PTR [rcx]
	mov	edx, r10d
	mov	r8, QWORD PTR ptr$[rbp-64]
	call	QWORD PTR [rax+520]

; 104  : 			break;

	jmp	SHORT $LN60@dispatcher
$LN7@dispatcher:

; 79   : 
; 80   : 		case effGetProgramNameIndexed:
; 81   : 			v = getProgramNameIndexed ((VstInt32)value, index, (char*)ptr) ? 1 : 0;

	mov	rax, QWORD PTR [rcx]
	mov	r8d, r10d
	mov	r9, QWORD PTR ptr$[rbp-64]
	mov	edx, r11d
	call	QWORD PTR [rax+440]

; 82   : 			break;

	jmp	SHORT $LN60@dispatcher
$LN6@dispatcher:

; 75   : 			break;
; 76   : 		case effString2Parameter:
; 77   : 			v = string2parameter (index, (char*)ptr) ? 1 : 0;

	mov	rax, QWORD PTR [rcx]
	mov	edx, r10d
	mov	r8, QWORD PTR ptr$[rbp-64]
	call	QWORD PTR [rax+408]

; 78   : 			break;

	jmp	SHORT $LN60@dispatcher
$LN5@dispatcher:

; 71   : 
; 72   : 		//---Parameters and Programs----------------------
; 73   : 		case effCanBeAutomated:
; 74   : 			v = canParameterBeAutomated (index) ? 1 : 0;

	mov	rax, QWORD PTR [rcx]
	mov	edx, r10d
	call	QWORD PTR [rax+400]
$LN60@dispatcher:

; 298  : 	}
; 299  : 	return v;

	test	al, al
	setne	bl
	jmp	$LN2@dispatcher
$LN4@dispatcher:

; 66   : 	{
; 67   : 		//---VstEvents----------------------
; 68   : 		case effProcessEvents:
; 69   : 			v = processEvents ((VstEvents*)ptr);

	mov	rax, QWORD PTR [rcx]
	mov	rdx, QWORD PTR ptr$[rbp-64]
	call	QWORD PTR [rax+616]

; 70   : 			break;

	jmp	$LN59@dispatcher
$LN9@dispatcher:

; 105  : 		case effGetOutputProperties:
; 106  : 			v = getOutputProperties (index, (VstPinProperties*)ptr) ? 1 : 0;

	mov	rax, QWORD PTR [rcx]
	mov	edx, r10d
	mov	r8, QWORD PTR ptr$[rbp-64]
	call	QWORD PTR [rax+528]

; 107  : 			break;

	jmp	SHORT $LN60@dispatcher
$LN54@dispatcher:

; 65   : 	switch (opcode)

	mov	r8d, edx
	sub	r8d, 35					; 00000023H
	je	SHORT $LN10@dispatcher
	sub	r8d, 3
	je	SHORT $LN11@dispatcher
	sub	r8d, 1
	je	SHORT $LN12@dispatcher
	cmp	r8d, 1
	jne	$LN50@dispatcher

; 130  : 		case effOfflineRun:
; 131  : 			v = offlineRun ((VstOfflineTask*)ptr, (VstInt32)value);

	mov	rax, QWORD PTR [rcx]
	mov	r8d, r11d
	mov	rdx, QWORD PTR ptr$[rbp-64]
	call	QWORD PTR [rax+968]

; 132  : 			break;

	jmp	SHORT $LN61@dispatcher
$LN12@dispatcher:

; 126  : 			break;
; 127  : 		case effOfflinePrepare:
; 128  : 			v = offlinePrepare ((VstOfflineTask*)ptr, (VstInt32)value);

	mov	rax, QWORD PTR [rcx]
	mov	r8d, r11d
	mov	rdx, QWORD PTR ptr$[rbp-64]
	call	QWORD PTR [rax+960]

; 129  : 			break;

	jmp	SHORT $LN61@dispatcher
$LN11@dispatcher:

; 111  : 
; 112  : 	#if !VST_FORCE_DEPRECATED
; 113  : 		//---Realtime----------------------
; 114  : 		case effGetCurrentPosition:
; 115  : 			v = reportCurrentPosition ();
; 116  : 			break;
; 117  : 			
; 118  : 		case effGetDestinationBuffer:
; 119  : 			v = ToVstPtr<float> (reportDestinationBuffer ());
; 120  : 			break;
; 121  : 	#endif // !VST_FORCE_DEPRECATED
; 122  : 
; 123  : 		//---Offline----------------------
; 124  : 		case effOfflineNotify:
; 125  : 			v = offlineNotify ((VstAudioFile*)ptr, (VstInt32)value, index != 0);

	mov	rax, QWORD PTR [rcx]
	test	r10d, r10d
	mov	rdx, QWORD PTR ptr$[rbp-64]
	mov	r8d, r11d
	setne	r9b
	call	QWORD PTR [rax+952]
$LN61@dispatcher:

; 298  : 	}
; 299  : 	return v;

	movzx	ebx, al
	jmp	$LN2@dispatcher
$LN10@dispatcher:

; 108  : 		case effGetPlugCategory:
; 109  : 			v = (VstIntPtr)getPlugCategory ();

	mov	rax, QWORD PTR [rcx]
	call	QWORD PTR [rax+792]

; 110  : 			break;

	jmp	$LN59@dispatcher
$LN15@dispatcher:

; 138  : 		case effProcessVarIo:
; 139  : 			v = processVariableIo ((VstVariableIo*)ptr) ? 1 : 0;

	mov	rax, QWORD PTR [rcx]
	mov	rdx, QWORD PTR ptr$[rbp-64]
	call	QWORD PTR [rax+640]

; 140  : 			break;

	jmp	$LN60@dispatcher
$LN53@dispatcher:

; 65   : 	switch (opcode)

	cmp	edx, 49					; 00000031H
	jg	$LN55@dispatcher
	je	$LN20@dispatcher
	mov	r8d, edx
	sub	r8d, 42					; 0000002aH
	je	SHORT $LN14@dispatcher
	sub	r8d, 2
	je	SHORT $LN16@dispatcher
	sub	r8d, 1
	je	SHORT $LN17@dispatcher
	sub	r8d, 2
	je	SHORT $LN18@dispatcher
	cmp	r8d, 1
	jne	$LN50@dispatcher

; 156  : 		case effGetProductString:
; 157  : 			v = getProductString ((char*)ptr) ? 1 : 0;

	mov	rax, QWORD PTR [rcx]
	mov	rdx, QWORD PTR ptr$[rbp-64]
	call	QWORD PTR [rax+752]

; 158  : 			break;

	jmp	$LN60@dispatcher
$LN18@dispatcher:

; 153  : 		case effGetVendorString:
; 154  : 			v = getVendorString ((char*)ptr) ? 1 : 0;

	mov	rax, QWORD PTR [rcx]
	mov	rdx, QWORD PTR ptr$[rbp-64]
	call	QWORD PTR [rax+744]

; 155  : 			break;

	jmp	$LN60@dispatcher
$LN17@dispatcher:

; 150  : 		case effGetEffectName:
; 151  : 			v = getEffectName ((char*)ptr) ? 1 : 0;

	mov	rax, QWORD PTR [rcx]
	mov	rdx, QWORD PTR ptr$[rbp-64]
	call	QWORD PTR [rax+736]

; 152  : 			break;

	jmp	$LN60@dispatcher
$LN16@dispatcher:

; 141  : 	#if !VST_FORCE_DEPRECATED
; 142  : 		case effSetBlockSizeAndSampleRate:
; 143  : 			setBlockSizeAndSampleRate ((VstInt32)value, opt);
; 144  : 			v = 1;
; 145  : 			break;
; 146  : 	#endif // !VST_FORCE_DEPRECATED
; 147  : 		case effSetBypass:
; 148  : 			v = setBypass (value ? true : false) ? 1 : 0;

	mov	rax, QWORD PTR [rcx]
	test	r11, r11
	setne	dl
	call	QWORD PTR [rax+552]

; 149  : 			break;

	jmp	$LN60@dispatcher
$LN14@dispatcher:

; 133  : 
; 134  : 		//---Others----------------------
; 135  : 		case effSetSpeakerArrangement:
; 136  : 			v = setSpeakerArrangement (FromVstPtr<VstSpeakerArrangement> (value), (VstSpeakerArrangement*)ptr) ? 1 : 0;

	mov	rax, QWORD PTR [rcx]
	mov	rdx, r11
	mov	r8, QWORD PTR ptr$[rbp-64]
	call	QWORD PTR [rax+536]

; 137  : 			break;

	jmp	$LN60@dispatcher
$LN20@dispatcher:

; 159  : 		case effGetVendorVersion:
; 160  : 			v = getVendorVersion ();

	mov	rax, QWORD PTR [rcx]
	call	QWORD PTR [rax+760]

; 161  : 			break;

	jmp	$LN59@dispatcher
$LN55@dispatcher:

; 65   : 	switch (opcode)

	mov	r8d, edx
	sub	r8d, 50					; 00000032H
	je	SHORT $LN21@dispatcher
	sub	r8d, 1
	je	SHORT $LN22@dispatcher
	sub	r8d, 1
	je	SHORT $LN23@dispatcher
	cmp	r8d, 4
	jne	$LN50@dispatcher

; 172  : 
; 173  : 	#if !VST_FORCE_DEPRECATED
; 174  : 		case effGetErrorText:
; 175  : 			v = getErrorText ((char*)ptr) ? 1 : 0;
; 176  : 			break;
; 177  : 
; 178  : 		case effGetIcon:
; 179  : 			v = ToVstPtr<void> (getIcon ());
; 180  : 			break;
; 181  : 
; 182  : 		case effSetViewPosition:
; 183  : 			v = setViewPosition (index, (VstInt32)value) ? 1 : 0;
; 184  : 			break;		
; 185  : 
; 186  : 		case effIdle:
; 187  : 			v = fxIdle ();
; 188  : 			break;
; 189  : 
; 190  : 		case effKeysRequired:
; 191  : 			v = (keysRequired () ? 0 : 1);	// reversed to keep v1 compatibility
; 192  : 			break;
; 193  : 	#endif // !VST_FORCE_DEPRECATED
; 194  : 
; 195  : 		case effGetParameterProperties:
; 196  : 			v = getParameterProperties (index, (VstParameterProperties*)ptr) ? 1 : 0;

	mov	rax, QWORD PTR [rcx]
	mov	edx, r10d
	mov	r8, QWORD PTR ptr$[rbp-64]
	call	QWORD PTR [rax+416]

; 197  : 			break;

	jmp	$LN60@dispatcher
$LN23@dispatcher:

; 168  : 
; 169  : 		case effGetTailSize:
; 170  : 			v = getGetTailSize ();

	mov	rax, QWORD PTR [rcx]
	call	QWORD PTR [rax+720]

; 171  : 			break;

	jmp	$LN59@dispatcher
$LN22@dispatcher:

; 164  : 			break;
; 165  : 		case effCanDo:
; 166  : 			v = canDo ((char*)ptr);

	mov	rax, QWORD PTR [rcx]
	mov	rdx, QWORD PTR ptr$[rbp-64]
	call	QWORD PTR [rax+776]

; 167  : 			break;

	jmp	$LN59@dispatcher
$LN21@dispatcher:

; 162  : 		case effVendorSpecific:
; 163  : 			v = vendorSpecific (index, value, ptr, opt);

	movss	xmm0, DWORD PTR opt$[rbp-64]
	mov	r8, r11
	mov	rax, QWORD PTR [rcx]
	mov	edx, r10d
	mov	r9, QWORD PTR ptr$[rbp-64]
	movss	DWORD PTR [rsp+32], xmm0
	call	QWORD PTR [rax+768]
$LN62@dispatcher:

; 298  : 	}
; 299  : 	return v;

	mov	rbx, rax
	jmp	$LN2@dispatcher
$LN25@dispatcher:

; 198  : 
; 199  : 		case effGetVstVersion:
; 200  : 			v = getVstVersion ();

	mov	rax, QWORD PTR [rcx]
	call	QWORD PTR [rax+784]

; 201  : 			break;

	jmp	$LN59@dispatcher
$LN52@dispatcher:

; 65   : 	switch (opcode)

	cmp	edx, 69					; 00000045H
	jg	$LN56@dispatcher
	je	$LN39@dispatcher
	cmp	edx, 64					; 00000040H
	jg	$LN57@dispatcher
	je	$LN34@dispatcher
	mov	r8d, edx
	sub	r8d, 59					; 0000003bH
	je	$LN26@dispatcher
	sub	r8d, 1
	je	SHORT $LN28@dispatcher
	sub	r8d, 1
	je	SHORT $LN30@dispatcher
	sub	r8d, 1
	je	SHORT $LN32@dispatcher
	cmp	r8d, 1
	jne	$LN50@dispatcher

; 229  : 		case effGetCurrentMidiProgram:
; 230  : 			v = getCurrentMidiProgram (index, (MidiProgramName*)ptr);

	mov	rax, QWORD PTR [rcx]
	mov	edx, r10d
	mov	r8, QWORD PTR ptr$[rbp-64]
	call	QWORD PTR [rax+808]

; 231  : 			break;

	jmp	$LN59@dispatcher
$LN32@dispatcher:

; 225  : 
; 226  : 		case effGetMidiProgramName:
; 227  : 			v = getMidiProgramName (index, (MidiProgramName*)ptr);

	mov	rax, QWORD PTR [rcx]
	mov	edx, r10d
	mov	r8, QWORD PTR ptr$[rbp-64]
	call	QWORD PTR [rax+800]

; 228  : 			break;

	jmp	$LN59@dispatcher
$LN30@dispatcher:

; 220  : 
; 221  : 		case effSetEditKnobMode:
; 222  : 			if (editor)

	mov	rcx, QWORD PTR [rcx+16]
	test	rcx, rcx
	je	$LN2@dispatcher

; 223  : 				v = editor->setKnobMode ((VstInt32)value) ? 1 : 0;

	mov	rax, QWORD PTR [rcx]
	mov	edx, r11d
	call	QWORD PTR [rax+80]

; 224  : 			break;

	jmp	$LN60@dispatcher
$LN28@dispatcher:

; 212  : 
; 213  : 		case effEditKeyUp:
; 214  : 			if (editor)

	mov	rcx, QWORD PTR [rcx+16]
	test	rcx, rcx
	je	$LN2@dispatcher

; 215  : 			{
; 216  : 				VstKeyCode keyCode = {index, (unsigned char)value, (unsigned char)opt};

	cvttss2si eax, DWORD PTR opt$[rbp-64]
	mov	DWORD PTR keyCode$1[rbp-64], r10d

; 217  : 				v = editor->onKeyUp (keyCode) ? 1 : 0;

	lea	rdx, QWORD PTR keyCode$1[rbp-64]
	mov	BYTE PTR keyCode$1[rbp-60], r11b
	mov	BYTE PTR keyCode$1[rbp-59], al
	mov	rax, QWORD PTR [rcx]
	call	QWORD PTR [rax+64]

; 218  : 			}
; 219  : 			break;

	jmp	$LN60@dispatcher
$LN26@dispatcher:

; 202  : 
; 203  : 		//---Others----------------------
; 204  : 	#if VST_2_1_EXTENSIONS
; 205  : 		case effEditKeyDown:
; 206  : 			if (editor)

	mov	rcx, QWORD PTR [rcx+16]
	test	rcx, rcx
	je	$LN2@dispatcher

; 207  : 			{
; 208  : 				VstKeyCode keyCode = {index, (unsigned char)value, (unsigned char)opt};

	cvttss2si eax, DWORD PTR opt$[rbp-64]
	mov	DWORD PTR keyCode$2[rbp-64], r10d

; 209  : 				v = editor->onKeyDown (keyCode) ? 1 : 0;

	lea	rdx, QWORD PTR keyCode$2[rbp-64]
	mov	BYTE PTR keyCode$2[rbp-60], r11b
	mov	BYTE PTR keyCode$2[rbp-59], al
	mov	rax, QWORD PTR [rcx]
	call	QWORD PTR [rax+56]

; 210  : 			}
; 211  : 			break;

	jmp	$LN60@dispatcher
$LN34@dispatcher:

; 232  : 		case effGetMidiProgramCategory:
; 233  : 			v = getMidiProgramCategory (index, (MidiProgramCategory*)ptr);

	mov	rax, QWORD PTR [rcx]
	mov	edx, r10d
	mov	r8, QWORD PTR ptr$[rbp-64]
	call	QWORD PTR [rax+816]

; 234  : 			break;

	jmp	$LN59@dispatcher
$LN57@dispatcher:

; 65   : 	switch (opcode)

	mov	r8d, edx
	sub	r8d, 65					; 00000041H
	je	SHORT $LN35@dispatcher
	sub	r8d, 1
	je	SHORT $LN36@dispatcher
	sub	r8d, 1
	je	SHORT $LN37@dispatcher
	cmp	r8d, 1
	jne	$LN50@dispatcher

; 244  : 		case effEndSetProgram:
; 245  : 			v = endSetProgram () ? 1 : 0;

	mov	rax, QWORD PTR [rcx]
	call	QWORD PTR [rax+456]

; 246  : 			break;	

	jmp	$LN60@dispatcher
$LN37@dispatcher:

; 241  : 		case effBeginSetProgram:
; 242  : 			v = beginSetProgram () ? 1 : 0;

	mov	rax, QWORD PTR [rcx]
	call	QWORD PTR [rax+448]

; 243  : 			break;

	jmp	$LN60@dispatcher
$LN36@dispatcher:

; 238  : 		case effGetMidiKeyName:
; 239  : 			v = getMidiKeyName (index, (MidiKeyName*)ptr) ? 1 : 0;

	mov	rax, QWORD PTR [rcx]
	mov	edx, r10d
	mov	r8, QWORD PTR ptr$[rbp-64]
	call	QWORD PTR [rax+832]

; 240  : 			break;

	jmp	$LN60@dispatcher
$LN35@dispatcher:

; 235  : 		case effHasMidiProgramsChanged:
; 236  : 			v = hasMidiProgramsChanged (index) ? 1 : 0;

	mov	rax, QWORD PTR [rcx]
	mov	edx, r10d
	call	QWORD PTR [rax+824]

; 237  : 			break;

	jmp	$LN60@dispatcher
$LN39@dispatcher:

; 247  : 	#endif // VST_2_1_EXTENSIONS
; 248  : 
; 249  : 	#if VST_2_3_EXTENSIONS
; 250  : 		case effGetSpeakerArrangement:
; 251  : 			v = getSpeakerArrangement (FromVstPtr<VstSpeakerArrangement*> (value), (VstSpeakerArrangement**)ptr) ? 1 : 0;

	mov	rax, QWORD PTR [rcx]
	mov	rdx, r11
	mov	r8, QWORD PTR ptr$[rbp-64]
	call	QWORD PTR [rax+544]

; 252  : 			break;

	jmp	$LN60@dispatcher
$LN56@dispatcher:

; 65   : 	switch (opcode)

	cmp	edx, 75					; 0000004bH
	jg	$LN58@dispatcher
	je	SHORT $LN45@dispatcher
	mov	r8d, edx
	sub	r8d, 70					; 00000046H
	je	SHORT $LN41@dispatcher
	sub	r8d, 1
	je	SHORT $LN42@dispatcher
	sub	r8d, 1
	je	SHORT $LN43@dispatcher
	sub	r8d, 1
	je	SHORT $LN40@dispatcher
	cmp	r8d, 1
	jne	SHORT $LN50@dispatcher

; 268  : 
; 269  : 		case effSetPanLaw:
; 270  : 			v = setPanLaw ((VstInt32)value, opt) ? 1 : 0;

	mov	rax, QWORD PTR [rcx]
	mov	edx, r11d
	movss	xmm2, DWORD PTR opt$[rbp-64]
	call	QWORD PTR [rax+560]

; 271  : 			break;

	jmp	$LN60@dispatcher
$LN40@dispatcher:

; 253  : 
; 254  : 		case effSetTotalSampleToProcess:
; 255  : 			v = setTotalSampleToProcess ((VstInt32)value);

	mov	rax, QWORD PTR [rcx]
	mov	edx, r11d
	call	QWORD PTR [rax+648]

; 256  : 			break;

	jmp	$LN59@dispatcher
$LN43@dispatcher:

; 265  : 		case effStopProcess:
; 266  : 			v = stopProcess ();

	mov	rax, QWORD PTR [rcx]
	call	QWORD PTR [rax+632]

; 267  : 			break;

	jmp	$LN59@dispatcher
$LN42@dispatcher:

; 261  : 
; 262  : 		case effStartProcess:
; 263  : 			v = startProcess ();

	mov	rax, QWORD PTR [rcx]
	call	QWORD PTR [rax+624]

; 264  : 			break;

	jmp	$LN59@dispatcher
$LN41@dispatcher:

; 257  : 
; 258  : 		case effShellGetNextPlugin:
; 259  : 			v = getNextShellPlugin ((char*)ptr);

	mov	rax, QWORD PTR [rcx]
	mov	rdx, QWORD PTR ptr$[rbp-64]
	call	QWORD PTR [rax+872]

; 260  : 			break;

	jmp	SHORT $LN59@dispatcher
$LN45@dispatcher:

; 272  : 
; 273  : 		case effBeginLoadBank:
; 274  : 			v = beginLoadBank ((VstPatchChunkInfo*)ptr);

	mov	rax, QWORD PTR [rcx]
	mov	rdx, QWORD PTR ptr$[rbp-64]
	call	QWORD PTR [rax+464]

; 275  : 			break;

	jmp	SHORT $LN59@dispatcher
$LN58@dispatcher:

; 65   : 	switch (opcode)

	mov	r8d, edx
	sub	r8d, 76					; 0000004cH
	je	SHORT $LN46@dispatcher
	sub	r8d, 1
	je	SHORT $LN47@dispatcher
	sub	r8d, 1
	je	SHORT $LN48@dispatcher
	cmp	r8d, 1
	je	SHORT $LN49@dispatcher
$LN50@dispatcher:

; 293  : 	#endif // VST_2_4_EXTENSIONS
; 294  : 
; 295  : 		//---Version 1.0 or unknown-----------------
; 296  : 		default:
; 297  : 			v = AudioEffect::dispatcher (opcode, index, value, ptr, opt);

	movss	xmm0, DWORD PTR opt$[rbp-64]
	mov	r8d, r10d
	mov	rax, QWORD PTR ptr$[rbp-64]
	movss	DWORD PTR [rsp+40], xmm0
	mov	QWORD PTR [rsp+32], rax
	call	?dispatcher@AudioEffect@@UEAA_JHH_JPEAXM@Z ; AudioEffect::dispatcher
	jmp	$LN62@dispatcher
$LN49@dispatcher:

; 289  : 
; 290  : 		case effGetNumMidiOutputChannels :
; 291  : 			v = getNumMidiOutputChannels ();

	mov	rax, QWORD PTR [rcx]
	call	QWORD PTR [rax+584]

; 292  : 			break;

	jmp	SHORT $LN59@dispatcher
$LN48@dispatcher:

; 285  : 
; 286  : 		case effGetNumMidiInputChannels :
; 287  : 			v = getNumMidiInputChannels ();

	mov	rax, QWORD PTR [rcx]
	call	QWORD PTR [rax+576]

; 288  : 			break;

	jmp	SHORT $LN59@dispatcher
$LN47@dispatcher:

; 278  : 			break;
; 279  : 	#endif // VST_2_3_EXTENSIONS
; 280  : 
; 281  : 	#if VST_2_4_EXTENSIONS
; 282  : 		case effSetProcessPrecision :
; 283  : 			v = setProcessPrecision ((VstInt32)value) ? 1 : 0;

	mov	rax, QWORD PTR [rcx]
	mov	edx, r11d
	call	QWORD PTR [rax+568]

; 284  : 			break;

	jmp	$LN60@dispatcher
$LN46@dispatcher:

; 276  : 		case effBeginLoadProgram:
; 277  : 			v = beginLoadProgram ((VstPatchChunkInfo*)ptr);

	mov	rax, QWORD PTR [rcx]
	mov	rdx, QWORD PTR ptr$[rbp-64]
	call	QWORD PTR [rax+472]
$LN59@dispatcher:

; 298  : 	}
; 299  : 	return v;

	movsxd	rbx, eax
$LN2@dispatcher:
	mov	rax, rbx

; 300  : }

	mov	rbx, QWORD PTR [rsp+80]
	add	rsp, 64					; 00000040H
	pop	rbp
	ret	0
?dispatcher@AudioEffectX@@UEAA_JHH_JPEAXM@Z ENDP	; AudioEffectX::dispatcher
_TEXT	ENDS
; Function compile flags: /Ogspy
; File E:\prova\Shimmer\vst-2.4-sdk\vstsdk2.4\public.sdk\source\vst2.x\audioeffectx.cpp
;	COMDAT ?resume@AudioEffectX@@UEAAXXZ
_TEXT	SEGMENT
this$ = 48
?resume@AudioEffectX@@UEAAXXZ PROC			; AudioEffectX::resume, COMDAT

; 306  : {

$LN6:
	push	rbx
	sub	rsp, 32					; 00000020H

; 307  : 	if (cEffect.flags & effFlagsIsSynth || canDo ("receiveVstMidiEvent") == 1)

	test	DWORD PTR [rcx+104], 256		; 00000100H
	mov	rbx, rcx
	jne	SHORT $LN3@resume
	mov	rax, QWORD PTR [rcx]
	lea	rdx, OFFSET FLAT:??_C@_0BE@KLGKMJKL@receiveVstMidiEvent@
	call	QWORD PTR [rax+776]
	cmp	eax, 1
	jne	SHORT $LN2@resume
$LN3@resume:

; 308  : 		DECLARE_VST_DEPRECATED (wantEvents) ();

	mov	rax, QWORD PTR [rbx]
	mov	edx, 1
	mov	rcx, rbx
	call	QWORD PTR [rax+992]
$LN2@resume:

; 309  : }

	add	rsp, 32					; 00000020H
	pop	rbx
	ret	0
?resume@AudioEffectX@@UEAAXXZ ENDP			; AudioEffectX::resume
_TEXT	ENDS
; Function compile flags: /Ogspy
; File E:\prova\Shimmer\vst-2.4-sdk\vstsdk2.4\public.sdk\source\vst2.x\audioeffectx.cpp
;	COMDAT ?__wantEventsDeprecated@AudioEffectX@@UEAAXH@Z
_TEXT	SEGMENT
this$ = 64
filter$ = 72
?__wantEventsDeprecated@AudioEffectX@@UEAAXH@Z PROC	; AudioEffectX::__wantEventsDeprecated, COMDAT

; 313  : {

$LN5:
	sub	rsp, 56					; 00000038H

; 314  : 	if (audioMaster)

	mov	rax, QWORD PTR [rcx+8]
	test	rax, rax
	je	SHORT $LN2@wantEvents

; 315  : 		audioMaster (&cEffect, DECLARE_VST_DEPRECATED (audioMasterWantMidi), 0, filter, 0, 0);

	xor	r8d, r8d
	movsxd	r9, edx
	xorps	xmm0, xmm0
	add	rcx, 48					; 00000030H
	movss	DWORD PTR [rsp+40], xmm0
	and	QWORD PTR [rsp+32], 0
	lea	edx, QWORD PTR [r8+6]
	call	rax
$LN2@wantEvents:

; 316  : }

	add	rsp, 56					; 00000038H
	ret	0
?__wantEventsDeprecated@AudioEffectX@@UEAAXH@Z ENDP	; AudioEffectX::__wantEventsDeprecated
_TEXT	ENDS
; Function compile flags: /Ogspy
; File E:\prova\Shimmer\vst-2.4-sdk\vstsdk2.4\public.sdk\source\vst2.x\audioeffectx.cpp
;	COMDAT ?getTimeInfo@AudioEffectX@@UEAAPEAUVstTimeInfo@@H@Z
_TEXT	SEGMENT
this$ = 64
filter$ = 72
?getTimeInfo@AudioEffectX@@UEAAPEAUVstTimeInfo@@H@Z PROC ; AudioEffectX::getTimeInfo, COMDAT

; 335  : {

$LN5:
	sub	rsp, 56					; 00000038H

; 336  : 	if (audioMaster)

	mov	rax, QWORD PTR [rcx+8]
	test	rax, rax
	je	SHORT $LN1@getTimeInf

; 337  : 	{
; 338  : 		VstIntPtr ret = audioMaster (&cEffect, audioMasterGetTime, 0, filter, 0, 0);

	xor	r8d, r8d
	movsxd	r9, edx
	xorps	xmm0, xmm0
	add	rcx, 48					; 00000030H
	movss	DWORD PTR [rsp+40], xmm0
	and	QWORD PTR [rsp+32], 0
	lea	edx, QWORD PTR [r8+7]
	call	rax
$LN1@getTimeInf:

; 339  : 		return FromVstPtr<VstTimeInfo> (ret);
; 340  : 	}
; 341  : 	return 0;
; 342  : }

	add	rsp, 56					; 00000038H
	ret	0
?getTimeInfo@AudioEffectX@@UEAAPEAUVstTimeInfo@@H@Z ENDP ; AudioEffectX::getTimeInfo
_TEXT	ENDS
; Function compile flags: /Ogspy
; File E:\prova\Shimmer\vst-2.4-sdk\vstsdk2.4\public.sdk\source\vst2.x\audioeffectx.cpp
;	COMDAT ?__tempoAtDeprecated@AudioEffectX@@UEAAHH@Z
_TEXT	SEGMENT
this$ = 64
pos$ = 72
?__tempoAtDeprecated@AudioEffectX@@UEAAHH@Z PROC	; AudioEffectX::__tempoAtDeprecated, COMDAT

; 346  : {

$LN5:
	sub	rsp, 56					; 00000038H

; 347  : 	if (audioMaster)

	mov	rax, QWORD PTR [rcx+8]
	test	rax, rax
	je	SHORT $LN1@tempoAtDep

; 348  : 		return (VstInt32)audioMaster (&cEffect, DECLARE_VST_DEPRECATED (audioMasterTempoAt), 0, pos, 0, 0);

	xor	r8d, r8d
	movsxd	r9, edx
	xorps	xmm0, xmm0
	add	rcx, 48					; 00000030H
	movss	DWORD PTR [rsp+40], xmm0
	and	QWORD PTR [rsp+32], 0
	lea	edx, QWORD PTR [r8+10]
	call	rax
$LN1@tempoAtDep:

; 349  : 	return 0;
; 350  : }

	add	rsp, 56					; 00000038H
	ret	0
?__tempoAtDeprecated@AudioEffectX@@UEAAHH@Z ENDP	; AudioEffectX::__tempoAtDeprecated
_TEXT	ENDS
; Function compile flags: /Ogspy
; File E:\prova\Shimmer\vst-2.4-sdk\vstsdk2.4\public.sdk\source\vst2.x\audioeffectx.cpp
;	COMDAT ?__getNumAutomatableParametersDeprecated@AudioEffectX@@UEAAHXZ
_TEXT	SEGMENT
this$ = 64
?__getNumAutomatableParametersDeprecated@AudioEffectX@@UEAAHXZ PROC ; AudioEffectX::__getNumAutomatableParametersDeprecated, COMDAT

; 418  : {

$LN5:
	sub	rsp, 56					; 00000038H

; 419  : 	if (audioMaster)

	mov	rax, QWORD PTR [rcx+8]
	test	rax, rax
	je	SHORT $LN1@getNumAuto

; 420  : 		return (VstInt32)audioMaster (&cEffect, DECLARE_VST_DEPRECATED (audioMasterGetNumAutomatableParameters), 0, 0, 0, 0);

	xor	r9d, r9d
	xorps	xmm0, xmm0
	movss	DWORD PTR [rsp+40], xmm0
	add	rcx, 48					; 00000030H
	and	QWORD PTR [rsp+32], 0
	xor	r8d, r8d
	lea	edx, QWORD PTR [r9+11]
	call	rax
$LN1@getNumAuto:

; 421  : 	return 0;
; 422  : }

	add	rsp, 56					; 00000038H
	ret	0
?__getNumAutomatableParametersDeprecated@AudioEffectX@@UEAAHXZ ENDP ; AudioEffectX::__getNumAutomatableParametersDeprecated
_TEXT	ENDS
; Function compile flags: /Ogspy
; File E:\prova\Shimmer\vst-2.4-sdk\vstsdk2.4\public.sdk\source\vst2.x\audioeffectx.cpp
;	COMDAT ?__getParameterQuantizationDeprecated@AudioEffectX@@UEAAHXZ
_TEXT	SEGMENT
this$ = 64
?__getParameterQuantizationDeprecated@AudioEffectX@@UEAAHXZ PROC ; AudioEffectX::__getParameterQuantizationDeprecated, COMDAT

; 426  : {

$LN5:
	sub	rsp, 56					; 00000038H

; 427  : 	if (audioMaster)

	mov	rax, QWORD PTR [rcx+8]
	test	rax, rax
	je	SHORT $LN1@getParamet

; 428  : 		return (VstInt32)audioMaster (&cEffect, DECLARE_VST_DEPRECATED (audioMasterGetParameterQuantization), 0, 0, 0, 0);

	xor	r9d, r9d
	xorps	xmm0, xmm0
	movss	DWORD PTR [rsp+40], xmm0
	add	rcx, 48					; 00000030H
	and	QWORD PTR [rsp+32], 0
	xor	r8d, r8d
	lea	edx, QWORD PTR [r9+12]
	call	rax
$LN1@getParamet:

; 429  : 	return 0;
; 430  : }

	add	rsp, 56					; 00000038H
	ret	0
?__getParameterQuantizationDeprecated@AudioEffectX@@UEAAHXZ ENDP ; AudioEffectX::__getParameterQuantizationDeprecated
_TEXT	ENDS
; Function compile flags: /Ogspy
; File E:\prova\Shimmer\vst-2.4-sdk\vstsdk2.4\public.sdk\source\vst2.x\audioeffectx.cpp
;	COMDAT ?ioChanged@AudioEffectX@@UEAA_NXZ
_TEXT	SEGMENT
this$ = 64
?ioChanged@AudioEffectX@@UEAA_NXZ PROC			; AudioEffectX::ioChanged, COMDAT

; 447  : {

$LN5:
	sub	rsp, 56					; 00000038H

; 448  : 	if (audioMaster)

	mov	rax, QWORD PTR [rcx+8]
	test	rax, rax
	je	SHORT $LN1@ioChanged

; 449  : 		return (audioMaster (&cEffect, audioMasterIOChanged, 0, 0, 0, 0) != 0);

	xor	r9d, r9d
	xorps	xmm0, xmm0
	movss	DWORD PTR [rsp+40], xmm0
	add	rcx, 48					; 00000030H
	and	QWORD PTR [rsp+32], 0
	xor	r8d, r8d
	lea	edx, QWORD PTR [r9+13]
	call	rax
	test	rax, rax
	setne	al
$LN1@ioChanged:

; 450  : 	return false;
; 451  : }

	add	rsp, 56					; 00000038H
	ret	0
?ioChanged@AudioEffectX@@UEAA_NXZ ENDP			; AudioEffectX::ioChanged
_TEXT	ENDS
; Function compile flags: /Ogspy
; File E:\prova\Shimmer\vst-2.4-sdk\vstsdk2.4\public.sdk\source\vst2.x\audioeffectx.cpp
;	COMDAT ?__needIdleDeprecated@AudioEffectX@@UEAA_NXZ
_TEXT	SEGMENT
this$ = 64
?__needIdleDeprecated@AudioEffectX@@UEAA_NXZ PROC	; AudioEffectX::__needIdleDeprecated, COMDAT

; 455  : {

$LN5:
	sub	rsp, 56					; 00000038H

; 456  : 	if (audioMaster)

	mov	rax, QWORD PTR [rcx+8]
	test	rax, rax
	je	SHORT $LN1@needIdleDe

; 457  : 		return (audioMaster (&cEffect, DECLARE_VST_DEPRECATED (audioMasterNeedIdle), 0, 0, 0, 0) != 0);

	xor	r9d, r9d
	xorps	xmm0, xmm0
	movss	DWORD PTR [rsp+40], xmm0
	add	rcx, 48					; 00000030H
	and	QWORD PTR [rsp+32], 0
	xor	r8d, r8d
	lea	edx, QWORD PTR [r9+14]
	call	rax
	test	rax, rax
	setne	al
$LN1@needIdleDe:

; 458  : 	return false;
; 459  : }

	add	rsp, 56					; 00000038H
	ret	0
?__needIdleDeprecated@AudioEffectX@@UEAA_NXZ ENDP	; AudioEffectX::__needIdleDeprecated
_TEXT	ENDS
; Function compile flags: /Ogspy
; File E:\prova\Shimmer\vst-2.4-sdk\vstsdk2.4\public.sdk\source\vst2.x\audioeffectx.cpp
;	COMDAT ?sizeWindow@AudioEffectX@@UEAA_NHH@Z
_TEXT	SEGMENT
this$ = 64
width$ = 72
height$ = 80
?sizeWindow@AudioEffectX@@UEAA_NHH@Z PROC		; AudioEffectX::sizeWindow, COMDAT

; 468  : {

$LN5:
	sub	rsp, 56					; 00000038H

; 469  : 	if (audioMaster)

	mov	rax, QWORD PTR [rcx+8]
	test	rax, rax
	je	SHORT $LN1@sizeWindow

; 470  : 		return (audioMaster (&cEffect, audioMasterSizeWindow, width, height, 0, 0) != 0);

	movsxd	r9, r8d
	xorps	xmm0, xmm0
	mov	r8d, edx
	movss	DWORD PTR [rsp+40], xmm0
	and	QWORD PTR [rsp+32], 0
	mov	edx, 15
	add	rcx, 48					; 00000030H
	call	rax
	test	rax, rax
	setne	al
$LN1@sizeWindow:

; 471  : 	return false;
; 472  : }

	add	rsp, 56					; 00000038H
	ret	0
?sizeWindow@AudioEffectX@@UEAA_NHH@Z ENDP		; AudioEffectX::sizeWindow
_TEXT	ENDS
; Function compile flags: /Ogspy
; File E:\prova\Shimmer\vst-2.4-sdk\vstsdk2.4\public.sdk\source\vst2.x\audioeffectx.cpp
;	COMDAT ?updateSampleRate@AudioEffectX@@UEAANXZ
_TEXT	SEGMENT
this$ = 64
?updateSampleRate@AudioEffectX@@UEAANXZ PROC		; AudioEffectX::updateSampleRate, COMDAT

; 479  : {

$LN6:
	push	rbx
	sub	rsp, 48					; 00000030H

; 480  : 	if (audioMaster)

	mov	rax, QWORD PTR [rcx+8]
	mov	rbx, rcx
	test	rax, rax
	je	SHORT $LN3@updateSamp

; 481  : 	{
; 482  : 		VstIntPtr res = audioMaster (&cEffect, audioMasterGetSampleRate, 0, 0, 0, 0);

	xor	r9d, r9d
	xorps	xmm0, xmm0
	movss	DWORD PTR [rsp+40], xmm0
	add	rcx, 48					; 00000030H
	and	QWORD PTR [rsp+32], 0
	xor	r8d, r8d
	lea	edx, QWORD PTR [r9+16]
	call	rax

; 483  : 		if (res > 0)

	test	rax, rax
	jle	SHORT $LN3@updateSamp

; 484  : 			sampleRate = (float)res;

	xorps	xmm0, xmm0
	cvtsi2ss xmm0, rax
	movss	DWORD PTR [rbx+24], xmm0
$LN3@updateSamp:

; 485  : 	}
; 486  : 	return sampleRate;

	movss	xmm0, DWORD PTR [rbx+24]
	cvtps2pd xmm0, xmm0

; 487  : }

	add	rsp, 48					; 00000030H
	pop	rbx
	ret	0
?updateSampleRate@AudioEffectX@@UEAANXZ ENDP		; AudioEffectX::updateSampleRate
_TEXT	ENDS
; Function compile flags: /Ogspy
; File E:\prova\Shimmer\vst-2.4-sdk\vstsdk2.4\public.sdk\source\vst2.x\audioeffectx.cpp
;	COMDAT ?updateBlockSize@AudioEffectX@@UEAAHXZ
_TEXT	SEGMENT
this$ = 64
?updateBlockSize@AudioEffectX@@UEAAHXZ PROC		; AudioEffectX::updateBlockSize, COMDAT

; 496  : {

$LN6:
	push	rbx
	sub	rsp, 48					; 00000030H

; 497  : 	if (audioMaster)

	mov	rax, QWORD PTR [rcx+8]
	mov	rbx, rcx
	test	rax, rax
	je	SHORT $LN3@updateBloc

; 498  : 	{
; 499  : 		VstInt32 res = (VstInt32)audioMaster (&cEffect, audioMasterGetBlockSize, 0, 0, 0, 0);

	xor	r9d, r9d
	xorps	xmm0, xmm0
	movss	DWORD PTR [rsp+40], xmm0
	add	rcx, 48					; 00000030H
	and	QWORD PTR [rsp+32], 0
	xor	r8d, r8d
	lea	edx, QWORD PTR [r9+17]
	call	rax

; 500  : 		if (res > 0)

	test	eax, eax
	jle	SHORT $LN3@updateBloc

; 501  : 			blockSize = res;

	mov	DWORD PTR [rbx+28], eax
$LN3@updateBloc:

; 502  : 	}
; 503  : 	return blockSize;

	mov	eax, DWORD PTR [rbx+28]

; 504  : }

	add	rsp, 48					; 00000030H
	pop	rbx
	ret	0
?updateBlockSize@AudioEffectX@@UEAAHXZ ENDP		; AudioEffectX::updateBlockSize
_TEXT	ENDS
; Function compile flags: /Ogspy
; File E:\prova\Shimmer\vst-2.4-sdk\vstsdk2.4\public.sdk\source\vst2.x\audioeffectx.cpp
;	COMDAT ?getInputLatency@AudioEffectX@@UEAAHXZ
_TEXT	SEGMENT
this$ = 64
?getInputLatency@AudioEffectX@@UEAAHXZ PROC		; AudioEffectX::getInputLatency, COMDAT

; 512  : {

$LN5:
	sub	rsp, 56					; 00000038H

; 513  : 	if (audioMaster)

	mov	rax, QWORD PTR [rcx+8]
	test	rax, rax
	je	SHORT $LN1@getInputLa

; 514  : 		return (VstInt32)audioMaster (&cEffect, audioMasterGetInputLatency, 0, 0, 0, 0);

	xor	r9d, r9d
	xorps	xmm0, xmm0
	movss	DWORD PTR [rsp+40], xmm0
	add	rcx, 48					; 00000030H
	and	QWORD PTR [rsp+32], 0
	xor	r8d, r8d
	lea	edx, QWORD PTR [r9+18]
	call	rax
$LN1@getInputLa:

; 515  : 	return 0;
; 516  : }

	add	rsp, 56					; 00000038H
	ret	0
?getInputLatency@AudioEffectX@@UEAAHXZ ENDP		; AudioEffectX::getInputLatency
_TEXT	ENDS
; Function compile flags: /Ogspy
; File E:\prova\Shimmer\vst-2.4-sdk\vstsdk2.4\public.sdk\source\vst2.x\audioeffectx.cpp
;	COMDAT ?getOutputLatency@AudioEffectX@@UEAAHXZ
_TEXT	SEGMENT
this$ = 64
?getOutputLatency@AudioEffectX@@UEAAHXZ PROC		; AudioEffectX::getOutputLatency, COMDAT

; 528  : {

$LN5:
	sub	rsp, 56					; 00000038H

; 529  : 	if (audioMaster)

	mov	rax, QWORD PTR [rcx+8]
	test	rax, rax
	je	SHORT $LN1@getOutputL

; 530  : 		return (VstInt32)audioMaster (&cEffect, audioMasterGetOutputLatency, 0, 0, 0, 0);

	xor	r9d, r9d
	xorps	xmm0, xmm0
	movss	DWORD PTR [rsp+40], xmm0
	add	rcx, 48					; 00000030H
	and	QWORD PTR [rsp+32], 0
	xor	r8d, r8d
	lea	edx, QWORD PTR [r9+19]
	call	rax
$LN1@getOutputL:

; 531  : 	return 0;
; 532  : }

	add	rsp, 56					; 00000038H
	ret	0
?getOutputLatency@AudioEffectX@@UEAAHXZ ENDP		; AudioEffectX::getOutputLatency
_TEXT	ENDS
; Function compile flags: /Ogspy
; File E:\prova\Shimmer\vst-2.4-sdk\vstsdk2.4\public.sdk\source\vst2.x\audioeffectx.cpp
;	COMDAT ?__getPreviousPlugDeprecated@AudioEffectX@@UEAAPEAUAEffect@@H@Z
_TEXT	SEGMENT
this$ = 64
input$ = 72
?__getPreviousPlugDeprecated@AudioEffectX@@UEAAPEAUAEffect@@H@Z PROC ; AudioEffectX::__getPreviousPlugDeprecated, COMDAT

; 624  : {

$LN5:
	sub	rsp, 56					; 00000038H

; 625  : 	if (audioMaster)

	mov	rax, QWORD PTR [rcx+8]
	test	rax, rax
	je	SHORT $LN1@getPreviou

; 626  : 	{
; 627  : 		VstIntPtr ret = audioMaster (&cEffect, DECLARE_VST_DEPRECATED (audioMasterGetPreviousPlug), 0, 0, 0, 0);

	xor	r9d, r9d
	xorps	xmm0, xmm0
	movss	DWORD PTR [rsp+40], xmm0
	add	rcx, 48					; 00000030H
	and	QWORD PTR [rsp+32], 0
	xor	r8d, r8d
	lea	edx, QWORD PTR [r9+20]
	call	rax
$LN1@getPreviou:

; 628  : 		return FromVstPtr<AEffect> (ret);
; 629  : 	}
; 630  : 	return 0;
; 631  : }

	add	rsp, 56					; 00000038H
	ret	0
?__getPreviousPlugDeprecated@AudioEffectX@@UEAAPEAUAEffect@@H@Z ENDP ; AudioEffectX::__getPreviousPlugDeprecated
_TEXT	ENDS
; Function compile flags: /Ogspy
; File E:\prova\Shimmer\vst-2.4-sdk\vstsdk2.4\public.sdk\source\vst2.x\audioeffectx.cpp
;	COMDAT ?__getNextPlugDeprecated@AudioEffectX@@UEAAPEAUAEffect@@H@Z
_TEXT	SEGMENT
this$ = 64
output$ = 72
?__getNextPlugDeprecated@AudioEffectX@@UEAAPEAUAEffect@@H@Z PROC ; AudioEffectX::__getNextPlugDeprecated, COMDAT

; 635  : {

$LN5:
	sub	rsp, 56					; 00000038H

; 636  : 	if (audioMaster)

	mov	rax, QWORD PTR [rcx+8]
	test	rax, rax
	je	SHORT $LN1@getNextPlu

; 637  : 	{
; 638  : 		VstIntPtr ret = audioMaster (&cEffect, DECLARE_VST_DEPRECATED (audioMasterGetNextPlug), 0, 0, 0, 0);

	xor	r9d, r9d
	xorps	xmm0, xmm0
	movss	DWORD PTR [rsp+40], xmm0
	add	rcx, 48					; 00000030H
	and	QWORD PTR [rsp+32], 0
	xor	r8d, r8d
	lea	edx, QWORD PTR [r9+21]
	call	rax
$LN1@getNextPlu:

; 639  : 		return FromVstPtr<AEffect> (ret);
; 640  : 	}
; 641  : 	return 0;
; 642  : }

	add	rsp, 56					; 00000038H
	ret	0
?__getNextPlugDeprecated@AudioEffectX@@UEAAPEAUAEffect@@H@Z ENDP ; AudioEffectX::__getNextPlugDeprecated
_TEXT	ENDS
; Function compile flags: /Ogspy
; File E:\prova\Shimmer\vst-2.4-sdk\vstsdk2.4\public.sdk\source\vst2.x\audioeffectx.cpp
;	COMDAT ?getPlugCategory@AudioEffectX@@UEAA?AW4VstPlugCategory@@XZ
_TEXT	SEGMENT
this$ = 8
?getPlugCategory@AudioEffectX@@UEAA?AW4VstPlugCategory@@XZ PROC ; AudioEffectX::getPlugCategory, COMDAT

; 650  : 	if (cEffect.flags & effFlagsIsSynth)

	mov	eax, DWORD PTR [rcx+104]
	shr	eax, 7
	and	eax, 2

; 651  : 		return kPlugCategSynth;
; 652  : 	return kPlugCategUnknown; 
; 653  : }

	ret	0
?getPlugCategory@AudioEffectX@@UEAA?AW4VstPlugCategory@@XZ ENDP ; AudioEffectX::getPlugCategory
_TEXT	ENDS
; Function compile flags: /Ogspy
; File E:\prova\Shimmer\vst-2.4-sdk\vstsdk2.4\public.sdk\source\vst2.x\audioeffectx.cpp
;	COMDAT ?__willProcessReplacingDeprecated@AudioEffectX@@UEAAHXZ
_TEXT	SEGMENT
this$ = 64
?__willProcessReplacingDeprecated@AudioEffectX@@UEAAHXZ PROC ; AudioEffectX::__willProcessReplacingDeprecated, COMDAT

; 657  : {

$LN5:
	sub	rsp, 56					; 00000038H

; 658  : 	if (audioMaster)

	mov	rax, QWORD PTR [rcx+8]
	test	rax, rax
	je	SHORT $LN1@willProces

; 659  : 		return (VstInt32)audioMaster (&cEffect, DECLARE_VST_DEPRECATED (audioMasterWillReplaceOrAccumulate), 0, 0, 0, 0);

	xor	r9d, r9d
	xorps	xmm0, xmm0
	movss	DWORD PTR [rsp+40], xmm0
	add	rcx, 48					; 00000030H
	and	QWORD PTR [rsp+32], 0
	xor	r8d, r8d
	lea	edx, QWORD PTR [r9+22]
	call	rax
$LN1@willProces:

; 660  : 	return 0;
; 661  : }

	add	rsp, 56					; 00000038H
	ret	0
?__willProcessReplacingDeprecated@AudioEffectX@@UEAAHXZ ENDP ; AudioEffectX::__willProcessReplacingDeprecated
_TEXT	ENDS
; Function compile flags: /Ogspy
; File E:\prova\Shimmer\vst-2.4-sdk\vstsdk2.4\public.sdk\source\vst2.x\audioeffectx.cpp
;	COMDAT ?getCurrentProcessLevel@AudioEffectX@@UEAAHXZ
_TEXT	SEGMENT
this$ = 64
?getCurrentProcessLevel@AudioEffectX@@UEAAHXZ PROC	; AudioEffectX::getCurrentProcessLevel, COMDAT

; 673  : {

$LN5:
	sub	rsp, 56					; 00000038H

; 674  : 	if (audioMaster)

	mov	rax, QWORD PTR [rcx+8]
	test	rax, rax
	je	SHORT $LN1@getCurrent

; 675  : 		return (VstInt32)audioMaster (&cEffect, audioMasterGetCurrentProcessLevel, 0, 0, 0, 0);

	xor	r9d, r9d
	xorps	xmm0, xmm0
	movss	DWORD PTR [rsp+40], xmm0
	add	rcx, 48					; 00000030H
	and	QWORD PTR [rsp+32], 0
	xor	r8d, r8d
	lea	edx, QWORD PTR [r9+23]
	call	rax
$LN1@getCurrent:

; 676  : 	return 0;
; 677  : }

	add	rsp, 56					; 00000038H
	ret	0
?getCurrentProcessLevel@AudioEffectX@@UEAAHXZ ENDP	; AudioEffectX::getCurrentProcessLevel
_TEXT	ENDS
; Function compile flags: /Ogspy
; File E:\prova\Shimmer\vst-2.4-sdk\vstsdk2.4\public.sdk\source\vst2.x\audioeffectx.cpp
;	COMDAT ?getAutomationState@AudioEffectX@@UEAAHXZ
_TEXT	SEGMENT
this$ = 64
?getAutomationState@AudioEffectX@@UEAAHXZ PROC		; AudioEffectX::getAutomationState, COMDAT

; 684  : {

$LN5:
	sub	rsp, 56					; 00000038H

; 685  : 	if (audioMaster)

	mov	rax, QWORD PTR [rcx+8]
	test	rax, rax
	je	SHORT $LN1@getAutomat

; 686  : 		return (VstInt32)audioMaster (&cEffect, audioMasterGetAutomationState, 0, 0, 0, 0);

	xor	r9d, r9d
	xorps	xmm0, xmm0
	movss	DWORD PTR [rsp+40], xmm0
	add	rcx, 48					; 00000030H
	and	QWORD PTR [rsp+32], 0
	xor	r8d, r8d
	lea	edx, QWORD PTR [r9+24]
	call	rax
$LN1@getAutomat:

; 687  : 	return 0;
; 688  : }

	add	rsp, 56					; 00000038H
	ret	0
?getAutomationState@AudioEffectX@@UEAAHXZ ENDP		; AudioEffectX::getAutomationState
_TEXT	ENDS
; Function compile flags: /Ogspy
; File E:\prova\Shimmer\vst-2.4-sdk\vstsdk2.4\public.sdk\source\vst2.x\audioeffectx.cpp
;	COMDAT ?__wantAsyncOperationDeprecated@AudioEffectX@@UEAAX_N@Z
_TEXT	SEGMENT
this$ = 8
state$ = 16
?__wantAsyncOperationDeprecated@AudioEffectX@@UEAAX_N@Z PROC ; AudioEffectX::__wantAsyncOperationDeprecated, COMDAT

; 692  : {

	mov	r8d, DWORD PTR [rcx+104]

; 693  : 	if (state)
; 694  : 		cEffect.flags |= DECLARE_VST_DEPRECATED (effFlagsExtIsAsync);
; 695  : 	else
; 696  : 		cEffect.flags &= ~DECLARE_VST_DEPRECATED (effFlagsExtIsAsync);
; 697  : }

	mov	eax, r8d
	btr	eax, 10
	bts	r8d, 10
	test	dl, dl
	cmove	r8d, eax
	mov	DWORD PTR [rcx+104], r8d
	ret	0
?__wantAsyncOperationDeprecated@AudioEffectX@@UEAAX_N@Z ENDP ; AudioEffectX::__wantAsyncOperationDeprecated
_TEXT	ENDS
; Function compile flags: /Ogspy
; File E:\prova\Shimmer\vst-2.4-sdk\vstsdk2.4\public.sdk\source\vst2.x\audioeffectx.cpp
;	COMDAT ?__hasExternalBufferDeprecated@AudioEffectX@@UEAAX_N@Z
_TEXT	SEGMENT
this$ = 8
state$ = 16
?__hasExternalBufferDeprecated@AudioEffectX@@UEAAX_N@Z PROC ; AudioEffectX::__hasExternalBufferDeprecated, COMDAT

; 701  : {

	mov	r8d, DWORD PTR [rcx+104]

; 702  : 	if (state)
; 703  : 		cEffect.flags |= DECLARE_VST_DEPRECATED (effFlagsExtHasBuffer);
; 704  : 	else
; 705  : 		cEffect.flags &= ~DECLARE_VST_DEPRECATED (effFlagsExtHasBuffer);
; 706  : }

	mov	eax, r8d
	btr	eax, 11
	bts	r8d, 11
	test	dl, dl
	cmove	r8d, eax
	mov	DWORD PTR [rcx+104], r8d
	ret	0
?__hasExternalBufferDeprecated@AudioEffectX@@UEAAX_N@Z ENDP ; AudioEffectX::__hasExternalBufferDeprecated
_TEXT	ENDS
; Function compile flags: /Ogspy
; File E:\prova\Shimmer\vst-2.4-sdk\vstsdk2.4\public.sdk\source\vst2.x\audioeffectx.cpp
;	COMDAT ?offlineRead@AudioEffectX@@UEAA_NPEAUVstOfflineTask@@W4VstOfflineOption@@_N@Z
_TEXT	SEGMENT
this$ = 64
offline$ = 72
option$ = 80
readSource$ = 88
?offlineRead@AudioEffectX@@UEAA_NPEAUVstOfflineTask@@W4VstOfflineOption@@_N@Z PROC ; AudioEffectX::offlineRead, COMDAT

; 715  : {

$LN5:
	sub	rsp, 56					; 00000038H

; 716  : 	if (audioMaster)

	mov	rax, QWORD PTR [rcx+8]
	movzx	r10d, r9b
	test	rax, rax
	je	SHORT $LN1@offlineRea

; 717  : 		return (audioMaster (&cEffect, audioMasterOfflineRead, readSource, option, offline, 0) != 0);

	xorps	xmm0, xmm0
	movsxd	r9, r8d
	movss	DWORD PTR [rsp+40], xmm0
	mov	r8d, r10d
	mov	QWORD PTR [rsp+32], rdx
	add	rcx, 48					; 00000030H
	mov	edx, 26
	call	rax
	test	rax, rax
	setne	al
$LN1@offlineRea:

; 718  : 	return false;
; 719  : }

	add	rsp, 56					; 00000038H
	ret	0
?offlineRead@AudioEffectX@@UEAA_NPEAUVstOfflineTask@@W4VstOfflineOption@@_N@Z ENDP ; AudioEffectX::offlineRead
_TEXT	ENDS
; Function compile flags: /Ogspy
; File E:\prova\Shimmer\vst-2.4-sdk\vstsdk2.4\public.sdk\source\vst2.x\audioeffectx.cpp
;	COMDAT ?offlineWrite@AudioEffectX@@UEAA_NPEAUVstOfflineTask@@W4VstOfflineOption@@@Z
_TEXT	SEGMENT
this$ = 64
offline$ = 72
option$ = 80
?offlineWrite@AudioEffectX@@UEAA_NPEAUVstOfflineTask@@W4VstOfflineOption@@@Z PROC ; AudioEffectX::offlineWrite, COMDAT

; 723  : {

$LN5:
	sub	rsp, 56					; 00000038H

; 724  : 	if (audioMaster)

	mov	rax, QWORD PTR [rcx+8]
	test	rax, rax
	je	SHORT $LN1@offlineWri

; 725  : 		return (audioMaster (&cEffect, audioMasterOfflineWrite, 0, option, offline, 0) != 0);

	movsxd	r9, r8d
	xorps	xmm0, xmm0
	xor	r8d, r8d
	movss	DWORD PTR [rsp+40], xmm0
	mov	QWORD PTR [rsp+32], rdx
	add	rcx, 48					; 00000030H
	lea	edx, QWORD PTR [r8+27]
	call	rax
	test	rax, rax
	setne	al
$LN1@offlineWri:

; 726  : 	return false;
; 727  : }

	add	rsp, 56					; 00000038H
	ret	0
?offlineWrite@AudioEffectX@@UEAA_NPEAUVstOfflineTask@@W4VstOfflineOption@@@Z ENDP ; AudioEffectX::offlineWrite
_TEXT	ENDS
; Function compile flags: /Ogspy
; File E:\prova\Shimmer\vst-2.4-sdk\vstsdk2.4\public.sdk\source\vst2.x\audioeffectx.cpp
;	COMDAT ?offlineStart@AudioEffectX@@UEAA_NPEAUVstAudioFile@@HH@Z
_TEXT	SEGMENT
this$ = 64
audioFiles$ = 72
numAudioFiles$ = 80
numNewAudioFiles$ = 88
?offlineStart@AudioEffectX@@UEAA_NPEAUVstAudioFile@@HH@Z PROC ; AudioEffectX::offlineStart, COMDAT

; 731  : {

$LN5:
	sub	rsp, 56					; 00000038H

; 732  : 	if (audioMaster)

	mov	rax, QWORD PTR [rcx+8]
	mov	r10d, r9d
	test	rax, rax
	je	SHORT $LN1@offlineSta

; 733  : 		return (audioMaster (&cEffect, audioMasterOfflineStart, numNewAudioFiles, numAudioFiles, audioFiles, 0) != 0);

	xorps	xmm0, xmm0
	movsxd	r9, r8d
	movss	DWORD PTR [rsp+40], xmm0
	add	rcx, 48					; 00000030H
	mov	QWORD PTR [rsp+32], rdx
	mov	r8d, r10d
	mov	edx, 25
	call	rax
	test	rax, rax
	setne	al
$LN1@offlineSta:

; 734  : 	return false;
; 735  : }

	add	rsp, 56					; 00000038H
	ret	0
?offlineStart@AudioEffectX@@UEAA_NPEAUVstAudioFile@@HH@Z ENDP ; AudioEffectX::offlineStart
_TEXT	ENDS
; Function compile flags: /Ogspy
; File E:\prova\Shimmer\vst-2.4-sdk\vstsdk2.4\public.sdk\source\vst2.x\audioeffectx.cpp
;	COMDAT ?offlineGetCurrentPass@AudioEffectX@@UEAAHXZ
_TEXT	SEGMENT
this$ = 64
?offlineGetCurrentPass@AudioEffectX@@UEAAHXZ PROC	; AudioEffectX::offlineGetCurrentPass, COMDAT

; 739  : {

$LN5:
	push	rbx
	sub	rsp, 48					; 00000030H

; 740  : 	if (audioMaster)

	mov	rax, QWORD PTR [rcx+8]
	xor	ebx, ebx
	test	rax, rax
	je	SHORT $LN1@offlineGet

; 741  : 		return (audioMaster (&cEffect, audioMasterOfflineGetCurrentPass, 0, 0, 0, 0) != 0);

	xorps	xmm0, xmm0
	lea	edx, QWORD PTR [rbx+28]
	movss	DWORD PTR [rsp+40], xmm0
	add	rcx, 48					; 00000030H
	xor	r9d, r9d
	mov	QWORD PTR [rsp+32], rbx
	xor	r8d, r8d
	call	rax
	test	rax, rax
	setne	bl
	mov	eax, ebx
$LN1@offlineGet:

; 742  : 	return false;
; 743  : }

	add	rsp, 48					; 00000030H
	pop	rbx
	ret	0
?offlineGetCurrentPass@AudioEffectX@@UEAAHXZ ENDP	; AudioEffectX::offlineGetCurrentPass
_TEXT	ENDS
; Function compile flags: /Ogspy
; File E:\prova\Shimmer\vst-2.4-sdk\vstsdk2.4\public.sdk\source\vst2.x\audioeffectx.cpp
;	COMDAT ?offlineGetCurrentMetaPass@AudioEffectX@@UEAAHXZ
_TEXT	SEGMENT
this$ = 64
?offlineGetCurrentMetaPass@AudioEffectX@@UEAAHXZ PROC	; AudioEffectX::offlineGetCurrentMetaPass, COMDAT

; 747  : {

$LN5:
	push	rbx
	sub	rsp, 48					; 00000030H

; 748  : 	if (audioMaster)

	mov	rax, QWORD PTR [rcx+8]
	xor	ebx, ebx
	test	rax, rax
	je	SHORT $LN1@offlineGet

; 749  : 		return (audioMaster (&cEffect, audioMasterOfflineGetCurrentMetaPass, 0, 0, 0, 0) != 0);

	xorps	xmm0, xmm0
	lea	edx, QWORD PTR [rbx+29]
	movss	DWORD PTR [rsp+40], xmm0
	add	rcx, 48					; 00000030H
	xor	r9d, r9d
	mov	QWORD PTR [rsp+32], rbx
	xor	r8d, r8d
	call	rax
	test	rax, rax
	setne	bl
	mov	eax, ebx
$LN1@offlineGet:

; 750  : 	return false;
; 751  : }

	add	rsp, 48					; 00000030H
	pop	rbx
	ret	0
?offlineGetCurrentMetaPass@AudioEffectX@@UEAAHXZ ENDP	; AudioEffectX::offlineGetCurrentMetaPass
_TEXT	ENDS
; Function compile flags: /Ogspy
; File E:\prova\Shimmer\vst-2.4-sdk\vstsdk2.4\public.sdk\source\vst2.x\audioeffectx.cpp
;	COMDAT ?__setOutputSamplerateDeprecated@AudioEffectX@@UEAAXM@Z
_TEXT	SEGMENT
this$ = 64
sampleRate$ = 72
?__setOutputSamplerateDeprecated@AudioEffectX@@UEAAXM@Z PROC ; AudioEffectX::__setOutputSamplerateDeprecated, COMDAT

; 759  : {

$LN5:
	sub	rsp, 56					; 00000038H

; 760  : 	if (audioMaster)

	mov	rax, QWORD PTR [rcx+8]
	test	rax, rax
	je	SHORT $LN2@setOutputS

; 761  : 		audioMaster (&cEffect, DECLARE_VST_DEPRECATED (audioMasterSetOutputSampleRate), 0, 0, 0, sampleRate);

	xor	r9d, r9d
	movss	DWORD PTR [rsp+40], xmm1
	and	QWORD PTR [rsp+32], 0
	add	rcx, 48					; 00000030H
	xor	r8d, r8d
	lea	edx, QWORD PTR [r9+30]
	call	rax
$LN2@setOutputS:

; 762  : }

	add	rsp, 56					; 00000038H
	ret	0
?__setOutputSamplerateDeprecated@AudioEffectX@@UEAAXM@Z ENDP ; AudioEffectX::__setOutputSamplerateDeprecated
_TEXT	ENDS
; Function compile flags: /Ogspy
; File E:\prova\Shimmer\vst-2.4-sdk\vstsdk2.4\public.sdk\source\vst2.x\audioeffectx.cpp
;	COMDAT ?__getInputSpeakerArrangementDeprecated@AudioEffectX@@UEAAPEAUVstSpeakerArrangement@@XZ
_TEXT	SEGMENT
this$ = 64
?__getInputSpeakerArrangementDeprecated@AudioEffectX@@UEAAPEAUVstSpeakerArrangement@@XZ PROC ; AudioEffectX::__getInputSpeakerArrangementDeprecated, COMDAT

; 766  : {

$LN5:
	sub	rsp, 56					; 00000038H

; 767  : 	if (audioMaster)

	mov	rax, QWORD PTR [rcx+8]
	test	rax, rax
	je	SHORT $LN1@getInputSp

; 768  : 	{
; 769  : 		VstIntPtr ret = audioMaster (&cEffect, DECLARE_VST_DEPRECATED (audioMasterGetInputSpeakerArrangement), 0, 0, 0, 0);

	xor	r9d, r9d
	xorps	xmm0, xmm0
	movss	DWORD PTR [rsp+40], xmm0
	add	rcx, 48					; 00000030H
	and	QWORD PTR [rsp+32], 0
	xor	r8d, r8d
	lea	edx, QWORD PTR [r9+49]
	call	rax
$LN1@getInputSp:

; 770  : 		return FromVstPtr<VstSpeakerArrangement> (ret);
; 771  : 	}
; 772  : 	return 0;
; 773  : }

	add	rsp, 56					; 00000038H
	ret	0
?__getInputSpeakerArrangementDeprecated@AudioEffectX@@UEAAPEAUVstSpeakerArrangement@@XZ ENDP ; AudioEffectX::__getInputSpeakerArrangementDeprecated
_TEXT	ENDS
; Function compile flags: /Ogspy
; File E:\prova\Shimmer\vst-2.4-sdk\vstsdk2.4\public.sdk\source\vst2.x\audioeffectx.cpp
;	COMDAT ?__getOutputSpeakerArrangementDeprecated@AudioEffectX@@UEAAPEAUVstSpeakerArrangement@@XZ
_TEXT	SEGMENT
this$ = 64
?__getOutputSpeakerArrangementDeprecated@AudioEffectX@@UEAAPEAUVstSpeakerArrangement@@XZ PROC ; AudioEffectX::__getOutputSpeakerArrangementDeprecated, COMDAT

; 777  : {

$LN5:
	sub	rsp, 56					; 00000038H

; 778  : 	if (audioMaster)

	mov	rax, QWORD PTR [rcx+8]
	test	rax, rax
	je	SHORT $LN1@getOutputS

; 779  : 	{
; 780  : 		VstIntPtr ret = audioMaster (&cEffect, DECLARE_VST_DEPRECATED (audioMasterGetOutputSpeakerArrangement), 0, 0, 0, 0);

	xor	r9d, r9d
	xorps	xmm0, xmm0
	movss	DWORD PTR [rsp+40], xmm0
	add	rcx, 48					; 00000030H
	and	QWORD PTR [rsp+32], 0
	xor	r8d, r8d
	lea	edx, QWORD PTR [r9+31]
	call	rax
$LN1@getOutputS:

; 781  : 		return FromVstPtr<VstSpeakerArrangement> (ret);
; 782  : 	}
; 783  : 	return 0;
; 784  : }

	add	rsp, 56					; 00000038H
	ret	0
?__getOutputSpeakerArrangementDeprecated@AudioEffectX@@UEAAPEAUVstSpeakerArrangement@@XZ ENDP ; AudioEffectX::__getOutputSpeakerArrangementDeprecated
_TEXT	ENDS
; Function compile flags: /Ogspy
; File E:\prova\Shimmer\vst-2.4-sdk\vstsdk2.4\public.sdk\source\vst2.x\audioeffectx.cpp
;	COMDAT ?getHostVendorString@AudioEffectX@@UEAA_NPEAD@Z
_TEXT	SEGMENT
this$ = 64
text$ = 72
?getHostVendorString@AudioEffectX@@UEAA_NPEAD@Z PROC	; AudioEffectX::getHostVendorString, COMDAT

; 792  : {

$LN5:
	sub	rsp, 56					; 00000038H

; 793  : 	if (audioMaster)

	mov	rax, QWORD PTR [rcx+8]
	test	rax, rax
	je	SHORT $LN1@getHostVen

; 794  : 		return (audioMaster (&cEffect, audioMasterGetVendorString, 0, 0, text, 0) != 0);

	xor	r9d, r9d
	xorps	xmm0, xmm0
	movss	DWORD PTR [rsp+40], xmm0
	add	rcx, 48					; 00000030H
	mov	QWORD PTR [rsp+32], rdx
	xor	r8d, r8d
	lea	edx, QWORD PTR [r9+32]
	call	rax
	test	rax, rax
	setne	al
$LN1@getHostVen:

; 795  : 	return false;
; 796  : }

	add	rsp, 56					; 00000038H
	ret	0
?getHostVendorString@AudioEffectX@@UEAA_NPEAD@Z ENDP	; AudioEffectX::getHostVendorString
_TEXT	ENDS
; Function compile flags: /Ogspy
; File E:\prova\Shimmer\vst-2.4-sdk\vstsdk2.4\public.sdk\source\vst2.x\audioeffectx.cpp
;	COMDAT ?getHostProductString@AudioEffectX@@UEAA_NPEAD@Z
_TEXT	SEGMENT
this$ = 64
text$ = 72
?getHostProductString@AudioEffectX@@UEAA_NPEAD@Z PROC	; AudioEffectX::getHostProductString, COMDAT

; 804  : {

$LN5:
	sub	rsp, 56					; 00000038H

; 805  : 	if (audioMaster)

	mov	rax, QWORD PTR [rcx+8]
	test	rax, rax
	je	SHORT $LN1@getHostPro

; 806  : 		return (audioMaster (&cEffect, audioMasterGetProductString, 0, 0, text, 0) != 0);

	xor	r9d, r9d
	xorps	xmm0, xmm0
	movss	DWORD PTR [rsp+40], xmm0
	add	rcx, 48					; 00000030H
	mov	QWORD PTR [rsp+32], rdx
	xor	r8d, r8d
	lea	edx, QWORD PTR [r9+33]
	call	rax
	test	rax, rax
	setne	al
$LN1@getHostPro:

; 807  : 	return false;
; 808  : }

	add	rsp, 56					; 00000038H
	ret	0
?getHostProductString@AudioEffectX@@UEAA_NPEAD@Z ENDP	; AudioEffectX::getHostProductString
_TEXT	ENDS
; Function compile flags: /Ogspy
; File E:\prova\Shimmer\vst-2.4-sdk\vstsdk2.4\public.sdk\source\vst2.x\audioeffectx.cpp
;	COMDAT ?getHostVendorVersion@AudioEffectX@@UEAAHXZ
_TEXT	SEGMENT
this$ = 64
?getHostVendorVersion@AudioEffectX@@UEAAHXZ PROC	; AudioEffectX::getHostVendorVersion, COMDAT

; 815  : {

$LN5:
	sub	rsp, 56					; 00000038H

; 816  : 	if (audioMaster)

	mov	rax, QWORD PTR [rcx+8]
	test	rax, rax
	je	SHORT $LN1@getHostVen

; 817  : 		return (VstInt32)audioMaster (&cEffect, audioMasterGetVendorVersion, 0, 0, 0, 0);

	xor	r9d, r9d
	xorps	xmm0, xmm0
	movss	DWORD PTR [rsp+40], xmm0
	add	rcx, 48					; 00000030H
	and	QWORD PTR [rsp+32], 0
	xor	r8d, r8d
	lea	edx, QWORD PTR [r9+34]
	call	rax
$LN1@getHostVen:

; 818  : 	return 0;
; 819  : }

	add	rsp, 56					; 00000038H
	ret	0
?getHostVendorVersion@AudioEffectX@@UEAAHXZ ENDP	; AudioEffectX::getHostVendorVersion
_TEXT	ENDS
; Function compile flags: /Ogspy
; File E:\prova\Shimmer\vst-2.4-sdk\vstsdk2.4\public.sdk\source\vst2.x\audioeffectx.cpp
;	COMDAT ?hostVendorSpecific@AudioEffectX@@UEAA_JH_JPEAXM@Z
_TEXT	SEGMENT
this$ = 64
lArg1$ = 72
lArg2$ = 80
ptrArg$ = 88
floatArg$ = 96
?hostVendorSpecific@AudioEffectX@@UEAA_JH_JPEAXM@Z PROC	; AudioEffectX::hostVendorSpecific, COMDAT

; 823  : {

$LN5:
	sub	rsp, 56					; 00000038H

; 824  : 	if (audioMaster)

	mov	rax, QWORD PTR [rcx+8]
	test	rax, rax
	je	SHORT $LN1@hostVendor

; 825  : 		return audioMaster (&cEffect, audioMasterVendorSpecific, lArg1, lArg2, ptrArg, floatArg);

	movss	xmm0, DWORD PTR floatArg$[rsp]
	add	rcx, 48					; 00000030H
	movss	DWORD PTR [rsp+40], xmm0
	mov	QWORD PTR [rsp+32], r9
	mov	r9, r8
	mov	r8d, edx
	mov	edx, 35					; 00000023H
	call	rax
$LN1@hostVendor:

; 826  : 	return 0;
; 827  : }

	add	rsp, 56					; 00000038H
	ret	0
?hostVendorSpecific@AudioEffectX@@UEAA_JH_JPEAXM@Z ENDP	; AudioEffectX::hostVendorSpecific
_TEXT	ENDS
; Function compile flags: /Ogspy
; File E:\prova\Shimmer\vst-2.4-sdk\vstsdk2.4\public.sdk\source\vst2.x\audioeffectx.cpp
;	COMDAT ?canHostDo@AudioEffectX@@UEAAHPEAD@Z
_TEXT	SEGMENT
this$ = 64
text$ = 72
?canHostDo@AudioEffectX@@UEAAHPEAD@Z PROC		; AudioEffectX::canHostDo, COMDAT

; 843  : {

$LN5:
	push	rbx
	sub	rsp, 48					; 00000030H

; 844  : 	if (audioMaster)

	mov	rax, QWORD PTR [rcx+8]
	xor	ebx, ebx
	test	rax, rax
	je	SHORT $LN1@canHostDo

; 845  : 		return (audioMaster (&cEffect, audioMasterCanDo, 0, 0, text, 0) != 0);

	xorps	xmm0, xmm0
	add	rcx, 48					; 00000030H
	movss	DWORD PTR [rsp+40], xmm0
	xor	r9d, r9d
	mov	QWORD PTR [rsp+32], rdx
	xor	r8d, r8d
	lea	edx, QWORD PTR [rbx+37]
	call	rax
	test	rax, rax
	setne	bl
	mov	eax, ebx
$LN1@canHostDo:

; 846  : 	return 0;
; 847  : }

	add	rsp, 48					; 00000030H
	pop	rbx
	ret	0
?canHostDo@AudioEffectX@@UEAAHPEAD@Z ENDP		; AudioEffectX::canHostDo
_TEXT	ENDS
; Function compile flags: /Ogspy
; File E:\prova\Shimmer\vst-2.4-sdk\vstsdk2.4\public.sdk\source\vst2.x\audioeffectx.cpp
;	COMDAT ?isSynth@AudioEffectX@@UEAAX_N@Z
_TEXT	SEGMENT
this$ = 8
state$ = 16
?isSynth@AudioEffectX@@UEAAX_N@Z PROC			; AudioEffectX::isSynth, COMDAT

; 858  : {

	mov	r8d, DWORD PTR [rcx+104]

; 859  : 	if (state)
; 860  : 		cEffect.flags |= effFlagsIsSynth;
; 861  : 	else
; 862  : 		cEffect.flags &= ~effFlagsIsSynth;
; 863  : }

	mov	eax, r8d
	btr	eax, 8
	bts	r8d, 8
	test	dl, dl
	cmove	r8d, eax
	mov	DWORD PTR [rcx+104], r8d
	ret	0
?isSynth@AudioEffectX@@UEAAX_N@Z ENDP			; AudioEffectX::isSynth
_TEXT	ENDS
; Function compile flags: /Ogspy
; File E:\prova\Shimmer\vst-2.4-sdk\vstsdk2.4\public.sdk\source\vst2.x\audioeffectx.cpp
;	COMDAT ?noTail@AudioEffectX@@UEAAX_N@Z
_TEXT	SEGMENT
this$ = 8
state$ = 16
?noTail@AudioEffectX@@UEAAX_N@Z PROC			; AudioEffectX::noTail, COMDAT

; 870  : {

	mov	r8d, DWORD PTR [rcx+104]

; 871  : 	if (state)
; 872  : 		cEffect.flags |= effFlagsNoSoundInStop;
; 873  : 	else
; 874  : 		cEffect.flags &= ~effFlagsNoSoundInStop;
; 875  : }

	mov	eax, r8d
	btr	eax, 9
	bts	r8d, 9
	test	dl, dl
	cmove	r8d, eax
	mov	DWORD PTR [rcx+104], r8d
	ret	0
?noTail@AudioEffectX@@UEAAX_N@Z ENDP			; AudioEffectX::noTail
_TEXT	ENDS
; Function compile flags: /Ogspy
; File E:\prova\Shimmer\vst-2.4-sdk\vstsdk2.4\public.sdk\source\vst2.x\audioeffectx.cpp
;	COMDAT ?getHostLanguage@AudioEffectX@@UEAAHXZ
_TEXT	SEGMENT
this$ = 64
?getHostLanguage@AudioEffectX@@UEAAHXZ PROC		; AudioEffectX::getHostLanguage, COMDAT

; 882  : {

$LN5:
	sub	rsp, 56					; 00000038H

; 883  : 	if (audioMaster)

	mov	rax, QWORD PTR [rcx+8]
	test	rax, rax
	je	SHORT $LN1@getHostLan

; 884  : 		return (VstInt32)audioMaster (&cEffect, audioMasterGetLanguage, 0, 0, 0, 0);

	xor	r9d, r9d
	xorps	xmm0, xmm0
	movss	DWORD PTR [rsp+40], xmm0
	add	rcx, 48					; 00000030H
	and	QWORD PTR [rsp+32], 0
	xor	r8d, r8d
	lea	edx, QWORD PTR [r9+38]
	call	rax
$LN1@getHostLan:

; 885  : 	return 0;
; 886  : }

	add	rsp, 56					; 00000038H
	ret	0
?getHostLanguage@AudioEffectX@@UEAAHXZ ENDP		; AudioEffectX::getHostLanguage
_TEXT	ENDS
; Function compile flags: /Ogspy
; File E:\prova\Shimmer\vst-2.4-sdk\vstsdk2.4\public.sdk\source\vst2.x\audioeffectx.cpp
;	COMDAT ?__openWindowDeprecated@AudioEffectX@@UEAAPEAXPEAU__VstWindowDeprecated@@@Z
_TEXT	SEGMENT
this$ = 64
window$ = 72
?__openWindowDeprecated@AudioEffectX@@UEAAPEAXPEAU__VstWindowDeprecated@@@Z PROC ; AudioEffectX::__openWindowDeprecated, COMDAT

; 890  : {

$LN5:
	sub	rsp, 56					; 00000038H

; 891  : 	if (audioMaster)

	mov	rax, QWORD PTR [rcx+8]
	test	rax, rax
	je	SHORT $LN1@openWindow

; 892  : 	{
; 893  : 		VstIntPtr ret = audioMaster (&cEffect, DECLARE_VST_DEPRECATED (audioMasterOpenWindow), 0, 0, window, 0);

	xor	r9d, r9d
	xorps	xmm0, xmm0
	movss	DWORD PTR [rsp+40], xmm0
	add	rcx, 48					; 00000030H
	mov	QWORD PTR [rsp+32], rdx
	xor	r8d, r8d
	lea	edx, QWORD PTR [r9+39]
	call	rax
$LN1@openWindow:

; 894  : 		return FromVstPtr<void> (ret);
; 895  : 	}
; 896  : 	return 0;
; 897  : }

	add	rsp, 56					; 00000038H
	ret	0
?__openWindowDeprecated@AudioEffectX@@UEAAPEAXPEAU__VstWindowDeprecated@@@Z ENDP ; AudioEffectX::__openWindowDeprecated
_TEXT	ENDS
; Function compile flags: /Ogspy
; File E:\prova\Shimmer\vst-2.4-sdk\vstsdk2.4\public.sdk\source\vst2.x\audioeffectx.cpp
;	COMDAT ?__closeWindowDeprecated@AudioEffectX@@UEAA_NPEAU__VstWindowDeprecated@@@Z
_TEXT	SEGMENT
this$ = 64
window$ = 72
?__closeWindowDeprecated@AudioEffectX@@UEAA_NPEAU__VstWindowDeprecated@@@Z PROC ; AudioEffectX::__closeWindowDeprecated, COMDAT

; 901  : {

$LN5:
	sub	rsp, 56					; 00000038H

; 902  : 	if (audioMaster)

	mov	rax, QWORD PTR [rcx+8]
	test	rax, rax
	je	SHORT $LN1@closeWindo

; 903  : 		return (audioMaster (&cEffect, DECLARE_VST_DEPRECATED (audioMasterCloseWindow), 0, 0, window, 0) != 0);

	xor	r9d, r9d
	xorps	xmm0, xmm0
	movss	DWORD PTR [rsp+40], xmm0
	add	rcx, 48					; 00000030H
	mov	QWORD PTR [rsp+32], rdx
	xor	r8d, r8d
	lea	edx, QWORD PTR [r9+40]
	call	rax
	test	rax, rax
	setne	al
$LN1@closeWindo:

; 904  : 	return false;
; 905  : }

	add	rsp, 56					; 00000038H
	ret	0
?__closeWindowDeprecated@AudioEffectX@@UEAA_NPEAU__VstWindowDeprecated@@@Z ENDP ; AudioEffectX::__closeWindowDeprecated
_TEXT	ENDS
; Function compile flags: /Ogspy
; File E:\prova\Shimmer\vst-2.4-sdk\vstsdk2.4\public.sdk\source\vst2.x\audioeffectx.cpp
;	COMDAT ?getDirectory@AudioEffectX@@UEAAPEAXXZ
_TEXT	SEGMENT
this$ = 64
?getDirectory@AudioEffectX@@UEAAPEAXXZ PROC		; AudioEffectX::getDirectory, COMDAT

; 912  : {

$LN5:
	sub	rsp, 56					; 00000038H

; 913  : 	if (audioMaster)

	mov	rax, QWORD PTR [rcx+8]
	test	rax, rax
	je	SHORT $LN1@getDirecto

; 914  : 	{
; 915  : 		VstIntPtr ret = (audioMaster (&cEffect, audioMasterGetDirectory, 0, 0, 0, 0));

	xor	r9d, r9d
	xorps	xmm0, xmm0
	movss	DWORD PTR [rsp+40], xmm0
	add	rcx, 48					; 00000030H
	and	QWORD PTR [rsp+32], 0
	xor	r8d, r8d
	lea	edx, QWORD PTR [r9+41]
	call	rax
$LN1@getDirecto:

; 916  : 		return FromVstPtr<void> (ret);
; 917  : 	}
; 918  : 	return 0;
; 919  : }

	add	rsp, 56					; 00000038H
	ret	0
?getDirectory@AudioEffectX@@UEAAPEAXXZ ENDP		; AudioEffectX::getDirectory
_TEXT	ENDS
; Function compile flags: /Ogspy
; File E:\prova\Shimmer\vst-2.4-sdk\vstsdk2.4\public.sdk\source\vst2.x\audioeffectx.cpp
;	COMDAT ?updateDisplay@AudioEffectX@@UEAA_NXZ
_TEXT	SEGMENT
this$ = 64
?updateDisplay@AudioEffectX@@UEAA_NXZ PROC		; AudioEffectX::updateDisplay, COMDAT

; 926  : {

$LN5:
	sub	rsp, 56					; 00000038H

; 927  : 	if (audioMaster)

	mov	rax, QWORD PTR [rcx+8]
	test	rax, rax
	je	SHORT $LN1@updateDisp

; 928  : 		return (audioMaster (&cEffect, audioMasterUpdateDisplay, 0, 0, 0, 0)) ? true : false;

	xor	r9d, r9d
	xorps	xmm0, xmm0
	movss	DWORD PTR [rsp+40], xmm0
	add	rcx, 48					; 00000030H
	and	QWORD PTR [rsp+32], 0
	xor	r8d, r8d
	lea	edx, QWORD PTR [r9+42]
	call	rax
	test	rax, rax
	setne	al
$LN1@updateDisp:

; 929  : 	return 0;
; 930  : }

	add	rsp, 56					; 00000038H
	ret	0
?updateDisplay@AudioEffectX@@UEAA_NXZ ENDP		; AudioEffectX::updateDisplay
_TEXT	ENDS
; Function compile flags: /Ogspy
; File E:\prova\Shimmer\vst-2.4-sdk\vstsdk2.4\public.sdk\source\vst2.x\audioeffectx.cpp
;	COMDAT ?beginEdit@AudioEffectX@@UEAA_NH@Z
_TEXT	SEGMENT
this$ = 64
index$ = 72
?beginEdit@AudioEffectX@@UEAA_NH@Z PROC			; AudioEffectX::beginEdit, COMDAT

; 1219 : {

$LN5:
	sub	rsp, 56					; 00000038H

; 1220 : 	if (audioMaster)

	mov	rax, QWORD PTR [rcx+8]
	test	rax, rax
	je	SHORT $LN1@beginEdit

; 1221 : 		return (audioMaster (&cEffect, audioMasterBeginEdit, index, 0, 0, 0)) ? true : false;

	xor	r9d, r9d
	xorps	xmm0, xmm0
	mov	r8d, edx
	movss	DWORD PTR [rsp+40], xmm0
	and	QWORD PTR [rsp+32], 0
	add	rcx, 48					; 00000030H
	lea	edx, QWORD PTR [r9+43]
	call	rax
	test	rax, rax
	setne	al
$LN1@beginEdit:

; 1222 : 	return 0;
; 1223 : }

	add	rsp, 56					; 00000038H
	ret	0
?beginEdit@AudioEffectX@@UEAA_NH@Z ENDP			; AudioEffectX::beginEdit
_TEXT	ENDS
; Function compile flags: /Ogspy
; File E:\prova\Shimmer\vst-2.4-sdk\vstsdk2.4\public.sdk\source\vst2.x\audioeffectx.cpp
;	COMDAT ?endEdit@AudioEffectX@@UEAA_NH@Z
_TEXT	SEGMENT
this$ = 64
index$ = 72
?endEdit@AudioEffectX@@UEAA_NH@Z PROC			; AudioEffectX::endEdit, COMDAT

; 1235 : {

$LN5:
	sub	rsp, 56					; 00000038H

; 1236 : 	if (audioMaster)

	mov	rax, QWORD PTR [rcx+8]
	test	rax, rax
	je	SHORT $LN1@endEdit

; 1237 : 		return (audioMaster (&cEffect, audioMasterEndEdit, index, 0, 0, 0)) ? true : false;

	xor	r9d, r9d
	xorps	xmm0, xmm0
	mov	r8d, edx
	movss	DWORD PTR [rsp+40], xmm0
	and	QWORD PTR [rsp+32], 0
	add	rcx, 48					; 00000030H
	lea	edx, QWORD PTR [r9+44]
	call	rax
	test	rax, rax
	setne	al
$LN1@endEdit:

; 1238 : 	return 0;
; 1239 : }

	add	rsp, 56					; 00000038H
	ret	0
?endEdit@AudioEffectX@@UEAA_NH@Z ENDP			; AudioEffectX::endEdit
_TEXT	ENDS
; Function compile flags: /Ogspy
; File E:\prova\Shimmer\vst-2.4-sdk\vstsdk2.4\public.sdk\source\vst2.x\audioeffectx.cpp
;	COMDAT ?openFileSelector@AudioEffectX@@UEAA_NPEAUVstFileSelect@@@Z
_TEXT	SEGMENT
this$ = 64
ptr$ = 72
?openFileSelector@AudioEffectX@@UEAA_NPEAUVstFileSelect@@@Z PROC ; AudioEffectX::openFileSelector, COMDAT

; 1249 : {

$LN5:
	sub	rsp, 56					; 00000038H

; 1250 : 	if (audioMaster && ptr)

	mov	rax, QWORD PTR [rcx+8]
	test	rax, rax
	je	SHORT $LN2@openFileSe
	test	rdx, rdx
	je	SHORT $LN2@openFileSe

; 1251 : 		return (audioMaster (&cEffect, audioMasterOpenFileSelector, 0, 0, ptr, 0)) ? true : false;

	xor	r9d, r9d
	xorps	xmm0, xmm0
	movss	DWORD PTR [rsp+40], xmm0
	add	rcx, 48					; 00000030H
	mov	QWORD PTR [rsp+32], rdx
	xor	r8d, r8d
	lea	edx, QWORD PTR [r9+45]
	call	rax
	test	rax, rax
	setne	al
	jmp	SHORT $LN1@openFileSe
$LN2@openFileSe:

; 1252 : 	return 0;

	xor	al, al
$LN1@openFileSe:

; 1253 : }

	add	rsp, 56					; 00000038H
	ret	0
?openFileSelector@AudioEffectX@@UEAA_NPEAUVstFileSelect@@@Z ENDP ; AudioEffectX::openFileSelector
_TEXT	ENDS
; Function compile flags: /Ogspy
; File E:\prova\Shimmer\vst-2.4-sdk\vstsdk2.4\public.sdk\source\vst2.x\audioeffectx.cpp
;	COMDAT ?closeFileSelector@AudioEffectX@@UEAA_NPEAUVstFileSelect@@@Z
_TEXT	SEGMENT
this$ = 64
ptr$ = 72
?closeFileSelector@AudioEffectX@@UEAA_NPEAUVstFileSelect@@@Z PROC ; AudioEffectX::closeFileSelector, COMDAT

; 1265 : {

$LN5:
	sub	rsp, 56					; 00000038H

; 1266 : 	if (audioMaster && ptr)

	mov	rax, QWORD PTR [rcx+8]
	test	rax, rax
	je	SHORT $LN2@closeFileS
	test	rdx, rdx
	je	SHORT $LN2@closeFileS

; 1267 : 		return (audioMaster (&cEffect, audioMasterCloseFileSelector, 0, 0, ptr, 0)) ? true : false;

	xor	r9d, r9d
	xorps	xmm0, xmm0
	movss	DWORD PTR [rsp+40], xmm0
	add	rcx, 48					; 00000030H
	mov	QWORD PTR [rsp+32], rdx
	xor	r8d, r8d
	lea	edx, QWORD PTR [r9+46]
	call	rax
	test	rax, rax
	setne	al
	jmp	SHORT $LN1@closeFileS
$LN2@closeFileS:

; 1268 : 	return 0;

	xor	al, al
$LN1@closeFileS:

; 1269 : }

	add	rsp, 56					; 00000038H
	ret	0
?closeFileSelector@AudioEffectX@@UEAA_NPEAUVstFileSelect@@@Z ENDP ; AudioEffectX::closeFileSelector
_TEXT	ENDS
; Function compile flags: /Ogspy
; File E:\prova\Shimmer\vst-2.4-sdk\vstsdk2.4\public.sdk\source\vst2.x\audioeffectx.cpp
;	COMDAT ?__getChunkFileDeprecated@AudioEffectX@@UEAA_NPEAX@Z
_TEXT	SEGMENT
this$ = 64
nativePath$ = 72
?__getChunkFileDeprecated@AudioEffectX@@UEAA_NPEAX@Z PROC ; AudioEffectX::__getChunkFileDeprecated, COMDAT

; 1281 : {

$LN5:
	sub	rsp, 56					; 00000038H

; 1282 : 	if (audioMaster && nativePath)

	mov	rax, QWORD PTR [rcx+8]
	test	rax, rax
	je	SHORT $LN2@getChunkFi
	test	rdx, rdx
	je	SHORT $LN2@getChunkFi

; 1283 : 		return (audioMaster (&cEffect, DECLARE_VST_DEPRECATED (audioMasterGetChunkFile), 0, 0, nativePath, 0)) ? true : false;

	xor	r9d, r9d
	xorps	xmm0, xmm0
	movss	DWORD PTR [rsp+40], xmm0
	add	rcx, 48					; 00000030H
	mov	QWORD PTR [rsp+32], rdx
	xor	r8d, r8d
	lea	edx, QWORD PTR [r9+48]
	call	rax
	test	rax, rax
	setne	al
	jmp	SHORT $LN1@getChunkFi
$LN2@getChunkFi:

; 1284 : 	return 0;

	xor	al, al
$LN1@getChunkFi:

; 1285 : }

	add	rsp, 56					; 00000038H
	ret	0
?__getChunkFileDeprecated@AudioEffectX@@UEAA_NPEAX@Z ENDP ; AudioEffectX::__getChunkFileDeprecated
_TEXT	ENDS
; Function compile flags: /Ogspy
; File E:\prova\Shimmer\vst-2.4-sdk\vstsdk2.4\public.sdk\source\vst2.x\audioeffectx.cpp
;	COMDAT ?allocateArrangement@AudioEffectX@@UEAA_NPEAPEAUVstSpeakerArrangement@@H@Z
_TEXT	SEGMENT
this$ = 48
arrangement$ = 56
nbChannels$ = 64
?allocateArrangement@AudioEffectX@@UEAA_NPEAPEAUVstSpeakerArrangement@@H@Z PROC ; AudioEffectX::allocateArrangement, COMDAT

; 1404 : {

$LN6:
	mov	QWORD PTR [rsp+8], rbx
	mov	QWORD PTR [rsp+16], rbp
	mov	QWORD PTR [rsp+24], rsi
	push	rdi
	sub	rsp, 32					; 00000020H

; 1405 : 	if (*arrangement) 

	mov	rcx, QWORD PTR [rdx]
	mov	ebp, r8d
	mov	rsi, rdx
	test	rcx, rcx
	je	SHORT $LN2@allocateAr

; 1406 : 	{ 
; 1407 : 		char *ptr = (char*)(*arrangement); 
; 1408 : 		delete [] ptr;

	call	??_V@YAXPEAX@Z				; operator delete[]
$LN2@allocateAr:

; 1409 : 	}
; 1410 : 
; 1411 : 	VstInt32 size = 2 * sizeof (VstInt32) + nbChannels * sizeof (VstSpeakerProperties);

	imul	eax, ebp, 112				; 00000070H

; 1412 : 	char* ptr = new char[size];

	movsxd	rbx, eax
	lea	rcx, QWORD PTR [rbx+8]
	call	??_U@YAPEAX_K@Z				; operator new[]

; 1413 : 	if (!ptr)
; 1414 : 		return false;
; 1415 : 
; 1416 : 	memset (ptr, 0, size);

	lea	r8, QWORD PTR [rbx+8]
	xor	edx, edx
	mov	rcx, rax
	mov	rdi, rax
	call	QWORD PTR __imp_memset

; 1417 : 	*arrangement = (VstSpeakerArrangement*)ptr;
; 1418 : 	(*arrangement)->numChannels = nbChannels;
; 1419 : 	return true;
; 1420 : }

	mov	rbx, QWORD PTR [rsp+48]
	mov	al, 1
	mov	QWORD PTR [rsi], rdi
	mov	rsi, QWORD PTR [rsp+64]
	mov	DWORD PTR [rdi+4], ebp
	mov	rbp, QWORD PTR [rsp+56]
	add	rsp, 32					; 00000020H
	pop	rdi
	ret	0
?allocateArrangement@AudioEffectX@@UEAA_NPEAPEAUVstSpeakerArrangement@@H@Z ENDP ; AudioEffectX::allocateArrangement
_TEXT	ENDS
; Function compile flags: /Ogspy
; File E:\prova\Shimmer\vst-2.4-sdk\vstsdk2.4\public.sdk\source\vst2.x\audioeffectx.cpp
;	COMDAT ?deallocateArrangement@AudioEffectX@@UEAA_NPEAPEAUVstSpeakerArrangement@@@Z
_TEXT	SEGMENT
this$ = 48
arrangement$ = 56
?deallocateArrangement@AudioEffectX@@UEAA_NPEAPEAUVstSpeakerArrangement@@@Z PROC ; AudioEffectX::deallocateArrangement, COMDAT

; 1430 : {

$LN5:
	push	rbx
	sub	rsp, 32					; 00000020H

; 1431 : 	if (*arrangement) 

	mov	rcx, QWORD PTR [rdx]
	mov	rbx, rdx
	test	rcx, rcx
	je	SHORT $LN2@deallocate

; 1432 : 	{ 
; 1433 : 		char *ptr = (char*)(*arrangement); 
; 1434 : 		delete [] ptr; 

	call	??_V@YAXPEAX@Z				; operator delete[]

; 1435 : 		*arrangement = 0;

	and	QWORD PTR [rbx], 0
$LN2@deallocate:

; 1436 : 	}
; 1437 : 	return true;

	mov	al, 1

; 1438 : }

	add	rsp, 32					; 00000020H
	pop	rbx
	ret	0
?deallocateArrangement@AudioEffectX@@UEAA_NPEAPEAUVstSpeakerArrangement@@@Z ENDP ; AudioEffectX::deallocateArrangement
_TEXT	ENDS
; Function compile flags: /Ogspy
; File E:\prova\Shimmer\vst-2.4-sdk\vstsdk2.4\public.sdk\source\vst2.x\audioeffectx.cpp
; File E:\prova\Shimmer\vst-2.4-sdk\vstsdk2.4\pluginterfaces\vst2.x\aeffect.h
; File E:\prova\Shimmer\vst-2.4-sdk\vstsdk2.4\public.sdk\source\vst2.x\audioeffectx.cpp
;	COMDAT ?copySpeaker@AudioEffectX@@UEAA_NPEAUVstSpeakerProperties@@0@Z
_TEXT	SEGMENT
this$ = 48
to$ = 56
from$ = 64
?copySpeaker@AudioEffectX@@UEAA_NPEAUVstSpeakerProperties@@0@Z PROC ; AudioEffectX::copySpeaker, COMDAT

; 1455 : {

$LN8:
	mov	QWORD PTR [rsp+8], rbx
	mov	QWORD PTR [rsp+16], rsi
	push	rdi
	sub	rsp, 32					; 00000020H
	mov	rsi, r8
	mov	rdi, rdx

; 1456 : 	if ((from == NULL) || (to == NULL))

	test	r8, r8
	je	SHORT $LN3@copySpeake
	test	rdx, rdx
	je	SHORT $LN3@copySpeake

; 1458 : 	
; 1459 : 	vst_strncpy (to->name, from->name, 63);

	lea	rdx, QWORD PTR [r8+16]
; File E:\prova\Shimmer\vst-2.4-sdk\vstsdk2.4\pluginterfaces\vst2.x\aeffect.h

; 296  : 	char* result = strncpy (dst, src, maxLen);

	mov	r8d, 63					; 0000003fH
	lea	rcx, QWORD PTR [rdi+16]
	call	QWORD PTR __imp_strncpy

; 297  : 	dst[maxLen] = 0;

	mov	BYTE PTR [rdi+79], 0
; File E:\prova\Shimmer\vst-2.4-sdk\vstsdk2.4\public.sdk\source\vst2.x\audioeffectx.cpp

; 1465 : 	memcpy (to->future, from->future, 28);

	lea	rdx, QWORD PTR [rsi+84]
	mov	eax, DWORD PTR [rsi+80]
	lea	rcx, QWORD PTR [rdi+84]
	mov	DWORD PTR [rdi+80], eax
	mov	r8d, 28
	mov	eax, DWORD PTR [rsi]
	mov	DWORD PTR [rdi], eax
	mov	eax, DWORD PTR [rsi+4]
	mov	DWORD PTR [rdi+4], eax
	mov	eax, DWORD PTR [rsi+8]
	mov	DWORD PTR [rdi+8], eax
	mov	eax, DWORD PTR [rsi+12]
	mov	DWORD PTR [rdi+12], eax
	call	QWORD PTR __imp_memcpy

; 1466 : 	
; 1467 : 	return true;

	mov	al, 1
	jmp	SHORT $LN1@copySpeake
$LN3@copySpeake:

; 1457 : 		return false;

	xor	al, al
$LN1@copySpeake:

; 1468 : }

	mov	rbx, QWORD PTR [rsp+48]
	mov	rsi, QWORD PTR [rsp+56]
	add	rsp, 32					; 00000020H
	pop	rdi
	ret	0
?copySpeaker@AudioEffectX@@UEAA_NPEAUVstSpeakerProperties@@0@Z ENDP ; AudioEffectX::copySpeaker
_TEXT	ENDS
; Function compile flags: /Ogspy
; File E:\prova\Shimmer\vst-2.4-sdk\vstsdk2.4\public.sdk\source\vst2.x\audioeffectx.cpp
;	COMDAT ?matchArrangement@AudioEffectX@@UEAA_NPEAPEAUVstSpeakerArrangement@@PEAU2@@Z
_TEXT	SEGMENT
this$ = 48
to$ = 56
from$ = 64
?matchArrangement@AudioEffectX@@UEAA_NPEAPEAUVstSpeakerArrangement@@PEAU2@@Z PROC ; AudioEffectX::matchArrangement, COMDAT

; 1483 : {

$LN16:
	mov	QWORD PTR [rsp+8], rbx
	mov	QWORD PTR [rsp+16], rsi
	mov	QWORD PTR [rsp+24], rdi
	push	r14
	sub	rsp, 32					; 00000020H
	mov	r14, r8
	mov	rbx, rdx
	mov	rdi, rcx

; 1484 : 	if (from == NULL)

	test	r8, r8
	je	SHORT $LN7@matchArran

; 1485 : 		return false;
; 1486 : 
; 1487 : 	if ((!deallocateArrangement (to)) || (!allocateArrangement (to, from->numChannels)))

	mov	rax, QWORD PTR [rcx]
	call	QWORD PTR [rax+888]
	test	al, al
	je	SHORT $LN7@matchArran
	mov	rax, QWORD PTR [rdi]
	mov	rdx, rbx
	mov	r8d, DWORD PTR [r14+4]
	mov	rcx, rdi
	call	QWORD PTR [rax+880]
	test	al, al
	je	SHORT $LN7@matchArran

; 1489 : 	
; 1490 : 	(*to)->type = from->type;

	mov	rcx, QWORD PTR [rbx]

; 1491 : 	for (VstInt32 i = 0; i < (*to)->numChannels; i++)

	xor	esi, esi
	mov	eax, DWORD PTR [r14]
	mov	DWORD PTR [rcx], eax
	mov	rdx, QWORD PTR [rbx]
	cmp	DWORD PTR [rdx+4], esi
	jle	SHORT $LN3@matchArran
$LL4@matchArran:

; 1492 : 	{
; 1493 : 		if (!copySpeaker (&((*to)->speakers[i]), &(from->speakers[i])))

	mov	r9, QWORD PTR [rdi]
	lea	r8, QWORD PTR [r14+8]
	movsxd	rax, esi
	imul	rcx, rax, 112				; 00000070H
	add	r8, rcx
	add	rcx, 8
	add	rdx, rcx
	mov	rcx, rdi
	call	QWORD PTR [r9+896]
	test	al, al
	je	SHORT $LN7@matchArran

; 1491 : 	for (VstInt32 i = 0; i < (*to)->numChannels; i++)

	mov	rdx, QWORD PTR [rbx]
	inc	esi
	cmp	esi, DWORD PTR [rdx+4]
	jl	SHORT $LL4@matchArran
$LN3@matchArran:

; 1494 : 			return false;
; 1495 : 	}
; 1496 : 
; 1497 : 	return true;

	mov	al, 1
	jmp	SHORT $LN1@matchArran
$LN7@matchArran:

; 1488 : 		return false;

	xor	al, al
$LN1@matchArran:

; 1498 : }

	mov	rbx, QWORD PTR [rsp+48]
	mov	rsi, QWORD PTR [rsp+56]
	mov	rdi, QWORD PTR [rsp+64]
	add	rsp, 32					; 00000020H
	pop	r14
	ret	0
?matchArrangement@AudioEffectX@@UEAA_NPEAPEAUVstSpeakerArrangement@@PEAU2@@Z ENDP ; AudioEffectX::matchArrangement
_TEXT	ENDS
; Function compile flags: /Ogspy
; File E:\prova\Shimmer\vst-2.4-sdk\vstsdk2.4\pluginterfaces\vst2.x\aeffect.h
;	COMDAT ??$FromVstPtr@UVstSpeakerArrangement@@@@YAPEAUVstSpeakerArrangement@@AEA_J@Z
_TEXT	SEGMENT
arg$ = 8
??$FromVstPtr@UVstSpeakerArrangement@@@@YAPEAUVstSpeakerArrangement@@AEA_J@Z PROC ; FromVstPtr<VstSpeakerArrangement>, COMDAT

; 316  : 	T** address = (T**)&arg;
; 317  : 	return *address;

	mov	rax, QWORD PTR [rcx]

; 318  : }

	ret	0
??$FromVstPtr@UVstSpeakerArrangement@@@@YAPEAUVstSpeakerArrangement@@AEA_J@Z ENDP ; FromVstPtr<VstSpeakerArrangement>
_TEXT	ENDS
; Function compile flags: /Ogspy
; File E:\prova\Shimmer\vst-2.4-sdk\vstsdk2.4\pluginterfaces\vst2.x\aeffect.h
;	COMDAT ??$FromVstPtr@PEAUVstSpeakerArrangement@@@@YAPEAPEAUVstSpeakerArrangement@@AEA_J@Z
_TEXT	SEGMENT
arg$ = 8
??$FromVstPtr@PEAUVstSpeakerArrangement@@@@YAPEAPEAUVstSpeakerArrangement@@AEA_J@Z PROC ; FromVstPtr<VstSpeakerArrangement *>, COMDAT

; 316  : 	T** address = (T**)&arg;
; 317  : 	return *address;

	mov	rax, QWORD PTR [rcx]

; 318  : }

	ret	0
??$FromVstPtr@PEAUVstSpeakerArrangement@@@@YAPEAPEAUVstSpeakerArrangement@@AEA_J@Z ENDP ; FromVstPtr<VstSpeakerArrangement *>
_TEXT	ENDS
; Function compile flags: /Ogspy
; File E:\prova\Shimmer\vst-2.4-sdk\vstsdk2.4\pluginterfaces\vst2.x\aeffect.h
;	COMDAT ??$FromVstPtr@UVstTimeInfo@@@@YAPEAUVstTimeInfo@@AEA_J@Z
_TEXT	SEGMENT
arg$ = 8
??$FromVstPtr@UVstTimeInfo@@@@YAPEAUVstTimeInfo@@AEA_J@Z PROC ; FromVstPtr<VstTimeInfo>, COMDAT

; 316  : 	T** address = (T**)&arg;
; 317  : 	return *address;

	mov	rax, QWORD PTR [rcx]

; 318  : }

	ret	0
??$FromVstPtr@UVstTimeInfo@@@@YAPEAUVstTimeInfo@@AEA_J@Z ENDP ; FromVstPtr<VstTimeInfo>
_TEXT	ENDS
; Function compile flags: /Ogspy
; File E:\prova\Shimmer\vst-2.4-sdk\vstsdk2.4\pluginterfaces\vst2.x\aeffect.h
;	COMDAT ??$FromVstPtr@UAEffect@@@@YAPEAUAEffect@@AEA_J@Z
_TEXT	SEGMENT
arg$ = 8
??$FromVstPtr@UAEffect@@@@YAPEAUAEffect@@AEA_J@Z PROC	; FromVstPtr<AEffect>, COMDAT

; 316  : 	T** address = (T**)&arg;
; 317  : 	return *address;

	mov	rax, QWORD PTR [rcx]

; 318  : }

	ret	0
??$FromVstPtr@UAEffect@@@@YAPEAUAEffect@@AEA_J@Z ENDP	; FromVstPtr<AEffect>
_TEXT	ENDS
; Function compile flags: /Ogspy
; File E:\prova\Shimmer\vst-2.4-sdk\vstsdk2.4\pluginterfaces\vst2.x\aeffect.h
;	COMDAT ??$FromVstPtr@X@@YAPEAXAEA_J@Z
_TEXT	SEGMENT
arg$ = 8
??$FromVstPtr@X@@YAPEAXAEA_J@Z PROC			; FromVstPtr<void>, COMDAT

; 316  : 	T** address = (T**)&arg;
; 317  : 	return *address;

	mov	rax, QWORD PTR [rcx]

; 318  : }

	ret	0
??$FromVstPtr@X@@YAPEAXAEA_J@Z ENDP			; FromVstPtr<void>
_TEXT	ENDS
END
