; Listing generated by Microsoft (R) Optimizing Compiler Version 19.29.30145.0 

include listing.inc

INCLUDELIB OLDNAMES

PUBLIC	??_R1A@?0A@EA@LPFButterworth@@8			; LPFButterworth::`RTTI Base Class Descriptor at (0,-1,0,64)'
PUBLIC	??_R2LPFButterworth@@8				; LPFButterworth::`RTTI Base Class Array'
PUBLIC	??_R0?AVLPFButterworth@@@8			; LPFButterworth `RTTI Type Descriptor'
PUBLIC	??_R4LPFButterworth@@6B@			; LPFButterworth::`RTTI Complete Object Locator'
PUBLIC	??_7LPFButterworth@@6B@				; LPFButterworth::`vftable'
PUBLIC	??_R3LPFButterworth@@8				; LPFButterworth::`RTTI Class Hierarchy Descriptor'
;	COMDAT ??_R3LPFButterworth@@8
rdata$r	SEGMENT
??_R3LPFButterworth@@8 DD 00H				; LPFButterworth::`RTTI Class Hierarchy Descriptor'
	DD	00H
	DD	01H
	DD	imagerel ??_R2LPFButterworth@@8
rdata$r	ENDS
;	COMDAT ??_7LPFButterworth@@6B@
CONST	SEGMENT
??_7LPFButterworth@@6B@ DQ FLAT:??_R4LPFButterworth@@6B@ ; LPFButterworth::`vftable'
	DQ	FLAT:?processAudio@LPFButterworth@@UEAAMM@Z
CONST	ENDS
;	COMDAT ??_R4LPFButterworth@@6B@
rdata$r	SEGMENT
??_R4LPFButterworth@@6B@ DD 01H				; LPFButterworth::`RTTI Complete Object Locator'
	DD	00H
	DD	00H
	DD	imagerel ??_R0?AVLPFButterworth@@@8
	DD	imagerel ??_R3LPFButterworth@@8
	DD	imagerel ??_R4LPFButterworth@@6B@
rdata$r	ENDS
;	COMDAT ??_R0?AVLPFButterworth@@@8
data$rs	SEGMENT
??_R0?AVLPFButterworth@@@8 DQ FLAT:??_7type_info@@6B@	; LPFButterworth `RTTI Type Descriptor'
	DQ	0000000000000000H
	DB	'.?AVLPFButterworth@@', 00H
data$rs	ENDS
;	COMDAT ??_R2LPFButterworth@@8
rdata$r	SEGMENT
??_R2LPFButterworth@@8 DD imagerel ??_R1A@?0A@EA@LPFButterworth@@8 ; LPFButterworth::`RTTI Base Class Array'
	ORG $+3
rdata$r	ENDS
;	COMDAT ??_R1A@?0A@EA@LPFButterworth@@8
rdata$r	SEGMENT
??_R1A@?0A@EA@LPFButterworth@@8 DD imagerel ??_R0?AVLPFButterworth@@@8 ; LPFButterworth::`RTTI Base Class Descriptor at (0,-1,0,64)'
	DD	00H
	DD	00H
	DD	0ffffffffH
	DD	00H
	DD	040H
	DD	imagerel ??_R3LPFButterworth@@8
PUBLIC	?processAudio@LPFButterworth@@UEAAMM@Z		; LPFButterworth::processAudio
PUBLIC	?updateBuffers@LPFButterworth@@QEAAXMM@Z	; LPFButterworth::updateBuffers
PUBLIC	?updateGains@LPFButterworth@@QEAAXXZ		; LPFButterworth::updateGains
PUBLIC	?setCutoffFrequency@LPFButterworth@@QEAAXM@Z	; LPFButterworth::setCutoffFrequency
PUBLIC	?init@LPFButterworth@@QEAAXH@Z			; LPFButterworth::init
PUBLIC	??1LPFButterworth@@QEAA@XZ			; LPFButterworth::~LPFButterworth
PUBLIC	??0LPFButterworth@@QEAA@XZ			; LPFButterworth::LPFButterworth
;	COMDAT pdata
pdata	SEGMENT
$pdata$?processAudio@LPFButterworth@@UEAAMM@Z DD imagerel $LN6
	DD	imagerel $LN6+113
	DD	imagerel $unwind$?processAudio@LPFButterworth@@UEAAMM@Z
pdata	ENDS
;	COMDAT pdata
pdata	SEGMENT
$pdata$?updateGains@LPFButterworth@@QEAAXXZ DD imagerel $LN4
	DD	imagerel $LN4+264
	DD	imagerel $unwind$?updateGains@LPFButterworth@@QEAAXXZ
;	COMDAT xdata
xdata	SEGMENT
$unwind$?updateGains@LPFButterworth@@QEAAXXZ DD 0a3d01H
	DD	02a83dH
	DD	039834H
	DD	04882fH
	DD	05782aH
	DD	03004b208H
xdata	ENDS
;	COMDAT xdata
xdata	SEGMENT
$unwind$?processAudio@LPFButterworth@@UEAAMM@Z DD 032e01H
	DD	0682eH
	DD	02204H
; Function compile flags: /Ogspy
; File C:\Users\RenatoVolpe\personal\fox-suite-blocks\src\LPFButterworth.cpp
;	COMDAT ??0LPFButterworth@@QEAA@XZ
_TEXT	SEGMENT
this$ = 8
??0LPFButterworth@@QEAA@XZ PROC				; LPFButterworth::LPFButterworth, COMDAT

; 6    : LPFButterworth::LPFButterworth() {

	lea	rax, OFFSET FLAT:??_7LPFButterworth@@6B@
	mov	QWORD PTR [rcx], rax

; 7    : 	lpf_a0 = 0.0;

	xor	eax, eax
	mov	QWORD PTR [rcx+16], rax

; 8    : 	lpf_a1 = 0.0;
; 9    : 	lpf_a2 = 0.0;

	mov	QWORD PTR [rcx+24], rax

; 10   : 	lpf_b1 = 0.0;
; 11   : 	lpf_b2 = 0.0;

	mov	QWORD PTR [rcx+32], rax

; 12   : 	lpf_cutoffFreq = 0.0;

	mov	DWORD PTR [rcx+8], eax

; 13   : 	lpf_xn_1 = 0.0;
; 14   : 	lpf_xn_2 = 0.0;

	mov	QWORD PTR [rcx+40], rax

; 15   : 	lpf_yn_1 = 0.0;
; 16   : 	lpf_yn_2 = 0.0;

	mov	DWORD PTR [rcx+48], eax

; 17   : }

	mov	rax, rcx
	ret	0
??0LPFButterworth@@QEAA@XZ ENDP				; LPFButterworth::LPFButterworth
_TEXT	ENDS
; Function compile flags: /Ogspy
; File C:\Users\RenatoVolpe\personal\fox-suite-blocks\src\LPFButterworth.cpp
;	COMDAT ??1LPFButterworth@@QEAA@XZ
_TEXT	SEGMENT
this$ = 8
??1LPFButterworth@@QEAA@XZ PROC				; LPFButterworth::~LPFButterworth, COMDAT

; 19   : LPFButterworth::~LPFButterworth() {}

	lea	rax, OFFSET FLAT:??_7LPFButterworth@@6B@
	mov	QWORD PTR [rcx], rax
	ret	0
??1LPFButterworth@@QEAA@XZ ENDP				; LPFButterworth::~LPFButterworth
_TEXT	ENDS
; Function compile flags: /Ogspy
; File C:\Users\RenatoVolpe\personal\fox-suite-blocks\src\LPFButterworth.cpp
;	COMDAT ?init@LPFButterworth@@QEAAXH@Z
_TEXT	SEGMENT
this$ = 8
sampleRate$ = 16
?init@LPFButterworth@@QEAAXH@Z PROC			; LPFButterworth::init, COMDAT

; 23   : 	// set internal sample rate
; 24   : 	lpf_sampleRate = sampleRate;

	mov	DWORD PTR [rcx+12], edx

; 25   : }

	ret	0
?init@LPFButterworth@@QEAAXH@Z ENDP			; LPFButterworth::init
_TEXT	ENDS
; Function compile flags: /Ogspy
; File C:\Users\RenatoVolpe\personal\fox-suite-blocks\src\LPFButterworth.cpp
;	COMDAT ?setCutoffFrequency@LPFButterworth@@QEAAXM@Z
_TEXT	SEGMENT
this$ = 8
cutoffFreq$ = 16
?setCutoffFrequency@LPFButterworth@@QEAAXM@Z PROC	; LPFButterworth::setCutoffFrequency, COMDAT

; 39   : 	// allocate cutoff frequency value
; 40   : 	lpf_cutoffFreq = cutoffFreq;

	movss	DWORD PTR [rcx+8], xmm1

; 41   : 
; 42   : 	// update lpf gains
; 43   : 	updateGains();

	jmp	?updateGains@LPFButterworth@@QEAAXXZ	; LPFButterworth::updateGains
?setCutoffFrequency@LPFButterworth@@QEAAXM@Z ENDP	; LPFButterworth::setCutoffFrequency
_TEXT	ENDS
; Function compile flags: /Ogspy
; File C:\Users\RenatoVolpe\personal\fox-suite-blocks\src\LPFButterworth.cpp
;	COMDAT ?updateGains@LPFButterworth@@QEAAXXZ
_TEXT	SEGMENT
this$ = 112
?updateGains@LPFButterworth@@QEAAXXZ PROC		; LPFButterworth::updateGains, COMDAT

; 47   : {

$LN4:
	mov	rax, rsp
	push	rbx
	sub	rsp, 96					; 00000060H
	movss	xmm0, DWORD PTR [rcx+8]
	xorps	xmm1, xmm1

; 48   : 	// define lpf fb and ff gains
; 49   : 	float C = 1.0 / tan(( M_PI * lpf_cutoffFreq) / (float)lpf_sampleRate );

	cvtsi2ss xmm1, DWORD PTR [rcx+12]
	mov	rbx, rcx
	cvtps2pd xmm0, xmm0
	cvtps2pd xmm2, xmm1
	mulsd	xmm0, QWORD PTR __real@400921fb54442d18
	movaps	XMMWORD PTR [rax-24], xmm7
	movaps	XMMWORD PTR [rax-40], xmm8
	movaps	XMMWORD PTR [rax-56], xmm9
	divsd	xmm0, xmm2
	movaps	XMMWORD PTR [rax-72], xmm10
	call	QWORD PTR __imp_tan
	movsd	xmm10, QWORD PTR __real@3ff0000000000000
	movaps	xmm1, xmm10
	divsd	xmm1, xmm0

; 50   : 	lpf_a0 = 1.0 / (1.0 + sqrt(2.0) * C + C * C);

	movsd	xmm0, QWORD PTR __real@4000000000000000
	cvtpd2ps xmm7, xmm1
	cvtps2pd xmm8, xmm7
	mulss	xmm7, xmm7
	cvtps2pd xmm9, xmm7
	call	QWORD PTR __imp_sqrt
	mulsd	xmm0, xmm8
	movaps	xmm1, xmm10
	addsd	xmm0, xmm10
	addsd	xmm0, xmm9
	divsd	xmm1, xmm0

; 51   : 	lpf_a1 = 2.0 * lpf_a0;
; 52   : 	lpf_a2 = lpf_a0;
; 53   : 	lpf_b1 = 2.0 * lpf_a0 * (1 - C * C);
; 54   : 	lpf_b2 = lpf_a0 * (1.0 - sqrt(2.0) * C + C * C);

	movsd	xmm0, QWORD PTR __real@4000000000000000
	cvtpd2ps xmm2, xmm1
	movss	xmm1, DWORD PTR __real@3f800000
	movaps	xmm3, xmm2
	movss	DWORD PTR [rbx+16], xmm2
	addss	xmm3, xmm2
	movss	DWORD PTR [rbx+24], xmm2
	subss	xmm1, xmm7
	movss	DWORD PTR [rbx+20], xmm3
	mulss	xmm1, xmm3
	movss	DWORD PTR [rbx+28], xmm1
	call	QWORD PTR __imp_sqrt

; 55   : }

	movaps	xmm7, XMMWORD PTR [rsp+80]
	mulsd	xmm0, xmm8
	movaps	xmm8, XMMWORD PTR [rsp+64]
	subsd	xmm10, xmm0
	movss	xmm0, DWORD PTR [rbx+16]
	cvtps2pd xmm0, xmm0
	addsd	xmm10, xmm9
	movaps	xmm9, XMMWORD PTR [rsp+48]
	mulsd	xmm0, xmm10
	movaps	xmm10, XMMWORD PTR [rsp+32]
	cvtpd2ps xmm0, xmm0
	movss	DWORD PTR [rbx+32], xmm0
	add	rsp, 96					; 00000060H
	pop	rbx
	ret	0
?updateGains@LPFButterworth@@QEAAXXZ ENDP		; LPFButterworth::updateGains
_TEXT	ENDS
; Function compile flags: /Ogspy
; File C:\Users\RenatoVolpe\personal\fox-suite-blocks\src\LPFButterworth.cpp
;	COMDAT ?updateBuffers@LPFButterworth@@QEAAXMM@Z
_TEXT	SEGMENT
this$ = 8
xn$ = 16
yn$ = 24
?updateBuffers@LPFButterworth@@QEAAXMM@Z PROC		; LPFButterworth::updateBuffers, COMDAT

; 59   : 	lpf_xn_2 = lpf_xn_1;

	mov	eax, DWORD PTR [rcx+36]
	mov	DWORD PTR [rcx+40], eax

; 60   : 	lpf_yn_2 = lpf_yn_1;

	mov	eax, DWORD PTR [rcx+44]

; 61   : 	lpf_xn_1 = xn;
; 62   : 	lpf_yn_1 = yn;

	movss	DWORD PTR [rcx+44], xmm2
	mov	DWORD PTR [rcx+48], eax
	movss	DWORD PTR [rcx+36], xmm1

; 63   : }

	ret	0
?updateBuffers@LPFButterworth@@QEAAXMM@Z ENDP		; LPFButterworth::updateBuffers
_TEXT	ENDS
; Function compile flags: /Ogspy
; File C:\Users\RenatoVolpe\personal\fox-suite-blocks\src\LPFButterworth.cpp
;	COMDAT ?processAudio@LPFButterworth@@UEAAMM@Z
_TEXT	SEGMENT
this$ = 32
xn$ = 40
?processAudio@LPFButterworth@@UEAAMM@Z PROC		; LPFButterworth::processAudio, COMDAT

; 66   : {

$LN6:
	sub	rsp, 24

; 67   : 
; 68   : 	// compute filtered output
; 69   : 	float yn = lpf_a0 * xn + lpf_a1 * lpf_xn_1 + lpf_a2 * lpf_xn_2 - lpf_b1 * lpf_yn_1 - lpf_b2 * lpf_yn_2;

	movss	xmm5, DWORD PTR [rcx+36]
	movaps	xmm0, xmm1
	movss	xmm3, DWORD PTR [rcx+44]
	movaps	xmm4, xmm5
	mulss	xmm4, DWORD PTR [rcx+20]
	movaps	xmm2, xmm3
	mulss	xmm0, DWORD PTR [rcx+16]
	mulss	xmm2, DWORD PTR [rcx+28]
	addss	xmm4, xmm0
	movaps	XMMWORD PTR [rsp], xmm6
	movaps	xmm6, xmm1
	movss	xmm1, DWORD PTR [rcx+24]
	mulss	xmm1, DWORD PTR [rcx+40]

; 61   : 	lpf_xn_1 = xn;

	movss	DWORD PTR [rcx+36], xmm6

; 75   : }

	movaps	xmm6, XMMWORD PTR [rsp]
	addss	xmm4, xmm1

; 59   : 	lpf_xn_2 = lpf_xn_1;

	movss	DWORD PTR [rcx+40], xmm5

; 67   : 
; 68   : 	// compute filtered output
; 69   : 	float yn = lpf_a0 * xn + lpf_a1 * lpf_xn_1 + lpf_a2 * lpf_xn_2 - lpf_b1 * lpf_yn_1 - lpf_b2 * lpf_yn_2;

	movss	xmm1, DWORD PTR [rcx+32]
	mulss	xmm1, DWORD PTR [rcx+48]

; 60   : 	lpf_yn_2 = lpf_yn_1;

	movss	DWORD PTR [rcx+48], xmm3

; 67   : 
; 68   : 	// compute filtered output
; 69   : 	float yn = lpf_a0 * xn + lpf_a1 * lpf_xn_1 + lpf_a2 * lpf_xn_2 - lpf_b1 * lpf_yn_1 - lpf_b2 * lpf_yn_2;

	subss	xmm4, xmm2
	subss	xmm4, xmm1

; 62   : 	lpf_yn_1 = yn;

	movss	DWORD PTR [rcx+44], xmm4

; 70   : 
; 71   : 	// update buffers
; 72   : 	updateBuffers(xn, yn);
; 73   : 
; 74   : 	return yn;

	movaps	xmm0, xmm4

; 75   : }

	add	rsp, 24
	ret	0
?processAudio@LPFButterworth@@UEAAMM@Z ENDP		; LPFButterworth::processAudio
_TEXT	ENDS
END
