; Listing generated by Microsoft (R) Optimizing Compiler Version 19.29.30133.0 

include listing.inc

INCLUDELIB OLDNAMES

PUBLIC	??_7PSMVocoder@@6B@				; PSMVocoder::`vftable'
PUBLIC	??_R2IAudioSignalProcessor@@8			; IAudioSignalProcessor::`RTTI Base Class Array'
PUBLIC	??_R0?AVModulation@@@8				; Modulation `RTTI Type Descriptor'
PUBLIC	?INTERVALS_NAMES_STRING@@3PAPEADA		; INTERVALS_NAMES_STRING
PUBLIC	??_R4ModDelay@@6B@				; ModDelay::`RTTI Complete Object Locator'
PUBLIC	??_R2Modulation@@8				; Modulation::`RTTI Base Class Array'
PUBLIC	??_C@_07GLGBIDLM@2nd?5Maj@			; `string'
PUBLIC	??_C@_07GNMKOBCE@3rd?5Min@			; `string'
PUBLIC	??_C@_07HLFHFJI@3rd?5Maj@			; `string'
PUBLIC	??_C@_07DOADDGAH@4th?5Per@			; `string'
PUBLIC	??_C@_07PCKJDGJJ@5th?5Per@			; `string'
PUBLIC	??_C@_07FLEHIOLN@6th?5Maj@			; `string'
PUBLIC	??_C@_07JHONIOCD@7th?5Maj@			; `string'
PUBLIC	??_C@_07JNPNFIPA@1st?5Oct@			; `string'
PUBLIC	??_C@_07EOOPKDLB@1?5Oct?$CL5@			; `string'
PUBLIC	??_C@_07FEMGBGFB@1?$CL2?5Oct@			; `string'
PUBLIC	??_C@_01LKDEMHDF@s@				; `string'
PUBLIC	??_C@_02KLOHGLOJ@Hz@				; `string'
PUBLIC	??_C@_03BHCFKDFC@Mix@				; `string'
PUBLIC	??_C@_04EBKMHHBE@Size@				; `string'
PUBLIC	??_C@_07CNCNAGDO@Shimmer@			; `string'
PUBLIC	??_C@_05BFFNNFFO@Decay@				; `string'
PUBLIC	??_C@_07HJKIPEFI@Damping@			; `string'
PUBLIC	??_C@_05OMHELODH@Space@				; `string'
PUBLIC	??_C@_09ONNCCMEP@Intervals@			; `string'
PUBLIC	??_C@_08MNIOIDHF@Mod?5Rate@			; `string'
PUBLIC	??_C@_09DPAPPDMJ@Mod?5Depth@			; `string'
PUBLIC	??_C@_03MFOGABFF@LPF@				; `string'
PUBLIC	??_C@_03EKIEJGAC@HPF@				; `string'
PUBLIC	??_C@_07MCAEODGB@Default@			; `string'
PUBLIC	??_C@_0L@GEJFJLEL@Small?5Room@			; `string'
PUBLIC	??_C@_04FKEBJNOD@Hall@				; `string'
PUBLIC	??_C@_0BA@JIEKPJGJ@Ambience?5Damped@		; `string'
PUBLIC	??_C@_0BD@CJOOIIIC@Ambience?5Modulated@		; `string'
PUBLIC	??_C@_09KHHOPKD@Fox?5Suite@			; `string'
PUBLIC	??_R0?AVPSMVocoder@@@8				; PSMVocoder `RTTI Type Descriptor'
PUBLIC	??_7Shimmer@@6B@				; Shimmer::`vftable'
PUBLIC	??_R3PSMVocoder@@8				; PSMVocoder::`RTTI Class Hierarchy Descriptor'
PUBLIC	??_R4IAudioSignalProcessor@@6B@			; IAudioSignalProcessor::`RTTI Complete Object Locator'
PUBLIC	??_R1A@?0A@EJ@Delay@@8				; Delay::`RTTI Base Class Descriptor at (0,-1,0,73)'
PUBLIC	??_R3IAudioSignalProcessor@@8			; IAudioSignalProcessor::`RTTI Class Hierarchy Descriptor'
PUBLIC	??_R1A@?0A@EJ@CombFilter@@8			; CombFilter::`RTTI Base Class Descriptor at (0,-1,0,73)'
PUBLIC	??_R1A@?0A@EA@Shimmer@@8			; Shimmer::`RTTI Base Class Descriptor at (0,-1,0,64)'
PUBLIC	??_R1A@?0A@EJ@LPCombFilter@@8			; LPCombFilter::`RTTI Base Class Descriptor at (0,-1,0,73)'
PUBLIC	??_R1A@?0A@EA@ModDelay@@8			; ModDelay::`RTTI Base Class Descriptor at (0,-1,0,64)'
PUBLIC	??_R3Modulation@@8				; Modulation::`RTTI Class Hierarchy Descriptor'
PUBLIC	??_R0?AVModDelay@@@8				; ModDelay `RTTI Type Descriptor'
PUBLIC	??_7IAudioSignalProcessor@@6B@			; IAudioSignalProcessor::`vftable'
PUBLIC	??_R3Shimmer@@8					; Shimmer::`RTTI Class Hierarchy Descriptor'
PUBLIC	??_R1A@?0A@EA@IAudioSignalProcessor@@8		; IAudioSignalProcessor::`RTTI Base Class Descriptor at (0,-1,0,64)'
PUBLIC	??_R4PSMVocoder@@6B@				; PSMVocoder::`RTTI Complete Object Locator'
PUBLIC	??_R3ModDelay@@8				; ModDelay::`RTTI Class Hierarchy Descriptor'
PUBLIC	??_R1A@?0A@EA@PSMVocoder@@8			; PSMVocoder::`RTTI Base Class Descriptor at (0,-1,0,64)'
PUBLIC	??_R4Shimmer@@6B@				; Shimmer::`RTTI Complete Object Locator'
PUBLIC	??_R4Modulation@@6B@				; Modulation::`RTTI Complete Object Locator'
PUBLIC	??_R2Shimmer@@8					; Shimmer::`RTTI Base Class Array'
PUBLIC	??_R0?AVShimmer@@@8				; Shimmer `RTTI Type Descriptor'
PUBLIC	??_7ModDelay@@6B@				; ModDelay::`vftable'
PUBLIC	??_R1A@?0A@EN@ModDelay@@8			; ModDelay::`RTTI Base Class Descriptor at (0,-1,0,77)'
PUBLIC	??_R1A@?0A@EA@Modulation@@8			; Modulation::`RTTI Base Class Descriptor at (0,-1,0,64)'
PUBLIC	??_R0?AVIAudioSignalProcessor@@@8		; IAudioSignalProcessor `RTTI Type Descriptor'
PUBLIC	??_7Modulation@@6B@				; Modulation::`vftable'
PUBLIC	??_R2PSMVocoder@@8				; PSMVocoder::`RTTI Base Class Array'
PUBLIC	??_R2ModDelay@@8				; ModDelay::`RTTI Base Class Array'
EXTRN	__imp_strcpy:PROC
EXTRN	__imp_abs:PROC
EXTRN	__imp_srand:PROC
EXTRN	__imp_malloc:PROC
EXTRN	__imp_round:PROC
EXTRN	__imp_free:PROC
EXTRN	__imp_atan2:PROC
EXTRN	__imp_fabs:PROC
EXTRN	__imp_rand:PROC
;	COMDAT ??_R2ModDelay@@8
rdata$r	SEGMENT
??_R2ModDelay@@8 DD imagerel ??_R1A@?0A@EA@ModDelay@@8	; ModDelay::`RTTI Base Class Array'
	DD	imagerel ??_R1A@?0A@EA@LPCombFilter@@8
	DD	imagerel ??_R1A@?0A@EA@CombFilter@@8
	DD	imagerel ??_R1A@?0A@EA@Delay@@8
	ORG $+3
rdata$r	ENDS
;	COMDAT ??_R2PSMVocoder@@8
rdata$r	SEGMENT
??_R2PSMVocoder@@8 DD imagerel ??_R1A@?0A@EA@PSMVocoder@@8 ; PSMVocoder::`RTTI Base Class Array'
	DD	imagerel ??_R1A@?0A@EA@IAudioSignalProcessor@@8
	ORG $+3
rdata$r	ENDS
;	COMDAT ??_7Modulation@@6B@
CONST	SEGMENT
??_7Modulation@@6B@ DQ FLAT:??_R4Modulation@@6B@	; Modulation::`vftable'
	DQ	FLAT:?init@LPCombFilter@@UEAAXMH@Z
	DQ	FLAT:?setSampleRate@Modulation@@UEAAXH@Z
	DQ	FLAT:?processAudio@Modulation@@UEAAMM@Z
CONST	ENDS
;	COMDAT ??_R0?AVIAudioSignalProcessor@@@8
data$rs	SEGMENT
??_R0?AVIAudioSignalProcessor@@@8 DQ FLAT:??_7type_info@@6B@ ; IAudioSignalProcessor `RTTI Type Descriptor'
	DQ	0000000000000000H
	DB	'.?AVIAudioSignalProcessor@@', 00H
data$rs	ENDS
;	COMDAT ??_R1A@?0A@EA@Modulation@@8
rdata$r	SEGMENT
??_R1A@?0A@EA@Modulation@@8 DD imagerel ??_R0?AVModulation@@@8 ; Modulation::`RTTI Base Class Descriptor at (0,-1,0,64)'
	DD	04H
	DD	00H
	DD	0ffffffffH
	DD	00H
	DD	040H
	DD	imagerel ??_R3Modulation@@8
rdata$r	ENDS
;	COMDAT ??_R1A@?0A@EN@ModDelay@@8
rdata$r	SEGMENT
??_R1A@?0A@EN@ModDelay@@8 DD imagerel ??_R0?AVModDelay@@@8 ; ModDelay::`RTTI Base Class Descriptor at (0,-1,0,77)'
	DD	03H
	DD	00H
	DD	0ffffffffH
	DD	00H
	DD	04dH
	DD	imagerel ??_R3ModDelay@@8
rdata$r	ENDS
;	COMDAT ??_7ModDelay@@6B@
CONST	SEGMENT
??_7ModDelay@@6B@ DQ FLAT:??_R4ModDelay@@6B@		; ModDelay::`vftable'
	DQ	FLAT:?init@LPCombFilter@@UEAAXMH@Z
	DQ	FLAT:?setSampleRate@ModDelay@@UEAAXH@Z
	DQ	FLAT:?processAudio@ModDelay@@UEAAMM@Z
CONST	ENDS
;	COMDAT ??_R0?AVShimmer@@@8
data$rs	SEGMENT
??_R0?AVShimmer@@@8 DQ FLAT:??_7type_info@@6B@		; Shimmer `RTTI Type Descriptor'
	DQ	0000000000000000H
	DB	'.?AVShimmer@@', 00H
data$rs	ENDS
;	COMDAT ??_R2Shimmer@@8
rdata$r	SEGMENT
??_R2Shimmer@@8 DD imagerel ??_R1A@?0A@EA@Shimmer@@8	; Shimmer::`RTTI Base Class Array'
	DD	imagerel ??_R1A@?0A@EA@AudioEffectX@@8
	DD	imagerel ??_R1A@?0A@EA@AudioEffect@@8
	ORG $+3
rdata$r	ENDS
;	COMDAT ??_R4Modulation@@6B@
rdata$r	SEGMENT
??_R4Modulation@@6B@ DD 01H				; Modulation::`RTTI Complete Object Locator'
	DD	00H
	DD	00H
	DD	imagerel ??_R0?AVModulation@@@8
	DD	imagerel ??_R3Modulation@@8
	DD	imagerel ??_R4Modulation@@6B@
rdata$r	ENDS
;	COMDAT ??_R4Shimmer@@6B@
rdata$r	SEGMENT
??_R4Shimmer@@6B@ DD 01H				; Shimmer::`RTTI Complete Object Locator'
	DD	00H
	DD	00H
	DD	imagerel ??_R0?AVShimmer@@@8
	DD	imagerel ??_R3Shimmer@@8
	DD	imagerel ??_R4Shimmer@@6B@
rdata$r	ENDS
;	COMDAT ??_R1A@?0A@EA@PSMVocoder@@8
rdata$r	SEGMENT
??_R1A@?0A@EA@PSMVocoder@@8 DD imagerel ??_R0?AVPSMVocoder@@@8 ; PSMVocoder::`RTTI Base Class Descriptor at (0,-1,0,64)'
	DD	01H
	DD	00H
	DD	0ffffffffH
	DD	00H
	DD	040H
	DD	imagerel ??_R3PSMVocoder@@8
rdata$r	ENDS
;	COMDAT ??_R3ModDelay@@8
rdata$r	SEGMENT
??_R3ModDelay@@8 DD 00H					; ModDelay::`RTTI Class Hierarchy Descriptor'
	DD	00H
	DD	04H
	DD	imagerel ??_R2ModDelay@@8
rdata$r	ENDS
;	COMDAT ??_R4PSMVocoder@@6B@
rdata$r	SEGMENT
??_R4PSMVocoder@@6B@ DD 01H				; PSMVocoder::`RTTI Complete Object Locator'
	DD	00H
	DD	00H
	DD	imagerel ??_R0?AVPSMVocoder@@@8
	DD	imagerel ??_R3PSMVocoder@@8
	DD	imagerel ??_R4PSMVocoder@@6B@
rdata$r	ENDS
;	COMDAT ??_R1A@?0A@EA@IAudioSignalProcessor@@8
rdata$r	SEGMENT
??_R1A@?0A@EA@IAudioSignalProcessor@@8 DD imagerel ??_R0?AVIAudioSignalProcessor@@@8 ; IAudioSignalProcessor::`RTTI Base Class Descriptor at (0,-1,0,64)'
	DD	00H
	DD	00H
	DD	0ffffffffH
	DD	00H
	DD	040H
	DD	imagerel ??_R3IAudioSignalProcessor@@8
rdata$r	ENDS
;	COMDAT ??_R3Shimmer@@8
rdata$r	SEGMENT
??_R3Shimmer@@8 DD 00H					; Shimmer::`RTTI Class Hierarchy Descriptor'
	DD	00H
	DD	03H
	DD	imagerel ??_R2Shimmer@@8
rdata$r	ENDS
;	COMDAT ??_7IAudioSignalProcessor@@6B@
CONST	SEGMENT
??_7IAudioSignalProcessor@@6B@ DQ FLAT:??_R4IAudioSignalProcessor@@6B@ ; IAudioSignalProcessor::`vftable'
	DQ	FLAT:_purecall
	DQ	FLAT:_purecall
	DQ	FLAT:_purecall
	DQ	FLAT:?setSampleRate@IAudioSignalProcessor@@UEAAXN@Z
	DQ	FLAT:?enableAuxInput@IAudioSignalProcessor@@UEAAX_N@Z
	DQ	FLAT:?processAuxInputAudioSample@IAudioSignalProcessor@@UEAANN@Z
	DQ	FLAT:?processAudioFrame@IAudioSignalProcessor@@UEAA_NPEBMPEAMII@Z
CONST	ENDS
;	COMDAT ??_R0?AVModDelay@@@8
data$rs	SEGMENT
??_R0?AVModDelay@@@8 DQ FLAT:??_7type_info@@6B@		; ModDelay `RTTI Type Descriptor'
	DQ	0000000000000000H
	DB	'.?AVModDelay@@', 00H
data$rs	ENDS
;	COMDAT ??_R3Modulation@@8
rdata$r	SEGMENT
??_R3Modulation@@8 DD 00H				; Modulation::`RTTI Class Hierarchy Descriptor'
	DD	00H
	DD	05H
	DD	imagerel ??_R2Modulation@@8
rdata$r	ENDS
;	COMDAT ??_R1A@?0A@EA@ModDelay@@8
rdata$r	SEGMENT
??_R1A@?0A@EA@ModDelay@@8 DD imagerel ??_R0?AVModDelay@@@8 ; ModDelay::`RTTI Base Class Descriptor at (0,-1,0,64)'
	DD	03H
	DD	00H
	DD	0ffffffffH
	DD	00H
	DD	040H
	DD	imagerel ??_R3ModDelay@@8
rdata$r	ENDS
;	COMDAT ??_R1A@?0A@EJ@LPCombFilter@@8
rdata$r	SEGMENT
??_R1A@?0A@EJ@LPCombFilter@@8 DD imagerel ??_R0?AVLPCombFilter@@@8 ; LPCombFilter::`RTTI Base Class Descriptor at (0,-1,0,73)'
	DD	02H
	DD	00H
	DD	0ffffffffH
	DD	00H
	DD	049H
	DD	imagerel ??_R3LPCombFilter@@8
rdata$r	ENDS
;	COMDAT ??_R1A@?0A@EA@Shimmer@@8
rdata$r	SEGMENT
??_R1A@?0A@EA@Shimmer@@8 DD imagerel ??_R0?AVShimmer@@@8 ; Shimmer::`RTTI Base Class Descriptor at (0,-1,0,64)'
	DD	02H
	DD	00H
	DD	0ffffffffH
	DD	00H
	DD	040H
	DD	imagerel ??_R3Shimmer@@8
rdata$r	ENDS
;	COMDAT ??_R1A@?0A@EJ@CombFilter@@8
rdata$r	SEGMENT
??_R1A@?0A@EJ@CombFilter@@8 DD imagerel ??_R0?AVCombFilter@@@8 ; CombFilter::`RTTI Base Class Descriptor at (0,-1,0,73)'
	DD	01H
	DD	00H
	DD	0ffffffffH
	DD	00H
	DD	049H
	DD	imagerel ??_R3CombFilter@@8
rdata$r	ENDS
;	COMDAT ??_R3IAudioSignalProcessor@@8
rdata$r	SEGMENT
??_R3IAudioSignalProcessor@@8 DD 00H			; IAudioSignalProcessor::`RTTI Class Hierarchy Descriptor'
	DD	00H
	DD	01H
	DD	imagerel ??_R2IAudioSignalProcessor@@8
rdata$r	ENDS
;	COMDAT ??_R1A@?0A@EJ@Delay@@8
rdata$r	SEGMENT
??_R1A@?0A@EJ@Delay@@8 DD imagerel ??_R0?AVDelay@@@8	; Delay::`RTTI Base Class Descriptor at (0,-1,0,73)'
	DD	00H
	DD	00H
	DD	0ffffffffH
	DD	00H
	DD	049H
	DD	imagerel ??_R3Delay@@8
rdata$r	ENDS
;	COMDAT ??_R4IAudioSignalProcessor@@6B@
rdata$r	SEGMENT
??_R4IAudioSignalProcessor@@6B@ DD 01H			; IAudioSignalProcessor::`RTTI Complete Object Locator'
	DD	00H
	DD	00H
	DD	imagerel ??_R0?AVIAudioSignalProcessor@@@8
	DD	imagerel ??_R3IAudioSignalProcessor@@8
	DD	imagerel ??_R4IAudioSignalProcessor@@6B@
rdata$r	ENDS
;	COMDAT ??_R3PSMVocoder@@8
rdata$r	SEGMENT
??_R3PSMVocoder@@8 DD 00H				; PSMVocoder::`RTTI Class Hierarchy Descriptor'
	DD	00H
	DD	02H
	DD	imagerel ??_R2PSMVocoder@@8
rdata$r	ENDS
;	COMDAT ??_7Shimmer@@6B@
CONST	SEGMENT
??_7Shimmer@@6B@ DQ FLAT:??_R4Shimmer@@6B@		; Shimmer::`vftable'
	DQ	FLAT:??_EShimmer@@UEAAPEAXI@Z
	DQ	FLAT:?dispatcher@AudioEffectX@@UEAA_JHH_JPEAXM@Z
	DQ	FLAT:?open@AudioEffect@@UEAAXXZ
	DQ	FLAT:?close@AudioEffect@@UEAAXXZ
	DQ	FLAT:?suspend@AudioEffect@@UEAAXXZ
	DQ	FLAT:?resume@AudioEffectX@@UEAAXXZ
	DQ	FLAT:?setSampleRate@Shimmer@@UEAAXM@Z
	DQ	FLAT:?setBlockSize@AudioEffect@@UEAAXH@Z
	DQ	FLAT:?processReplacing@Shimmer@@UEAAXPEAPEAM0H@Z
	DQ	FLAT:?processDoubleReplacing@AudioEffect@@UEAAXPEAPEAN0H@Z
	DQ	FLAT:?setParameter@Shimmer@@UEAAXHM@Z
	DQ	FLAT:?getParameter@Shimmer@@UEAAMH@Z
	DQ	FLAT:?setParameterAutomated@AudioEffect@@UEAAXHM@Z
	DQ	FLAT:?getProgram@AudioEffect@@UEAAHXZ
	DQ	FLAT:?setProgram@Shimmer@@UEAAXH@Z
	DQ	FLAT:?setProgramName@AudioEffect@@UEAAXPEAD@Z
	DQ	FLAT:?getProgramName@Shimmer@@UEAAXPEAD@Z
	DQ	FLAT:?getParameterLabel@Shimmer@@UEAAXHPEAD@Z
	DQ	FLAT:?getParameterDisplay@Shimmer@@UEAAXHPEAD@Z
	DQ	FLAT:?getParameterName@Shimmer@@UEAAXHPEAD@Z
	DQ	FLAT:?getChunk@Shimmer@@UEAAHPEAPEAX_N@Z
	DQ	FLAT:?setChunk@Shimmer@@UEAAHPEAXH_N@Z
	DQ	FLAT:?setUniqueID@AudioEffect@@UEAAXH@Z
	DQ	FLAT:?setNumInputs@AudioEffect@@UEAAXH@Z
	DQ	FLAT:?setNumOutputs@AudioEffect@@UEAAXH@Z
	DQ	FLAT:?canProcessReplacing@AudioEffect@@UEAAX_N@Z
	DQ	FLAT:?canDoubleReplacing@AudioEffect@@UEAAX_N@Z
	DQ	FLAT:?programsAreChunks@AudioEffect@@UEAAX_N@Z
	DQ	FLAT:?setInitialDelay@AudioEffect@@UEAAXH@Z
	DQ	FLAT:?getEditor@AudioEffect@@UEAAPEAVAEffEditor@@XZ
	DQ	FLAT:?getAeffect@AudioEffect@@UEAAPEAUAEffect@@XZ
	DQ	FLAT:?getSampleRate@AudioEffect@@UEAAMXZ
	DQ	FLAT:?getBlockSize@AudioEffect@@UEAAHXZ
	DQ	FLAT:?getMasterVersion@AudioEffect@@UEAAHXZ
	DQ	FLAT:?getCurrentUniqueId@AudioEffect@@UEAAHXZ
	DQ	FLAT:?masterIdle@AudioEffect@@UEAAXXZ
	DQ	FLAT:?dB2string@AudioEffect@@UEAAXMPEADH@Z
	DQ	FLAT:?Hz2string@AudioEffect@@UEAAXMPEADH@Z
	DQ	FLAT:?ms2string@AudioEffect@@UEAAXMPEADH@Z
	DQ	FLAT:?float2string@AudioEffect@@UEAAXMPEADH@Z
	DQ	FLAT:?int2string@AudioEffect@@UEAAXHPEADH@Z
	DQ	FLAT:?__processDeprecated@AudioEffect@@UEAAXPEAPEAM0H@Z
	DQ	FLAT:?__getVuDeprecated@AudioEffect@@UEAAMXZ
	DQ	FLAT:?__hasVuDeprecated@AudioEffect@@UEAAX_N@Z
	DQ	FLAT:?__hasClipDeprecated@AudioEffect@@UEAAX_N@Z
	DQ	FLAT:?__canMonoDeprecated@AudioEffect@@UEAAX_N@Z
	DQ	FLAT:?__setRealtimeQualitiesDeprecated@AudioEffect@@UEAAXH@Z
	DQ	FLAT:?__setOfflineQualitiesDeprecated@AudioEffect@@UEAAXH@Z
	DQ	FLAT:?__isInputConnectedDeprecated@AudioEffect@@UEAA_NH@Z
	DQ	FLAT:?__isOutputConnectedDeprecated@AudioEffect@@UEAA_NH@Z
	DQ	FLAT:?canParameterBeAutomated@AudioEffectX@@UEAA_NH@Z
	DQ	FLAT:?string2parameter@AudioEffectX@@UEAA_NHPEAD@Z
	DQ	FLAT:?getParameterProperties@AudioEffectX@@UEAA_NHPEAUVstParameterProperties@@@Z
	DQ	FLAT:?beginEdit@AudioEffectX@@UEAA_NH@Z
	DQ	FLAT:?endEdit@AudioEffectX@@UEAA_NH@Z
	DQ	FLAT:?getProgramNameIndexed@Shimmer@@UEAA_NHHPEAD@Z
	DQ	FLAT:?beginSetProgram@AudioEffectX@@UEAA_NXZ
	DQ	FLAT:?endSetProgram@AudioEffectX@@UEAA_NXZ
	DQ	FLAT:?beginLoadBank@AudioEffectX@@UEAAHPEAUVstPatchChunkInfo@@@Z
	DQ	FLAT:?beginLoadProgram@AudioEffectX@@UEAAHPEAUVstPatchChunkInfo@@@Z
	DQ	FLAT:?ioChanged@AudioEffectX@@UEAA_NXZ
	DQ	FLAT:?updateSampleRate@AudioEffectX@@UEAANXZ
	DQ	FLAT:?updateBlockSize@AudioEffectX@@UEAAHXZ
	DQ	FLAT:?getInputLatency@AudioEffectX@@UEAAHXZ
	DQ	FLAT:?getOutputLatency@AudioEffectX@@UEAAHXZ
	DQ	FLAT:?getInputProperties@AudioEffectX@@UEAA_NHPEAUVstPinProperties@@@Z
	DQ	FLAT:?getOutputProperties@AudioEffectX@@UEAA_NHPEAUVstPinProperties@@@Z
	DQ	FLAT:?setSpeakerArrangement@AudioEffectX@@UEAA_NPEAUVstSpeakerArrangement@@0@Z
	DQ	FLAT:?getSpeakerArrangement@AudioEffectX@@UEAA_NPEAPEAUVstSpeakerArrangement@@0@Z
	DQ	FLAT:?setBypass@AudioEffectX@@UEAA_N_N@Z
	DQ	FLAT:?setPanLaw@AudioEffectX@@UEAA_NHM@Z
	DQ	FLAT:?setProcessPrecision@AudioEffectX@@UEAA_NH@Z
	DQ	FLAT:?getNumMidiInputChannels@AudioEffectX@@UEAAHXZ
	DQ	FLAT:?getNumMidiOutputChannels@AudioEffectX@@UEAAHXZ
	DQ	FLAT:?getTimeInfo@AudioEffectX@@UEAAPEAUVstTimeInfo@@H@Z
	DQ	FLAT:?getCurrentProcessLevel@AudioEffectX@@UEAAHXZ
	DQ	FLAT:?getAutomationState@AudioEffectX@@UEAAHXZ
	DQ	FLAT:?processEvents@AudioEffectX@@UEAAHPEAUVstEvents@@@Z
	DQ	FLAT:?startProcess@AudioEffectX@@UEAAHXZ
	DQ	FLAT:?stopProcess@AudioEffectX@@UEAAHXZ
	DQ	FLAT:?processVariableIo@AudioEffectX@@UEAA_NPEAUVstVariableIo@@@Z
	DQ	FLAT:?setTotalSampleToProcess@AudioEffectX@@UEAAHH@Z
	DQ	FLAT:?getHostVendorString@AudioEffectX@@UEAA_NPEAD@Z
	DQ	FLAT:?getHostProductString@AudioEffectX@@UEAA_NPEAD@Z
	DQ	FLAT:?getHostVendorVersion@AudioEffectX@@UEAAHXZ
	DQ	FLAT:?hostVendorSpecific@AudioEffectX@@UEAA_JH_JPEAXM@Z
	DQ	FLAT:?canHostDo@AudioEffectX@@UEAAHPEAD@Z
	DQ	FLAT:?getHostLanguage@AudioEffectX@@UEAAHXZ
	DQ	FLAT:?isSynth@AudioEffectX@@UEAAX_N@Z
	DQ	FLAT:?noTail@AudioEffectX@@UEAAX_N@Z
	DQ	FLAT:?getGetTailSize@AudioEffectX@@UEAAHXZ
	DQ	FLAT:?getDirectory@AudioEffectX@@UEAAPEAXXZ
	DQ	FLAT:?getEffectName@Shimmer@@UEAA_NPEAD@Z
	DQ	FLAT:?getVendorString@Shimmer@@UEAA_NPEAD@Z
	DQ	FLAT:?getProductString@AudioEffectX@@UEAA_NPEAD@Z
	DQ	FLAT:?getVendorVersion@AudioEffectX@@UEAAHXZ
	DQ	FLAT:?vendorSpecific@AudioEffectX@@UEAA_JH_JPEAXM@Z
	DQ	FLAT:?canDo@AudioEffectX@@UEAAHPEAD@Z
	DQ	FLAT:?getVstVersion@AudioEffectX@@UEAAHXZ
	DQ	FLAT:?getPlugCategory@AudioEffectX@@UEAA?AW4VstPlugCategory@@XZ
	DQ	FLAT:?getMidiProgramName@AudioEffectX@@UEAAHHPEAUMidiProgramName@@@Z
	DQ	FLAT:?getCurrentMidiProgram@AudioEffectX@@UEAAHHPEAUMidiProgramName@@@Z
	DQ	FLAT:?getMidiProgramCategory@AudioEffectX@@UEAAHHPEAUMidiProgramCategory@@@Z
	DQ	FLAT:?hasMidiProgramsChanged@AudioEffectX@@UEAA_NH@Z
	DQ	FLAT:?getMidiKeyName@AudioEffectX@@UEAA_NHPEAUMidiKeyName@@@Z
	DQ	FLAT:?updateDisplay@AudioEffectX@@UEAA_NXZ
	DQ	FLAT:?sizeWindow@AudioEffectX@@UEAA_NHH@Z
	DQ	FLAT:?openFileSelector@AudioEffectX@@UEAA_NPEAUVstFileSelect@@@Z
	DQ	FLAT:?closeFileSelector@AudioEffectX@@UEAA_NPEAUVstFileSelect@@@Z
	DQ	FLAT:?getNextShellPlugin@AudioEffectX@@UEAAHPEAD@Z
	DQ	FLAT:?allocateArrangement@AudioEffectX@@UEAA_NPEAPEAUVstSpeakerArrangement@@H@Z
	DQ	FLAT:?deallocateArrangement@AudioEffectX@@UEAA_NPEAPEAUVstSpeakerArrangement@@@Z
	DQ	FLAT:?copySpeaker@AudioEffectX@@UEAA_NPEAUVstSpeakerProperties@@0@Z
	DQ	FLAT:?matchArrangement@AudioEffectX@@UEAA_NPEAPEAUVstSpeakerArrangement@@PEAU2@@Z
	DQ	FLAT:?offlineRead@AudioEffectX@@UEAA_NPEAUVstOfflineTask@@W4VstOfflineOption@@_N@Z
	DQ	FLAT:?offlineWrite@AudioEffectX@@UEAA_NPEAUVstOfflineTask@@W4VstOfflineOption@@@Z
	DQ	FLAT:?offlineStart@AudioEffectX@@UEAA_NPEAUVstAudioFile@@HH@Z
	DQ	FLAT:?offlineGetCurrentPass@AudioEffectX@@UEAAHXZ
	DQ	FLAT:?offlineGetCurrentMetaPass@AudioEffectX@@UEAAHXZ
	DQ	FLAT:?offlineNotify@AudioEffectX@@UEAA_NPEAUVstAudioFile@@H_N@Z
	DQ	FLAT:?offlinePrepare@AudioEffectX@@UEAA_NPEAUVstOfflineTask@@H@Z
	DQ	FLAT:?offlineRun@AudioEffectX@@UEAA_NPEAUVstOfflineTask@@H@Z
	DQ	FLAT:?offlineGetNumPasses@AudioEffectX@@UEAAHXZ
	DQ	FLAT:?offlineGetNumMetaPasses@AudioEffectX@@UEAAHXZ
	DQ	FLAT:?__wantEventsDeprecated@AudioEffectX@@UEAAXH@Z
	DQ	FLAT:?__tempoAtDeprecated@AudioEffectX@@UEAAHH@Z
	DQ	FLAT:?__getNumAutomatableParametersDeprecated@AudioEffectX@@UEAAHXZ
	DQ	FLAT:?__getParameterQuantizationDeprecated@AudioEffectX@@UEAAHXZ
	DQ	FLAT:?__getNumCategoriesDeprecated@AudioEffectX@@UEAAHXZ
	DQ	FLAT:?__copyProgramDeprecated@AudioEffectX@@UEAA_NH@Z
	DQ	FLAT:?__needIdleDeprecated@AudioEffectX@@UEAA_NXZ
	DQ	FLAT:?__getPreviousPlugDeprecated@AudioEffectX@@UEAAPEAUAEffect@@H@Z
	DQ	FLAT:?__getNextPlugDeprecated@AudioEffectX@@UEAAPEAUAEffect@@H@Z
	DQ	FLAT:?__inputConnectedDeprecated@AudioEffectX@@UEAAXH_N@Z
	DQ	FLAT:?__outputConnectedDeprecated@AudioEffectX@@UEAAXH_N@Z
	DQ	FLAT:?__willProcessReplacingDeprecated@AudioEffectX@@UEAAHXZ
	DQ	FLAT:?__wantAsyncOperationDeprecated@AudioEffectX@@UEAAX_N@Z
	DQ	FLAT:?__hasExternalBufferDeprecated@AudioEffectX@@UEAAX_N@Z
	DQ	FLAT:?__reportCurrentPositionDeprecated@AudioEffectX@@UEAAHXZ
	DQ	FLAT:?__reportDestinationBufferDeprecated@AudioEffectX@@UEAAPEAMXZ
	DQ	FLAT:?__setOutputSamplerateDeprecated@AudioEffectX@@UEAAXM@Z
	DQ	FLAT:?__getInputSpeakerArrangementDeprecated@AudioEffectX@@UEAAPEAUVstSpeakerArrangement@@XZ
	DQ	FLAT:?__getOutputSpeakerArrangementDeprecated@AudioEffectX@@UEAAPEAUVstSpeakerArrangement@@XZ
	DQ	FLAT:?__openWindowDeprecated@AudioEffectX@@UEAAPEAXPEAU__VstWindowDeprecated@@@Z
	DQ	FLAT:?__closeWindowDeprecated@AudioEffectX@@UEAA_NPEAU__VstWindowDeprecated@@@Z
	DQ	FLAT:?__setBlockSizeAndSampleRateDeprecated@AudioEffectX@@UEAAXHM@Z
	DQ	FLAT:?__getErrorTextDeprecated@AudioEffectX@@UEAA_NPEAD@Z
	DQ	FLAT:?__getIconDeprecated@AudioEffectX@@UEAAPEAXXZ
	DQ	FLAT:?__setViewPositionDeprecated@AudioEffectX@@UEAA_NHH@Z
	DQ	FLAT:?__fxIdleDeprecated@AudioEffectX@@UEAAHXZ
	DQ	FLAT:?__keysRequiredDeprecated@AudioEffectX@@UEAA_NXZ
	DQ	FLAT:?__getChunkFileDeprecated@AudioEffectX@@UEAA_NPEAX@Z
CONST	ENDS
;	COMDAT ??_R0?AVPSMVocoder@@@8
data$rs	SEGMENT
??_R0?AVPSMVocoder@@@8 DQ FLAT:??_7type_info@@6B@	; PSMVocoder `RTTI Type Descriptor'
	DQ	0000000000000000H
	DB	'.?AVPSMVocoder@@', 00H
data$rs	ENDS
;	COMDAT ??_C@_09KHHOPKD@Fox?5Suite@
CONST	SEGMENT
??_C@_09KHHOPKD@Fox?5Suite@ DB 'Fox Suite', 00H		; `string'
CONST	ENDS
;	COMDAT ??_C@_0BD@CJOOIIIC@Ambience?5Modulated@
CONST	SEGMENT
??_C@_0BD@CJOOIIIC@Ambience?5Modulated@ DB 'Ambience Modulated', 00H ; `string'
CONST	ENDS
;	COMDAT ??_C@_0BA@JIEKPJGJ@Ambience?5Damped@
CONST	SEGMENT
??_C@_0BA@JIEKPJGJ@Ambience?5Damped@ DB 'Ambience Damped', 00H ; `string'
CONST	ENDS
;	COMDAT ??_C@_04FKEBJNOD@Hall@
CONST	SEGMENT
??_C@_04FKEBJNOD@Hall@ DB 'Hall', 00H			; `string'
CONST	ENDS
;	COMDAT ??_C@_0L@GEJFJLEL@Small?5Room@
CONST	SEGMENT
??_C@_0L@GEJFJLEL@Small?5Room@ DB 'Small Room', 00H	; `string'
CONST	ENDS
;	COMDAT ??_C@_07MCAEODGB@Default@
CONST	SEGMENT
??_C@_07MCAEODGB@Default@ DB 'Default', 00H		; `string'
CONST	ENDS
;	COMDAT ??_C@_03EKIEJGAC@HPF@
CONST	SEGMENT
??_C@_03EKIEJGAC@HPF@ DB 'HPF', 00H			; `string'
CONST	ENDS
;	COMDAT ??_C@_03MFOGABFF@LPF@
CONST	SEGMENT
??_C@_03MFOGABFF@LPF@ DB 'LPF', 00H			; `string'
CONST	ENDS
;	COMDAT ??_C@_09DPAPPDMJ@Mod?5Depth@
CONST	SEGMENT
??_C@_09DPAPPDMJ@Mod?5Depth@ DB 'Mod Depth', 00H	; `string'
CONST	ENDS
;	COMDAT ??_C@_08MNIOIDHF@Mod?5Rate@
CONST	SEGMENT
??_C@_08MNIOIDHF@Mod?5Rate@ DB 'Mod Rate', 00H		; `string'
CONST	ENDS
;	COMDAT ??_C@_09ONNCCMEP@Intervals@
CONST	SEGMENT
??_C@_09ONNCCMEP@Intervals@ DB 'Intervals', 00H		; `string'
CONST	ENDS
;	COMDAT ??_C@_05OMHELODH@Space@
CONST	SEGMENT
??_C@_05OMHELODH@Space@ DB 'Space', 00H			; `string'
CONST	ENDS
;	COMDAT ??_C@_07HJKIPEFI@Damping@
CONST	SEGMENT
??_C@_07HJKIPEFI@Damping@ DB 'Damping', 00H		; `string'
CONST	ENDS
;	COMDAT ??_C@_05BFFNNFFO@Decay@
CONST	SEGMENT
??_C@_05BFFNNFFO@Decay@ DB 'Decay', 00H			; `string'
CONST	ENDS
;	COMDAT ??_C@_07CNCNAGDO@Shimmer@
CONST	SEGMENT
??_C@_07CNCNAGDO@Shimmer@ DB 'Shimmer', 00H		; `string'
CONST	ENDS
;	COMDAT ??_C@_04EBKMHHBE@Size@
CONST	SEGMENT
??_C@_04EBKMHHBE@Size@ DB 'Size', 00H			; `string'
CONST	ENDS
;	COMDAT ??_C@_03BHCFKDFC@Mix@
CONST	SEGMENT
??_C@_03BHCFKDFC@Mix@ DB 'Mix', 00H			; `string'
CONST	ENDS
;	COMDAT ??_C@_02KLOHGLOJ@Hz@
CONST	SEGMENT
??_C@_02KLOHGLOJ@Hz@ DB 'Hz', 00H			; `string'
CONST	ENDS
;	COMDAT ??_C@_01LKDEMHDF@s@
CONST	SEGMENT
??_C@_01LKDEMHDF@s@ DB 's', 00H				; `string'
CONST	ENDS
;	COMDAT ??_C@_07FEMGBGFB@1?$CL2?5Oct@
CONST	SEGMENT
??_C@_07FEMGBGFB@1?$CL2?5Oct@ DB '1+2 Oct', 00H		; `string'
CONST	ENDS
;	COMDAT ??_C@_07EOOPKDLB@1?5Oct?$CL5@
CONST	SEGMENT
??_C@_07EOOPKDLB@1?5Oct?$CL5@ DB '1 Oct+5', 00H		; `string'
CONST	ENDS
;	COMDAT ??_C@_07JNPNFIPA@1st?5Oct@
CONST	SEGMENT
??_C@_07JNPNFIPA@1st?5Oct@ DB '1st Oct', 00H		; `string'
CONST	ENDS
;	COMDAT ??_C@_07JHONIOCD@7th?5Maj@
CONST	SEGMENT
??_C@_07JHONIOCD@7th?5Maj@ DB '7th Maj', 00H		; `string'
CONST	ENDS
;	COMDAT ??_C@_07FLEHIOLN@6th?5Maj@
CONST	SEGMENT
??_C@_07FLEHIOLN@6th?5Maj@ DB '6th Maj', 00H		; `string'
CONST	ENDS
;	COMDAT ??_C@_07PCKJDGJJ@5th?5Per@
CONST	SEGMENT
??_C@_07PCKJDGJJ@5th?5Per@ DB '5th Per', 00H		; `string'
CONST	ENDS
;	COMDAT ??_C@_07DOADDGAH@4th?5Per@
CONST	SEGMENT
??_C@_07DOADDGAH@4th?5Per@ DB '4th Per', 00H		; `string'
CONST	ENDS
;	COMDAT ??_C@_07HLFHFJI@3rd?5Maj@
CONST	SEGMENT
??_C@_07HLFHFJI@3rd?5Maj@ DB '3rd Maj', 00H		; `string'
CONST	ENDS
;	COMDAT ??_C@_07GNMKOBCE@3rd?5Min@
CONST	SEGMENT
??_C@_07GNMKOBCE@3rd?5Min@ DB '3rd Min', 00H		; `string'
CONST	ENDS
;	COMDAT ??_C@_07GLGBIDLM@2nd?5Maj@
CONST	SEGMENT
??_C@_07GLGBIDLM@2nd?5Maj@ DB '2nd Maj', 00H		; `string'
CONST	ENDS
;	COMDAT ??_R2Modulation@@8
rdata$r	SEGMENT
??_R2Modulation@@8 DD imagerel ??_R1A@?0A@EA@Modulation@@8 ; Modulation::`RTTI Base Class Array'
	DD	imagerel ??_R1A@?0A@EN@ModDelay@@8
	DD	imagerel ??_R1A@?0A@EJ@LPCombFilter@@8
	DD	imagerel ??_R1A@?0A@EJ@CombFilter@@8
	DD	imagerel ??_R1A@?0A@EJ@Delay@@8
	ORG $+3
rdata$r	ENDS
;	COMDAT ??_R4ModDelay@@6B@
rdata$r	SEGMENT
??_R4ModDelay@@6B@ DD 01H				; ModDelay::`RTTI Complete Object Locator'
	DD	00H
	DD	00H
	DD	imagerel ??_R0?AVModDelay@@@8
	DD	imagerel ??_R3ModDelay@@8
	DD	imagerel ??_R4ModDelay@@6B@
rdata$r	ENDS
;	COMDAT ??_R0?AVModulation@@@8
data$rs	SEGMENT
??_R0?AVModulation@@@8 DQ FLAT:??_7type_info@@6B@	; Modulation `RTTI Type Descriptor'
	DQ	0000000000000000H
	DB	'.?AVModulation@@', 00H
data$rs	ENDS
;	COMDAT ??_R2IAudioSignalProcessor@@8
rdata$r	SEGMENT
??_R2IAudioSignalProcessor@@8 DD imagerel ??_R1A@?0A@EA@IAudioSignalProcessor@@8 ; IAudioSignalProcessor::`RTTI Base Class Array'
	ORG $+3
rdata$r	ENDS
;	COMDAT ??_7PSMVocoder@@6B@
CONST	SEGMENT
??_7PSMVocoder@@6B@ DQ FLAT:??_R4PSMVocoder@@6B@	; PSMVocoder::`vftable'
	DQ	FLAT:?reset@PSMVocoder@@UEAA_NN@Z
	DQ	FLAT:?processAudioSample@PSMVocoder@@UEAANN@Z
	DQ	FLAT:?canProcessAudioFrame@PSMVocoder@@UEAA_NXZ
	DQ	FLAT:?setSampleRate@IAudioSignalProcessor@@UEAAXN@Z
	DQ	FLAT:?enableAuxInput@IAudioSignalProcessor@@UEAAX_N@Z
	DQ	FLAT:?processAuxInputAudioSample@IAudioSignalProcessor@@UEAANN@Z
	DQ	FLAT:?processAudioFrame@IAudioSignalProcessor@@UEAA_NPEBMPEAMII@Z
?_Fake_alloc@std@@3U_Fake_allocator@1@B	ORG $+1		; std::_Fake_alloc
	ORG $+4
?INTERVALS_IN_SEMITONES_PITCH2@@3QBMB DD 000000000r ; 0	; INTERVALS_IN_SEMITONES_PITCH2
	DD	000000000r			; 0
	DD	000000000r			; 0
	DD	000000000r			; 0
	DD	000000000r			; 0
	DD	000000000r			; 0
	DD	000000000r			; 0
	DD	000000000r			; 0
	DD	041980000r			; 19
	DD	041c00000r			; 24
?INTERVALS_NAMES_STRING@@3PAPEADA DQ FLAT:??_C@_07GLGBIDLM@2nd?5Maj@ ; INTERVALS_NAMES_STRING
	DQ	FLAT:??_C@_07GNMKOBCE@3rd?5Min@
	DQ	FLAT:??_C@_07HLFHFJI@3rd?5Maj@
	DQ	FLAT:??_C@_07DOADDGAH@4th?5Per@
	DQ	FLAT:??_C@_07PCKJDGJJ@5th?5Per@
	DQ	FLAT:??_C@_07FLEHIOLN@6th?5Maj@
	DQ	FLAT:??_C@_07JHONIOCD@7th?5Maj@
	DQ	FLAT:??_C@_07JNPNFIPA@1st?5Oct@
	DQ	FLAT:??_C@_07EOOPKDLB@1?5Oct?$CL5@
	DQ	FLAT:??_C@_07FEMGBGFB@1?$CL2?5Oct@
?INTERVALS_IN_SEMITONES_PITCH1@@3QBMB DD 040000000r ; 2	; INTERVALS_IN_SEMITONES_PITCH1
	DD	040400000r			; 3
	DD	040800000r			; 4
	DD	040a00000r			; 5
	DD	040e00000r			; 7
	DD	041100000r			; 9
	DD	041300000r			; 11
	DD	041400000r			; 12
	DD	041400000r			; 12
	DD	041400000r			; 12
PUBLIC	??$construct@M$$V@?$_Default_allocator_traits@V?$allocator@M@std@@@std@@SAXAEAV?$allocator@M@1@QEAM@Z ; std::_Default_allocator_traits<std::allocator<float> >::construct<float>
PUBLIC	??$_Emplace_back@$$V@?$_Uninitialized_backout_al@V?$allocator@M@std@@@std@@QEAAXXZ ; std::_Uninitialized_backout_al<std::allocator<float> >::_Emplace_back<>
PUBLIC	??$_Zero_range@PEAM@std@@YAPEAMQEAM0@Z		; std::_Zero_range<float *>
PUBLIC	??$_Emplace_back@PEAVDelay@@@?$_Uninitialized_backout_al@V?$allocator@PEAVDelay@@@std@@@std@@QEAAX$$QEAPEAVDelay@@@Z ; std::_Uninitialized_backout_al<std::allocator<Delay *> >::_Emplace_back<Delay *>
PUBLIC	??$_To_address@PEAPEAVDelay@@@std@@YA?A_PAEBQEAPEAVDelay@@@Z ; std::_To_address<Delay * *>
PUBLIC	??$_Copy_memmove@PEAPEAVDelay@@PEAPEAV1@@std@@YAPEAPEAVDelay@@PEAPEAV1@00@Z ; std::_Copy_memmove<Delay * *,Delay * *>
PUBLIC	??$_Emplace_back@H@?$_Uninitialized_backout_al@V?$allocator@H@std@@@std@@QEAAX$$QEAH@Z ; std::_Uninitialized_backout_al<std::allocator<int> >::_Emplace_back<int>
PUBLIC	??$_To_address@PEAH@std@@YA?A_PAEBQEAH@Z	; std::_To_address<int *>
PUBLIC	??$_Copy_memmove@PEAHPEAH@std@@YAPEAHPEAH00@Z	; std::_Copy_memmove<int *,int *>
PUBLIC	??$_Emplace_back@PEAVModDelay@@@?$_Uninitialized_backout_al@V?$allocator@PEAVModDelay@@@std@@@std@@QEAAX$$QEAPEAVModDelay@@@Z ; std::_Uninitialized_backout_al<std::allocator<ModDelay *> >::_Emplace_back<ModDelay *>
PUBLIC	??$_To_address@PEAPEAVModDelay@@@std@@YA?A_PAEBQEAPEAVModDelay@@@Z ; std::_To_address<ModDelay * *>
PUBLIC	??$_Copy_memmove@PEAPEAVModDelay@@PEAPEAV1@@std@@YAPEAPEAVModDelay@@PEAPEAV1@00@Z ; std::_Copy_memmove<ModDelay * *,ModDelay * *>
PUBLIC	??$_Emplace_back@PEAVMultiChannelDiffuser@@@?$_Uninitialized_backout_al@V?$allocator@PEAVMultiChannelDiffuser@@@std@@@std@@QEAAX$$QEAPEAVMultiChannelDiffuser@@@Z ; std::_Uninitialized_backout_al<std::allocator<MultiChannelDiffuser *> >::_Emplace_back<MultiChannelDiffuser *>
PUBLIC	??$_To_address@PEAPEAVMultiChannelDiffuser@@@std@@YA?A_PAEBQEAPEAVMultiChannelDiffuser@@@Z ; std::_To_address<MultiChannelDiffuser * *>
PUBLIC	??$_Copy_memmove@PEAPEAVMultiChannelDiffuser@@PEAPEAV1@@std@@YAPEAPEAVMultiChannelDiffuser@@PEAPEAV1@00@Z ; std::_Copy_memmove<MultiChannelDiffuser * *,MultiChannelDiffuser * *>
PUBLIC	??$_Emplace_back@PEAVModMultiChannelDiffuser@@@?$_Uninitialized_backout_al@V?$allocator@PEAVModMultiChannelDiffuser@@@std@@@std@@QEAAX$$QEAPEAVModMultiChannelDiffuser@@@Z ; std::_Uninitialized_backout_al<std::allocator<ModMultiChannelDiffuser *> >::_Emplace_back<ModMultiChannelDiffuser *>
PUBLIC	??$_To_address@PEAPEAVModMultiChannelDiffuser@@@std@@YA?A_PAEBQEAPEAVModMultiChannelDiffuser@@@Z ; std::_To_address<ModMultiChannelDiffuser * *>
PUBLIC	??$_Copy_memmove@PEAPEAVModMultiChannelDiffuser@@PEAPEAV1@@std@@YAPEAPEAVModMultiChannelDiffuser@@PEAPEAV1@00@Z ; std::_Copy_memmove<ModMultiChannelDiffuser * *,ModMultiChannelDiffuser * *>
PUBLIC	??$_Emplace_back@PEAVLowPassFilter@@@?$_Uninitialized_backout_al@V?$allocator@PEAVLowPassFilter@@@std@@@std@@QEAAX$$QEAPEAVLowPassFilter@@@Z ; std::_Uninitialized_backout_al<std::allocator<LowPassFilter *> >::_Emplace_back<LowPassFilter *>
PUBLIC	??$_To_address@PEAPEAVLowPassFilter@@@std@@YA?A_PAEBQEAPEAVLowPassFilter@@@Z ; std::_To_address<LowPassFilter * *>
PUBLIC	??$_Copy_memmove@PEAPEAVLowPassFilter@@PEAPEAV1@@std@@YAPEAPEAVLowPassFilter@@PEAPEAV1@00@Z ; std::_Copy_memmove<LowPassFilter * *,LowPassFilter * *>
PUBLIC	??$_Emplace_back@PEAVModulation@@@?$_Uninitialized_backout_al@V?$allocator@PEAVModulation@@@std@@@std@@QEAAX$$QEAPEAVModulation@@@Z ; std::_Uninitialized_backout_al<std::allocator<Modulation *> >::_Emplace_back<Modulation *>
PUBLIC	??$_To_address@PEAPEAVModulation@@@std@@YA?A_PAEBQEAPEAVModulation@@@Z ; std::_To_address<Modulation * *>
PUBLIC	??$_Copy_memmove@PEAPEAVModulation@@PEAPEAV1@@std@@YAPEAPEAVModulation@@PEAPEAV1@00@Z ; std::_Copy_memmove<Modulation * *,Modulation * *>
PUBLIC	??$_Emplace_back@PEAVHighPassFilter@@@?$_Uninitialized_backout_al@V?$allocator@PEAVHighPassFilter@@@std@@@std@@QEAAX$$QEAPEAVHighPassFilter@@@Z ; std::_Uninitialized_backout_al<std::allocator<HighPassFilter *> >::_Emplace_back<HighPassFilter *>
PUBLIC	??$_To_address@PEAPEAVHighPassFilter@@@std@@YA?A_PAEBQEAPEAVHighPassFilter@@@Z ; std::_To_address<HighPassFilter * *>
PUBLIC	??$_Copy_memmove@PEAPEAVHighPassFilter@@PEAPEAV1@@std@@YAPEAPEAVHighPassFilter@@PEAPEAV1@00@Z ; std::_Copy_memmove<HighPassFilter * *,HighPassFilter * *>
PUBLIC	??0?$_Uninitialized_backout_al@V?$allocator@PEAVHighPassFilter@@@std@@@std@@QEAA@PEAPEAVHighPassFilter@@AEAV?$allocator@PEAVHighPassFilter@@@1@@Z ; std::_Uninitialized_backout_al<std::allocator<HighPassFilter *> >::_Uninitialized_backout_al<std::allocator<HighPassFilter *> >
PUBLIC	??1?$_Uninitialized_backout_al@V?$allocator@PEAVHighPassFilter@@@std@@@std@@QEAA@XZ ; std::_Uninitialized_backout_al<std::allocator<HighPassFilter *> >::~_Uninitialized_backout_al<std::allocator<HighPassFilter *> >
PUBLIC	?_Release@?$_Uninitialized_backout_al@V?$allocator@PEAVHighPassFilter@@@std@@@std@@QEAAPEAPEAVHighPassFilter@@XZ ; std::_Uninitialized_backout_al<std::allocator<HighPassFilter *> >::_Release
PUBLIC	??0?$_Uninitialized_backout_al@V?$allocator@PEAVModulation@@@std@@@std@@QEAA@PEAPEAVModulation@@AEAV?$allocator@PEAVModulation@@@1@@Z ; std::_Uninitialized_backout_al<std::allocator<Modulation *> >::_Uninitialized_backout_al<std::allocator<Modulation *> >
PUBLIC	??1?$_Uninitialized_backout_al@V?$allocator@PEAVModulation@@@std@@@std@@QEAA@XZ ; std::_Uninitialized_backout_al<std::allocator<Modulation *> >::~_Uninitialized_backout_al<std::allocator<Modulation *> >
PUBLIC	?_Release@?$_Uninitialized_backout_al@V?$allocator@PEAVModulation@@@std@@@std@@QEAAPEAPEAVModulation@@XZ ; std::_Uninitialized_backout_al<std::allocator<Modulation *> >::_Release
PUBLIC	??0?$_Uninitialized_backout_al@V?$allocator@PEAVLowPassFilter@@@std@@@std@@QEAA@PEAPEAVLowPassFilter@@AEAV?$allocator@PEAVLowPassFilter@@@1@@Z ; std::_Uninitialized_backout_al<std::allocator<LowPassFilter *> >::_Uninitialized_backout_al<std::allocator<LowPassFilter *> >
PUBLIC	??1?$_Uninitialized_backout_al@V?$allocator@PEAVLowPassFilter@@@std@@@std@@QEAA@XZ ; std::_Uninitialized_backout_al<std::allocator<LowPassFilter *> >::~_Uninitialized_backout_al<std::allocator<LowPassFilter *> >
PUBLIC	?_Release@?$_Uninitialized_backout_al@V?$allocator@PEAVLowPassFilter@@@std@@@std@@QEAAPEAPEAVLowPassFilter@@XZ ; std::_Uninitialized_backout_al<std::allocator<LowPassFilter *> >::_Release
PUBLIC	??0?$_Uninitialized_backout_al@V?$allocator@PEAVModMultiChannelDiffuser@@@std@@@std@@QEAA@PEAPEAVModMultiChannelDiffuser@@AEAV?$allocator@PEAVModMultiChannelDiffuser@@@1@@Z ; std::_Uninitialized_backout_al<std::allocator<ModMultiChannelDiffuser *> >::_Uninitialized_backout_al<std::allocator<ModMultiChannelDiffuser *> >
PUBLIC	??1?$_Uninitialized_backout_al@V?$allocator@PEAVModMultiChannelDiffuser@@@std@@@std@@QEAA@XZ ; std::_Uninitialized_backout_al<std::allocator<ModMultiChannelDiffuser *> >::~_Uninitialized_backout_al<std::allocator<ModMultiChannelDiffuser *> >
PUBLIC	?_Release@?$_Uninitialized_backout_al@V?$allocator@PEAVModMultiChannelDiffuser@@@std@@@std@@QEAAPEAPEAVModMultiChannelDiffuser@@XZ ; std::_Uninitialized_backout_al<std::allocator<ModMultiChannelDiffuser *> >::_Release
PUBLIC	??0?$_Uninitialized_backout_al@V?$allocator@PEAVMultiChannelDiffuser@@@std@@@std@@QEAA@PEAPEAVMultiChannelDiffuser@@AEAV?$allocator@PEAVMultiChannelDiffuser@@@1@@Z ; std::_Uninitialized_backout_al<std::allocator<MultiChannelDiffuser *> >::_Uninitialized_backout_al<std::allocator<MultiChannelDiffuser *> >
PUBLIC	??1?$_Uninitialized_backout_al@V?$allocator@PEAVMultiChannelDiffuser@@@std@@@std@@QEAA@XZ ; std::_Uninitialized_backout_al<std::allocator<MultiChannelDiffuser *> >::~_Uninitialized_backout_al<std::allocator<MultiChannelDiffuser *> >
PUBLIC	?_Release@?$_Uninitialized_backout_al@V?$allocator@PEAVMultiChannelDiffuser@@@std@@@std@@QEAAPEAPEAVMultiChannelDiffuser@@XZ ; std::_Uninitialized_backout_al<std::allocator<MultiChannelDiffuser *> >::_Release
PUBLIC	??0?$_Uninitialized_backout_al@V?$allocator@PEAVModDelay@@@std@@@std@@QEAA@PEAPEAVModDelay@@AEAV?$allocator@PEAVModDelay@@@1@@Z ; std::_Uninitialized_backout_al<std::allocator<ModDelay *> >::_Uninitialized_backout_al<std::allocator<ModDelay *> >
PUBLIC	??1?$_Uninitialized_backout_al@V?$allocator@PEAVModDelay@@@std@@@std@@QEAA@XZ ; std::_Uninitialized_backout_al<std::allocator<ModDelay *> >::~_Uninitialized_backout_al<std::allocator<ModDelay *> >
PUBLIC	?_Release@?$_Uninitialized_backout_al@V?$allocator@PEAVModDelay@@@std@@@std@@QEAAPEAPEAVModDelay@@XZ ; std::_Uninitialized_backout_al<std::allocator<ModDelay *> >::_Release
PUBLIC	??0?$_Uninitialized_backout_al@V?$allocator@H@std@@@std@@QEAA@PEAHAEAV?$allocator@H@1@@Z ; std::_Uninitialized_backout_al<std::allocator<int> >::_Uninitialized_backout_al<std::allocator<int> >
PUBLIC	??1?$_Uninitialized_backout_al@V?$allocator@H@std@@@std@@QEAA@XZ ; std::_Uninitialized_backout_al<std::allocator<int> >::~_Uninitialized_backout_al<std::allocator<int> >
PUBLIC	?_Release@?$_Uninitialized_backout_al@V?$allocator@H@std@@@std@@QEAAPEAHXZ ; std::_Uninitialized_backout_al<std::allocator<int> >::_Release
PUBLIC	??0?$_Uninitialized_backout_al@V?$allocator@PEAVDelay@@@std@@@std@@QEAA@PEAPEAVDelay@@AEAV?$allocator@PEAVDelay@@@1@@Z ; std::_Uninitialized_backout_al<std::allocator<Delay *> >::_Uninitialized_backout_al<std::allocator<Delay *> >
PUBLIC	??1?$_Uninitialized_backout_al@V?$allocator@PEAVDelay@@@std@@@std@@QEAA@XZ ; std::_Uninitialized_backout_al<std::allocator<Delay *> >::~_Uninitialized_backout_al<std::allocator<Delay *> >
PUBLIC	?_Release@?$_Uninitialized_backout_al@V?$allocator@PEAVDelay@@@std@@@std@@QEAAPEAPEAVDelay@@XZ ; std::_Uninitialized_backout_al<std::allocator<Delay *> >::_Release
PUBLIC	??$_Uninitialized_value_construct_n@V?$allocator@M@std@@@std@@YAPEAMPEAM_KAEAV?$allocator@M@0@@Z ; std::_Uninitialized_value_construct_n<std::allocator<float> >
PUBLIC	??$_Get_unwrapped@AEBQEAPEAVDelay@@@std@@YA?A_TAEBQEAPEAVDelay@@@Z ; std::_Get_unwrapped<Delay * * const &>
PUBLIC	??$_Uninitialized_move@PEAPEAVDelay@@V?$allocator@PEAVDelay@@@std@@@std@@YAPEAPEAVDelay@@QEAPEAV1@0PEAPEAV1@AEAV?$allocator@PEAVDelay@@@0@@Z ; std::_Uninitialized_move<Delay * *,std::allocator<Delay *> >
PUBLIC	??$_Get_unwrapped@AEBQEAH@std@@YA?A_TAEBQEAH@Z	; std::_Get_unwrapped<int * const &>
PUBLIC	??$_Uninitialized_move@PEAHV?$allocator@H@std@@@std@@YAPEAHQEAH0PEAHAEAV?$allocator@H@0@@Z ; std::_Uninitialized_move<int *,std::allocator<int> >
PUBLIC	??$_Get_unwrapped@AEBQEAPEAVModDelay@@@std@@YA?A_TAEBQEAPEAVModDelay@@@Z ; std::_Get_unwrapped<ModDelay * * const &>
PUBLIC	??$_Uninitialized_move@PEAPEAVModDelay@@V?$allocator@PEAVModDelay@@@std@@@std@@YAPEAPEAVModDelay@@QEAPEAV1@0PEAPEAV1@AEAV?$allocator@PEAVModDelay@@@0@@Z ; std::_Uninitialized_move<ModDelay * *,std::allocator<ModDelay *> >
PUBLIC	??$_Get_unwrapped@AEBQEAPEAVMultiChannelDiffuser@@@std@@YA?A_TAEBQEAPEAVMultiChannelDiffuser@@@Z ; std::_Get_unwrapped<MultiChannelDiffuser * * const &>
PUBLIC	??$_Uninitialized_move@PEAPEAVMultiChannelDiffuser@@V?$allocator@PEAVMultiChannelDiffuser@@@std@@@std@@YAPEAPEAVMultiChannelDiffuser@@QEAPEAV1@0PEAPEAV1@AEAV?$allocator@PEAVMultiChannelDiffuser@@@0@@Z ; std::_Uninitialized_move<MultiChannelDiffuser * *,std::allocator<MultiChannelDiffuser *> >
PUBLIC	??$_Get_unwrapped@AEBQEAPEAVModMultiChannelDiffuser@@@std@@YA?A_TAEBQEAPEAVModMultiChannelDiffuser@@@Z ; std::_Get_unwrapped<ModMultiChannelDiffuser * * const &>
PUBLIC	??$_Uninitialized_move@PEAPEAVModMultiChannelDiffuser@@V?$allocator@PEAVModMultiChannelDiffuser@@@std@@@std@@YAPEAPEAVModMultiChannelDiffuser@@QEAPEAV1@0PEAPEAV1@AEAV?$allocator@PEAVModMultiChannelDiffuser@@@0@@Z ; std::_Uninitialized_move<ModMultiChannelDiffuser * *,std::allocator<ModMultiChannelDiffuser *> >
PUBLIC	??$_Get_unwrapped@AEBQEAPEAVLowPassFilter@@@std@@YA?A_TAEBQEAPEAVLowPassFilter@@@Z ; std::_Get_unwrapped<LowPassFilter * * const &>
PUBLIC	??$_Uninitialized_move@PEAPEAVLowPassFilter@@V?$allocator@PEAVLowPassFilter@@@std@@@std@@YAPEAPEAVLowPassFilter@@QEAPEAV1@0PEAPEAV1@AEAV?$allocator@PEAVLowPassFilter@@@0@@Z ; std::_Uninitialized_move<LowPassFilter * *,std::allocator<LowPassFilter *> >
PUBLIC	??$_Get_unwrapped@AEBQEAPEAVModulation@@@std@@YA?A_TAEBQEAPEAVModulation@@@Z ; std::_Get_unwrapped<Modulation * * const &>
PUBLIC	??$_Uninitialized_move@PEAPEAVModulation@@V?$allocator@PEAVModulation@@@std@@@std@@YAPEAPEAVModulation@@QEAPEAV1@0PEAPEAV1@AEAV?$allocator@PEAVModulation@@@0@@Z ; std::_Uninitialized_move<Modulation * *,std::allocator<Modulation *> >
PUBLIC	??$_Get_size_of_n@$07@std@@YA_K_K@Z		; std::_Get_size_of_n<8>
PUBLIC	??$_Get_unwrapped@AEBQEAPEAVHighPassFilter@@@std@@YA?A_TAEBQEAPEAVHighPassFilter@@@Z ; std::_Get_unwrapped<HighPassFilter * * const &>
PUBLIC	??$_Uninitialized_move@PEAPEAVHighPassFilter@@V?$allocator@PEAVHighPassFilter@@@std@@@std@@YAPEAPEAVHighPassFilter@@QEAPEAV1@0PEAPEAV1@AEAV?$allocator@PEAVHighPassFilter@@@0@@Z ; std::_Uninitialized_move<HighPassFilter * *,std::allocator<HighPassFilter *> >
PUBLIC	??$forward@AEBV?$allocator@M@std@@@std@@YAAEBV?$allocator@M@0@AEBV10@@Z ; std::forward<std::allocator<float> const &>
PUBLIC	??$forward@PEAM@std@@YA$$QEAPEAMAEAPEAM@Z	; std::forward<float *>
PUBLIC	??$forward@V?$allocator@M@std@@@std@@YA$$QEAV?$allocator@M@0@AEAV10@@Z ; std::forward<std::allocator<float> >
PUBLIC	??$_Voidify_iter@PEAPEAVDelay@@@std@@YAPEAXPEAPEAVDelay@@@Z ; std::_Voidify_iter<Delay * *>
PUBLIC	??$_Voidify_iter@PEAH@std@@YAPEAXPEAH@Z		; std::_Voidify_iter<int *>
PUBLIC	??$_Voidify_iter@PEAPEAVModDelay@@@std@@YAPEAXPEAPEAVModDelay@@@Z ; std::_Voidify_iter<ModDelay * *>
PUBLIC	??$_Voidify_iter@PEAPEAVMultiChannelDiffuser@@@std@@YAPEAXPEAPEAVMultiChannelDiffuser@@@Z ; std::_Voidify_iter<MultiChannelDiffuser * *>
PUBLIC	??$_Voidify_iter@PEAPEAVModMultiChannelDiffuser@@@std@@YAPEAXPEAPEAVModMultiChannelDiffuser@@@Z ; std::_Voidify_iter<ModMultiChannelDiffuser * *>
PUBLIC	??$_Voidify_iter@PEAPEAVLowPassFilter@@@std@@YAPEAXPEAPEAVLowPassFilter@@@Z ; std::_Voidify_iter<LowPassFilter * *>
PUBLIC	??$_Voidify_iter@PEAPEAVModulation@@@std@@YAPEAXPEAPEAVModulation@@@Z ; std::_Voidify_iter<Modulation * *>
PUBLIC	??$_Voidify_iter@PEAPEAVHighPassFilter@@@std@@YAPEAXPEAPEAVHighPassFilter@@@Z ; std::_Voidify_iter<HighPassFilter * *>
PUBLIC	?_Get_first@?$_Compressed_pair@V?$allocator@PEAVDelay@@@std@@V?$_Vector_val@U?$_Simple_types@PEAVDelay@@@std@@@2@$00@std@@QEBAAEBV?$allocator@PEAVDelay@@@2@XZ ; std::_Compressed_pair<std::allocator<Delay *>,std::_Vector_val<std::_Simple_types<Delay *> >,1>::_Get_first
PUBLIC	?_Get_first@?$_Compressed_pair@V?$allocator@H@std@@V?$_Vector_val@U?$_Simple_types@H@std@@@2@$00@std@@QEBAAEBV?$allocator@H@2@XZ ; std::_Compressed_pair<std::allocator<int>,std::_Vector_val<std::_Simple_types<int> >,1>::_Get_first
PUBLIC	?_Get_first@?$_Compressed_pair@V?$allocator@PEAVModDelay@@@std@@V?$_Vector_val@U?$_Simple_types@PEAVModDelay@@@std@@@2@$00@std@@QEBAAEBV?$allocator@PEAVModDelay@@@2@XZ ; std::_Compressed_pair<std::allocator<ModDelay *>,std::_Vector_val<std::_Simple_types<ModDelay *> >,1>::_Get_first
PUBLIC	?_Get_first@?$_Compressed_pair@V?$allocator@PEAVMultiChannelDiffuser@@@std@@V?$_Vector_val@U?$_Simple_types@PEAVMultiChannelDiffuser@@@std@@@2@$00@std@@QEBAAEBV?$allocator@PEAVMultiChannelDiffuser@@@2@XZ ; std::_Compressed_pair<std::allocator<MultiChannelDiffuser *>,std::_Vector_val<std::_Simple_types<MultiChannelDiffuser *> >,1>::_Get_first
PUBLIC	?_Get_first@?$_Compressed_pair@V?$allocator@PEAVModMultiChannelDiffuser@@@std@@V?$_Vector_val@U?$_Simple_types@PEAVModMultiChannelDiffuser@@@std@@@2@$00@std@@QEBAAEBV?$allocator@PEAVModMultiChannelDiffuser@@@2@XZ ; std::_Compressed_pair<std::allocator<ModMultiChannelDiffuser *>,std::_Vector_val<std::_Simple_types<ModMultiChannelDiffuser *> >,1>::_Get_first
PUBLIC	?_Get_first@?$_Compressed_pair@V?$allocator@PEAVLowPassFilter@@@std@@V?$_Vector_val@U?$_Simple_types@PEAVLowPassFilter@@@std@@@2@$00@std@@QEBAAEBV?$allocator@PEAVLowPassFilter@@@2@XZ ; std::_Compressed_pair<std::allocator<LowPassFilter *>,std::_Vector_val<std::_Simple_types<LowPassFilter *> >,1>::_Get_first
PUBLIC	?_Get_first@?$_Compressed_pair@V?$allocator@PEAVModulation@@@std@@V?$_Vector_val@U?$_Simple_types@PEAVModulation@@@std@@@2@$00@std@@QEBAAEBV?$allocator@PEAVModulation@@@2@XZ ; std::_Compressed_pair<std::allocator<Modulation *>,std::_Vector_val<std::_Simple_types<Modulation *> >,1>::_Get_first
PUBLIC	?_Get_first@?$_Compressed_pair@V?$allocator@PEAVHighPassFilter@@@std@@V?$_Vector_val@U?$_Simple_types@PEAVHighPassFilter@@@std@@@2@$00@std@@QEBAAEBV?$allocator@PEAVHighPassFilter@@@2@XZ ; std::_Compressed_pair<std::allocator<HighPassFilter *>,std::_Vector_val<std::_Simple_types<HighPassFilter *> >,1>::_Get_first
PUBLIC	?_Buy_raw@?$vector@MV?$allocator@M@std@@@std@@AEAAX_K@Z ; std::vector<float,std::allocator<float> >::_Buy_raw
PUBLIC	?max_size@?$_Default_allocator_traits@V?$allocator@PEAVDelay@@@std@@@std@@SA_KAEBV?$allocator@PEAVDelay@@@2@@Z ; std::_Default_allocator_traits<std::allocator<Delay *> >::max_size
PUBLIC	?capacity@?$vector@PEAVDelay@@V?$allocator@PEAVDelay@@@std@@@std@@QEBA_KXZ ; std::vector<Delay *,std::allocator<Delay *> >::capacity
PUBLIC	?_Umove_if_noexcept1@?$vector@PEAVDelay@@V?$allocator@PEAVDelay@@@std@@@std@@AEAAXPEAPEAVDelay@@00U?$integral_constant@_N$00@2@@Z ; std::vector<Delay *,std::allocator<Delay *> >::_Umove_if_noexcept1
PUBLIC	?_Getal@?$vector@PEAVDelay@@V?$allocator@PEAVDelay@@@std@@@std@@AEBAAEBV?$allocator@PEAVDelay@@@2@XZ ; std::vector<Delay *,std::allocator<Delay *> >::_Getal
PUBLIC	?max_size@?$_Default_allocator_traits@V?$allocator@H@std@@@std@@SA_KAEBV?$allocator@H@2@@Z ; std::_Default_allocator_traits<std::allocator<int> >::max_size
PUBLIC	?capacity@?$vector@HV?$allocator@H@std@@@std@@QEBA_KXZ ; std::vector<int,std::allocator<int> >::capacity
PUBLIC	?_Umove_if_noexcept1@?$vector@HV?$allocator@H@std@@@std@@AEAAXPEAH00U?$integral_constant@_N$00@2@@Z ; std::vector<int,std::allocator<int> >::_Umove_if_noexcept1
PUBLIC	?_Getal@?$vector@HV?$allocator@H@std@@@std@@AEBAAEBV?$allocator@H@2@XZ ; std::vector<int,std::allocator<int> >::_Getal
PUBLIC	?max_size@?$_Default_allocator_traits@V?$allocator@PEAVModDelay@@@std@@@std@@SA_KAEBV?$allocator@PEAVModDelay@@@2@@Z ; std::_Default_allocator_traits<std::allocator<ModDelay *> >::max_size
PUBLIC	?capacity@?$vector@PEAVModDelay@@V?$allocator@PEAVModDelay@@@std@@@std@@QEBA_KXZ ; std::vector<ModDelay *,std::allocator<ModDelay *> >::capacity
PUBLIC	?_Umove_if_noexcept1@?$vector@PEAVModDelay@@V?$allocator@PEAVModDelay@@@std@@@std@@AEAAXPEAPEAVModDelay@@00U?$integral_constant@_N$00@2@@Z ; std::vector<ModDelay *,std::allocator<ModDelay *> >::_Umove_if_noexcept1
PUBLIC	?_Getal@?$vector@PEAVModDelay@@V?$allocator@PEAVModDelay@@@std@@@std@@AEBAAEBV?$allocator@PEAVModDelay@@@2@XZ ; std::vector<ModDelay *,std::allocator<ModDelay *> >::_Getal
PUBLIC	?max_size@?$_Default_allocator_traits@V?$allocator@PEAVMultiChannelDiffuser@@@std@@@std@@SA_KAEBV?$allocator@PEAVMultiChannelDiffuser@@@2@@Z ; std::_Default_allocator_traits<std::allocator<MultiChannelDiffuser *> >::max_size
PUBLIC	?capacity@?$vector@PEAVMultiChannelDiffuser@@V?$allocator@PEAVMultiChannelDiffuser@@@std@@@std@@QEBA_KXZ ; std::vector<MultiChannelDiffuser *,std::allocator<MultiChannelDiffuser *> >::capacity
PUBLIC	?_Umove_if_noexcept1@?$vector@PEAVMultiChannelDiffuser@@V?$allocator@PEAVMultiChannelDiffuser@@@std@@@std@@AEAAXPEAPEAVMultiChannelDiffuser@@00U?$integral_constant@_N$00@2@@Z ; std::vector<MultiChannelDiffuser *,std::allocator<MultiChannelDiffuser *> >::_Umove_if_noexcept1
PUBLIC	?_Getal@?$vector@PEAVMultiChannelDiffuser@@V?$allocator@PEAVMultiChannelDiffuser@@@std@@@std@@AEBAAEBV?$allocator@PEAVMultiChannelDiffuser@@@2@XZ ; std::vector<MultiChannelDiffuser *,std::allocator<MultiChannelDiffuser *> >::_Getal
PUBLIC	?max_size@?$_Default_allocator_traits@V?$allocator@PEAVModMultiChannelDiffuser@@@std@@@std@@SA_KAEBV?$allocator@PEAVModMultiChannelDiffuser@@@2@@Z ; std::_Default_allocator_traits<std::allocator<ModMultiChannelDiffuser *> >::max_size
PUBLIC	?capacity@?$vector@PEAVModMultiChannelDiffuser@@V?$allocator@PEAVModMultiChannelDiffuser@@@std@@@std@@QEBA_KXZ ; std::vector<ModMultiChannelDiffuser *,std::allocator<ModMultiChannelDiffuser *> >::capacity
PUBLIC	?_Umove_if_noexcept1@?$vector@PEAVModMultiChannelDiffuser@@V?$allocator@PEAVModMultiChannelDiffuser@@@std@@@std@@AEAAXPEAPEAVModMultiChannelDiffuser@@00U?$integral_constant@_N$00@2@@Z ; std::vector<ModMultiChannelDiffuser *,std::allocator<ModMultiChannelDiffuser *> >::_Umove_if_noexcept1
PUBLIC	?_Getal@?$vector@PEAVModMultiChannelDiffuser@@V?$allocator@PEAVModMultiChannelDiffuser@@@std@@@std@@AEBAAEBV?$allocator@PEAVModMultiChannelDiffuser@@@2@XZ ; std::vector<ModMultiChannelDiffuser *,std::allocator<ModMultiChannelDiffuser *> >::_Getal
PUBLIC	?max_size@?$_Default_allocator_traits@V?$allocator@PEAVLowPassFilter@@@std@@@std@@SA_KAEBV?$allocator@PEAVLowPassFilter@@@2@@Z ; std::_Default_allocator_traits<std::allocator<LowPassFilter *> >::max_size
PUBLIC	?capacity@?$vector@PEAVLowPassFilter@@V?$allocator@PEAVLowPassFilter@@@std@@@std@@QEBA_KXZ ; std::vector<LowPassFilter *,std::allocator<LowPassFilter *> >::capacity
PUBLIC	?_Umove_if_noexcept1@?$vector@PEAVLowPassFilter@@V?$allocator@PEAVLowPassFilter@@@std@@@std@@AEAAXPEAPEAVLowPassFilter@@00U?$integral_constant@_N$00@2@@Z ; std::vector<LowPassFilter *,std::allocator<LowPassFilter *> >::_Umove_if_noexcept1
PUBLIC	?_Getal@?$vector@PEAVLowPassFilter@@V?$allocator@PEAVLowPassFilter@@@std@@@std@@AEBAAEBV?$allocator@PEAVLowPassFilter@@@2@XZ ; std::vector<LowPassFilter *,std::allocator<LowPassFilter *> >::_Getal
PUBLIC	?max_size@?$_Default_allocator_traits@V?$allocator@PEAVModulation@@@std@@@std@@SA_KAEBV?$allocator@PEAVModulation@@@2@@Z ; std::_Default_allocator_traits<std::allocator<Modulation *> >::max_size
PUBLIC	?capacity@?$vector@PEAVModulation@@V?$allocator@PEAVModulation@@@std@@@std@@QEBA_KXZ ; std::vector<Modulation *,std::allocator<Modulation *> >::capacity
PUBLIC	?_Umove_if_noexcept1@?$vector@PEAVModulation@@V?$allocator@PEAVModulation@@@std@@@std@@AEAAXPEAPEAVModulation@@00U?$integral_constant@_N$00@2@@Z ; std::vector<Modulation *,std::allocator<Modulation *> >::_Umove_if_noexcept1
PUBLIC	?_Getal@?$vector@PEAVModulation@@V?$allocator@PEAVModulation@@@std@@@std@@AEBAAEBV?$allocator@PEAVModulation@@@2@XZ ; std::vector<Modulation *,std::allocator<Modulation *> >::_Getal
PUBLIC	?max_size@?$_Default_allocator_traits@V?$allocator@PEAVHighPassFilter@@@std@@@std@@SA_KAEBV?$allocator@PEAVHighPassFilter@@@2@@Z ; std::_Default_allocator_traits<std::allocator<HighPassFilter *> >::max_size
PUBLIC	?capacity@?$vector@PEAVHighPassFilter@@V?$allocator@PEAVHighPassFilter@@@std@@@std@@QEBA_KXZ ; std::vector<HighPassFilter *,std::allocator<HighPassFilter *> >::capacity
PUBLIC	?_Umove_if_noexcept1@?$vector@PEAVHighPassFilter@@V?$allocator@PEAVHighPassFilter@@@std@@@std@@AEAAXPEAPEAVHighPassFilter@@00U?$integral_constant@_N$00@2@@Z ; std::vector<HighPassFilter *,std::allocator<HighPassFilter *> >::_Umove_if_noexcept1
PUBLIC	?_Getal@?$vector@PEAVHighPassFilter@@V?$allocator@PEAVHighPassFilter@@@std@@@std@@AEBAAEBV?$allocator@PEAVHighPassFilter@@@2@XZ ; std::vector<HighPassFilter *,std::allocator<HighPassFilter *> >::_Getal
PUBLIC	?_Ufill@?$vector@MV?$allocator@M@std@@@std@@AEAAPEAMPEAM_KU_Value_init_tag@2@@Z ; std::vector<float,std::allocator<float> >::_Ufill
PUBLIC	?_Buy_nonzero@?$vector@MV?$allocator@M@std@@@std@@AEAAX_K@Z ; std::vector<float,std::allocator<float> >::_Buy_nonzero
PUBLIC	??0?$_Vector_val@U?$_Simple_types@M@std@@@std@@QEAA@PEAM00@Z ; std::_Vector_val<std::_Simple_types<float> >::_Vector_val<std::_Simple_types<float> >
PUBLIC	??0?$allocator@PEAVDelay@@@std@@QEAA@XZ		; std::allocator<Delay *>::allocator<Delay *>
PUBLIC	?allocate@?$allocator@PEAVDelay@@@std@@QEAAPEAPEAVDelay@@_K@Z ; std::allocator<Delay *>::allocate
PUBLIC	?max_size@?$vector@PEAVDelay@@V?$allocator@PEAVDelay@@@std@@@std@@QEBA_KXZ ; std::vector<Delay *,std::allocator<Delay *> >::max_size
PUBLIC	?_Umove@?$vector@PEAVDelay@@V?$allocator@PEAVDelay@@@std@@@std@@AEAAPEAPEAVDelay@@PEAPEAV3@00@Z ; std::vector<Delay *,std::allocator<Delay *> >::_Umove
PUBLIC	?_Umove_if_noexcept@?$vector@PEAVDelay@@V?$allocator@PEAVDelay@@@std@@@std@@AEAAXPEAPEAVDelay@@00@Z ; std::vector<Delay *,std::allocator<Delay *> >::_Umove_if_noexcept
PUBLIC	?_Calculate_growth@?$vector@PEAVDelay@@V?$allocator@PEAVDelay@@@std@@@std@@AEBA_K_K@Z ; std::vector<Delay *,std::allocator<Delay *> >::_Calculate_growth
PUBLIC	?_Change_array@?$vector@PEAVDelay@@V?$allocator@PEAVDelay@@@std@@@std@@AEAAXQEAPEAVDelay@@_K1@Z ; std::vector<Delay *,std::allocator<Delay *> >::_Change_array
PUBLIC	?_Xlength@?$vector@PEAVDelay@@V?$allocator@PEAVDelay@@@std@@@std@@CAXXZ ; std::vector<Delay *,std::allocator<Delay *> >::_Xlength
PUBLIC	??0?$_Vector_val@U?$_Simple_types@PEAVDelay@@@std@@@std@@QEAA@XZ ; std::_Vector_val<std::_Simple_types<Delay *> >::_Vector_val<std::_Simple_types<Delay *> >
PUBLIC	??0?$allocator@H@std@@QEAA@XZ			; std::allocator<int>::allocator<int>
PUBLIC	?allocate@?$allocator@H@std@@QEAAPEAH_K@Z	; std::allocator<int>::allocate
PUBLIC	?max_size@?$vector@HV?$allocator@H@std@@@std@@QEBA_KXZ ; std::vector<int,std::allocator<int> >::max_size
PUBLIC	?_Umove@?$vector@HV?$allocator@H@std@@@std@@AEAAPEAHPEAH00@Z ; std::vector<int,std::allocator<int> >::_Umove
PUBLIC	?_Umove_if_noexcept@?$vector@HV?$allocator@H@std@@@std@@AEAAXPEAH00@Z ; std::vector<int,std::allocator<int> >::_Umove_if_noexcept
PUBLIC	?_Calculate_growth@?$vector@HV?$allocator@H@std@@@std@@AEBA_K_K@Z ; std::vector<int,std::allocator<int> >::_Calculate_growth
PUBLIC	?_Change_array@?$vector@HV?$allocator@H@std@@@std@@AEAAXQEAH_K1@Z ; std::vector<int,std::allocator<int> >::_Change_array
PUBLIC	?_Xlength@?$vector@HV?$allocator@H@std@@@std@@CAXXZ ; std::vector<int,std::allocator<int> >::_Xlength
PUBLIC	??0?$_Vector_val@U?$_Simple_types@H@std@@@std@@QEAA@XZ ; std::_Vector_val<std::_Simple_types<int> >::_Vector_val<std::_Simple_types<int> >
PUBLIC	??0?$allocator@PEAVModDelay@@@std@@QEAA@XZ	; std::allocator<ModDelay *>::allocator<ModDelay *>
PUBLIC	?allocate@?$allocator@PEAVModDelay@@@std@@QEAAPEAPEAVModDelay@@_K@Z ; std::allocator<ModDelay *>::allocate
PUBLIC	?max_size@?$vector@PEAVModDelay@@V?$allocator@PEAVModDelay@@@std@@@std@@QEBA_KXZ ; std::vector<ModDelay *,std::allocator<ModDelay *> >::max_size
PUBLIC	?_Umove@?$vector@PEAVModDelay@@V?$allocator@PEAVModDelay@@@std@@@std@@AEAAPEAPEAVModDelay@@PEAPEAV3@00@Z ; std::vector<ModDelay *,std::allocator<ModDelay *> >::_Umove
PUBLIC	?_Umove_if_noexcept@?$vector@PEAVModDelay@@V?$allocator@PEAVModDelay@@@std@@@std@@AEAAXPEAPEAVModDelay@@00@Z ; std::vector<ModDelay *,std::allocator<ModDelay *> >::_Umove_if_noexcept
PUBLIC	?_Calculate_growth@?$vector@PEAVModDelay@@V?$allocator@PEAVModDelay@@@std@@@std@@AEBA_K_K@Z ; std::vector<ModDelay *,std::allocator<ModDelay *> >::_Calculate_growth
PUBLIC	?_Change_array@?$vector@PEAVModDelay@@V?$allocator@PEAVModDelay@@@std@@@std@@AEAAXQEAPEAVModDelay@@_K1@Z ; std::vector<ModDelay *,std::allocator<ModDelay *> >::_Change_array
PUBLIC	?_Xlength@?$vector@PEAVModDelay@@V?$allocator@PEAVModDelay@@@std@@@std@@CAXXZ ; std::vector<ModDelay *,std::allocator<ModDelay *> >::_Xlength
PUBLIC	??0?$_Vector_val@U?$_Simple_types@PEAVModDelay@@@std@@@std@@QEAA@XZ ; std::_Vector_val<std::_Simple_types<ModDelay *> >::_Vector_val<std::_Simple_types<ModDelay *> >
PUBLIC	??0?$allocator@PEAVMultiChannelDiffuser@@@std@@QEAA@XZ ; std::allocator<MultiChannelDiffuser *>::allocator<MultiChannelDiffuser *>
PUBLIC	?allocate@?$allocator@PEAVMultiChannelDiffuser@@@std@@QEAAPEAPEAVMultiChannelDiffuser@@_K@Z ; std::allocator<MultiChannelDiffuser *>::allocate
PUBLIC	?max_size@?$vector@PEAVMultiChannelDiffuser@@V?$allocator@PEAVMultiChannelDiffuser@@@std@@@std@@QEBA_KXZ ; std::vector<MultiChannelDiffuser *,std::allocator<MultiChannelDiffuser *> >::max_size
PUBLIC	?_Umove@?$vector@PEAVMultiChannelDiffuser@@V?$allocator@PEAVMultiChannelDiffuser@@@std@@@std@@AEAAPEAPEAVMultiChannelDiffuser@@PEAPEAV3@00@Z ; std::vector<MultiChannelDiffuser *,std::allocator<MultiChannelDiffuser *> >::_Umove
PUBLIC	?_Umove_if_noexcept@?$vector@PEAVMultiChannelDiffuser@@V?$allocator@PEAVMultiChannelDiffuser@@@std@@@std@@AEAAXPEAPEAVMultiChannelDiffuser@@00@Z ; std::vector<MultiChannelDiffuser *,std::allocator<MultiChannelDiffuser *> >::_Umove_if_noexcept
PUBLIC	?_Calculate_growth@?$vector@PEAVMultiChannelDiffuser@@V?$allocator@PEAVMultiChannelDiffuser@@@std@@@std@@AEBA_K_K@Z ; std::vector<MultiChannelDiffuser *,std::allocator<MultiChannelDiffuser *> >::_Calculate_growth
PUBLIC	?_Change_array@?$vector@PEAVMultiChannelDiffuser@@V?$allocator@PEAVMultiChannelDiffuser@@@std@@@std@@AEAAXQEAPEAVMultiChannelDiffuser@@_K1@Z ; std::vector<MultiChannelDiffuser *,std::allocator<MultiChannelDiffuser *> >::_Change_array
PUBLIC	?_Xlength@?$vector@PEAVMultiChannelDiffuser@@V?$allocator@PEAVMultiChannelDiffuser@@@std@@@std@@CAXXZ ; std::vector<MultiChannelDiffuser *,std::allocator<MultiChannelDiffuser *> >::_Xlength
PUBLIC	??0?$_Vector_val@U?$_Simple_types@PEAVMultiChannelDiffuser@@@std@@@std@@QEAA@XZ ; std::_Vector_val<std::_Simple_types<MultiChannelDiffuser *> >::_Vector_val<std::_Simple_types<MultiChannelDiffuser *> >
PUBLIC	??0?$allocator@PEAVModMultiChannelDiffuser@@@std@@QEAA@XZ ; std::allocator<ModMultiChannelDiffuser *>::allocator<ModMultiChannelDiffuser *>
PUBLIC	?allocate@?$allocator@PEAVModMultiChannelDiffuser@@@std@@QEAAPEAPEAVModMultiChannelDiffuser@@_K@Z ; std::allocator<ModMultiChannelDiffuser *>::allocate
PUBLIC	?max_size@?$vector@PEAVModMultiChannelDiffuser@@V?$allocator@PEAVModMultiChannelDiffuser@@@std@@@std@@QEBA_KXZ ; std::vector<ModMultiChannelDiffuser *,std::allocator<ModMultiChannelDiffuser *> >::max_size
PUBLIC	?_Umove@?$vector@PEAVModMultiChannelDiffuser@@V?$allocator@PEAVModMultiChannelDiffuser@@@std@@@std@@AEAAPEAPEAVModMultiChannelDiffuser@@PEAPEAV3@00@Z ; std::vector<ModMultiChannelDiffuser *,std::allocator<ModMultiChannelDiffuser *> >::_Umove
PUBLIC	?_Umove_if_noexcept@?$vector@PEAVModMultiChannelDiffuser@@V?$allocator@PEAVModMultiChannelDiffuser@@@std@@@std@@AEAAXPEAPEAVModMultiChannelDiffuser@@00@Z ; std::vector<ModMultiChannelDiffuser *,std::allocator<ModMultiChannelDiffuser *> >::_Umove_if_noexcept
PUBLIC	?_Calculate_growth@?$vector@PEAVModMultiChannelDiffuser@@V?$allocator@PEAVModMultiChannelDiffuser@@@std@@@std@@AEBA_K_K@Z ; std::vector<ModMultiChannelDiffuser *,std::allocator<ModMultiChannelDiffuser *> >::_Calculate_growth
PUBLIC	?_Change_array@?$vector@PEAVModMultiChannelDiffuser@@V?$allocator@PEAVModMultiChannelDiffuser@@@std@@@std@@AEAAXQEAPEAVModMultiChannelDiffuser@@_K1@Z ; std::vector<ModMultiChannelDiffuser *,std::allocator<ModMultiChannelDiffuser *> >::_Change_array
PUBLIC	?_Xlength@?$vector@PEAVModMultiChannelDiffuser@@V?$allocator@PEAVModMultiChannelDiffuser@@@std@@@std@@CAXXZ ; std::vector<ModMultiChannelDiffuser *,std::allocator<ModMultiChannelDiffuser *> >::_Xlength
PUBLIC	??0?$_Vector_val@U?$_Simple_types@PEAVModMultiChannelDiffuser@@@std@@@std@@QEAA@XZ ; std::_Vector_val<std::_Simple_types<ModMultiChannelDiffuser *> >::_Vector_val<std::_Simple_types<ModMultiChannelDiffuser *> >
PUBLIC	??0?$allocator@PEAVLowPassFilter@@@std@@QEAA@XZ	; std::allocator<LowPassFilter *>::allocator<LowPassFilter *>
PUBLIC	?allocate@?$allocator@PEAVLowPassFilter@@@std@@QEAAPEAPEAVLowPassFilter@@_K@Z ; std::allocator<LowPassFilter *>::allocate
PUBLIC	?max_size@?$vector@PEAVLowPassFilter@@V?$allocator@PEAVLowPassFilter@@@std@@@std@@QEBA_KXZ ; std::vector<LowPassFilter *,std::allocator<LowPassFilter *> >::max_size
PUBLIC	?_Umove@?$vector@PEAVLowPassFilter@@V?$allocator@PEAVLowPassFilter@@@std@@@std@@AEAAPEAPEAVLowPassFilter@@PEAPEAV3@00@Z ; std::vector<LowPassFilter *,std::allocator<LowPassFilter *> >::_Umove
PUBLIC	?_Umove_if_noexcept@?$vector@PEAVLowPassFilter@@V?$allocator@PEAVLowPassFilter@@@std@@@std@@AEAAXPEAPEAVLowPassFilter@@00@Z ; std::vector<LowPassFilter *,std::allocator<LowPassFilter *> >::_Umove_if_noexcept
PUBLIC	?_Calculate_growth@?$vector@PEAVLowPassFilter@@V?$allocator@PEAVLowPassFilter@@@std@@@std@@AEBA_K_K@Z ; std::vector<LowPassFilter *,std::allocator<LowPassFilter *> >::_Calculate_growth
PUBLIC	?_Change_array@?$vector@PEAVLowPassFilter@@V?$allocator@PEAVLowPassFilter@@@std@@@std@@AEAAXQEAPEAVLowPassFilter@@_K1@Z ; std::vector<LowPassFilter *,std::allocator<LowPassFilter *> >::_Change_array
PUBLIC	?_Xlength@?$vector@PEAVLowPassFilter@@V?$allocator@PEAVLowPassFilter@@@std@@@std@@CAXXZ ; std::vector<LowPassFilter *,std::allocator<LowPassFilter *> >::_Xlength
PUBLIC	??0?$_Vector_val@U?$_Simple_types@PEAVLowPassFilter@@@std@@@std@@QEAA@XZ ; std::_Vector_val<std::_Simple_types<LowPassFilter *> >::_Vector_val<std::_Simple_types<LowPassFilter *> >
PUBLIC	??0?$allocator@PEAVModulation@@@std@@QEAA@XZ	; std::allocator<Modulation *>::allocator<Modulation *>
PUBLIC	?allocate@?$allocator@PEAVModulation@@@std@@QEAAPEAPEAVModulation@@_K@Z ; std::allocator<Modulation *>::allocate
PUBLIC	?max_size@?$vector@PEAVModulation@@V?$allocator@PEAVModulation@@@std@@@std@@QEBA_KXZ ; std::vector<Modulation *,std::allocator<Modulation *> >::max_size
PUBLIC	?_Umove@?$vector@PEAVModulation@@V?$allocator@PEAVModulation@@@std@@@std@@AEAAPEAPEAVModulation@@PEAPEAV3@00@Z ; std::vector<Modulation *,std::allocator<Modulation *> >::_Umove
PUBLIC	?_Umove_if_noexcept@?$vector@PEAVModulation@@V?$allocator@PEAVModulation@@@std@@@std@@AEAAXPEAPEAVModulation@@00@Z ; std::vector<Modulation *,std::allocator<Modulation *> >::_Umove_if_noexcept
PUBLIC	?_Calculate_growth@?$vector@PEAVModulation@@V?$allocator@PEAVModulation@@@std@@@std@@AEBA_K_K@Z ; std::vector<Modulation *,std::allocator<Modulation *> >::_Calculate_growth
PUBLIC	?_Change_array@?$vector@PEAVModulation@@V?$allocator@PEAVModulation@@@std@@@std@@AEAAXQEAPEAVModulation@@_K1@Z ; std::vector<Modulation *,std::allocator<Modulation *> >::_Change_array
PUBLIC	?_Xlength@?$vector@PEAVModulation@@V?$allocator@PEAVModulation@@@std@@@std@@CAXXZ ; std::vector<Modulation *,std::allocator<Modulation *> >::_Xlength
PUBLIC	??0?$_Vector_val@U?$_Simple_types@PEAVModulation@@@std@@@std@@QEAA@XZ ; std::_Vector_val<std::_Simple_types<Modulation *> >::_Vector_val<std::_Simple_types<Modulation *> >
PUBLIC	??0?$allocator@PEAVHighPassFilter@@@std@@QEAA@XZ ; std::allocator<HighPassFilter *>::allocator<HighPassFilter *>
PUBLIC	?allocate@?$allocator@PEAVHighPassFilter@@@std@@QEAAPEAPEAVHighPassFilter@@_K@Z ; std::allocator<HighPassFilter *>::allocate
PUBLIC	?max_size@?$vector@PEAVHighPassFilter@@V?$allocator@PEAVHighPassFilter@@@std@@@std@@QEBA_KXZ ; std::vector<HighPassFilter *,std::allocator<HighPassFilter *> >::max_size
PUBLIC	?_Umove@?$vector@PEAVHighPassFilter@@V?$allocator@PEAVHighPassFilter@@@std@@@std@@AEAAPEAPEAVHighPassFilter@@PEAPEAV3@00@Z ; std::vector<HighPassFilter *,std::allocator<HighPassFilter *> >::_Umove
PUBLIC	?_Umove_if_noexcept@?$vector@PEAVHighPassFilter@@V?$allocator@PEAVHighPassFilter@@@std@@@std@@AEAAXPEAPEAVHighPassFilter@@00@Z ; std::vector<HighPassFilter *,std::allocator<HighPassFilter *> >::_Umove_if_noexcept
PUBLIC	?_Calculate_growth@?$vector@PEAVHighPassFilter@@V?$allocator@PEAVHighPassFilter@@@std@@@std@@AEBA_K_K@Z ; std::vector<HighPassFilter *,std::allocator<HighPassFilter *> >::_Calculate_growth
PUBLIC	?_Change_array@?$vector@PEAVHighPassFilter@@V?$allocator@PEAVHighPassFilter@@@std@@@std@@AEAAXQEAPEAVHighPassFilter@@_K1@Z ; std::vector<HighPassFilter *,std::allocator<HighPassFilter *> >::_Change_array
PUBLIC	?_Xlength@?$vector@PEAVHighPassFilter@@V?$allocator@PEAVHighPassFilter@@@std@@@std@@CAXXZ ; std::vector<HighPassFilter *,std::allocator<HighPassFilter *> >::_Xlength
PUBLIC	??0?$_Vector_val@U?$_Simple_types@PEAVHighPassFilter@@@std@@@std@@QEAA@XZ ; std::_Vector_val<std::_Simple_types<HighPassFilter *> >::_Vector_val<std::_Simple_types<HighPassFilter *> >
PUBLIC	??1?$_Tidy_guard@V?$vector@MV?$allocator@M@std@@@std@@@std@@QEAA@XZ ; std::_Tidy_guard<std::vector<float,std::allocator<float> > >::~_Tidy_guard<std::vector<float,std::allocator<float> > >
PUBLIC	??$_Pocma@V?$allocator@M@std@@@std@@YAXAEAV?$allocator@M@0@0@Z ; std::_Pocma<std::allocator<float> >
PUBLIC	??$_Destroy_range@V?$allocator@PEAVDelay@@@std@@@std@@YAXPEAPEAVDelay@@QEAPEAV1@AEAV?$allocator@PEAVDelay@@@0@@Z ; std::_Destroy_range<std::allocator<Delay *> >
PUBLIC	??$_Destroy_range@V?$allocator@H@std@@@std@@YAXPEAHQEAHAEAV?$allocator@H@0@@Z ; std::_Destroy_range<std::allocator<int> >
PUBLIC	??$_Destroy_range@V?$allocator@PEAVModDelay@@@std@@@std@@YAXPEAPEAVModDelay@@QEAPEAV1@AEAV?$allocator@PEAVModDelay@@@0@@Z ; std::_Destroy_range<std::allocator<ModDelay *> >
PUBLIC	??$_Destroy_range@V?$allocator@PEAVMultiChannelDiffuser@@@std@@@std@@YAXPEAPEAVMultiChannelDiffuser@@QEAPEAV1@AEAV?$allocator@PEAVMultiChannelDiffuser@@@0@@Z ; std::_Destroy_range<std::allocator<MultiChannelDiffuser *> >
PUBLIC	??$_Destroy_range@V?$allocator@PEAVModMultiChannelDiffuser@@@std@@@std@@YAXPEAPEAVModMultiChannelDiffuser@@QEAPEAV1@AEAV?$allocator@PEAVModMultiChannelDiffuser@@@0@@Z ; std::_Destroy_range<std::allocator<ModMultiChannelDiffuser *> >
PUBLIC	??$_Destroy_range@V?$allocator@PEAVLowPassFilter@@@std@@@std@@YAXPEAPEAVLowPassFilter@@QEAPEAV1@AEAV?$allocator@PEAVLowPassFilter@@@0@@Z ; std::_Destroy_range<std::allocator<LowPassFilter *> >
PUBLIC	??$_Destroy_range@V?$allocator@PEAVModulation@@@std@@@std@@YAXPEAPEAVModulation@@QEAPEAV1@AEAV?$allocator@PEAVModulation@@@0@@Z ; std::_Destroy_range<std::allocator<Modulation *> >
PUBLIC	??$_Destroy_range@V?$allocator@PEAVHighPassFilter@@@std@@@std@@YAXPEAPEAVHighPassFilter@@QEAPEAV1@AEAV?$allocator@PEAVHighPassFilter@@@0@@Z ; std::_Destroy_range<std::allocator<HighPassFilter *> >
PUBLIC	??$_Construct_n_copies_of_ty@U_Value_init_tag@std@@@?$vector@MV?$allocator@M@std@@@std@@AEAAX_KAEBU_Value_init_tag@1@@Z ; std::vector<float,std::allocator<float> >::_Construct_n_copies_of_ty<std::_Value_init_tag>
PUBLIC	??$?0AEBV?$allocator@M@std@@$$V@?$_Compressed_pair@V?$allocator@M@std@@V?$_Vector_val@U?$_Simple_types@M@std@@@2@$00@std@@QEAA@U_One_then_variadic_args_t@1@AEBV?$allocator@M@1@@Z ; std::_Compressed_pair<std::allocator<float>,std::_Vector_val<std::_Simple_types<float> >,1>::_Compressed_pair<std::allocator<float>,std::_Vector_val<std::_Simple_types<float> >,1><std::allocator<float> const &>
PUBLIC	??$?0V?$allocator@M@std@@PEAMPEAMPEAM@?$_Compressed_pair@V?$allocator@M@std@@V?$_Vector_val@U?$_Simple_types@M@std@@@2@$00@std@@QEAA@U_One_then_variadic_args_t@1@$$QEAV?$allocator@M@1@$$QEAPEAM22@Z ; std::_Compressed_pair<std::allocator<float>,std::_Vector_val<std::_Simple_types<float> >,1>::_Compressed_pair<std::allocator<float>,std::_Vector_val<std::_Simple_types<float> >,1><std::allocator<float>,float *,float *,float *>
PUBLIC	??$exchange@PEAM$$T@std@@YAPEAMAEAPEAM$$QEA$$T@Z ; std::exchange<float *,std::nullptr_t>
PUBLIC	??$move@AEAV?$allocator@M@std@@@std@@YA$$QEAV?$allocator@M@0@AEAV10@@Z ; std::move<std::allocator<float> &>
PUBLIC	??$addressof@V?$vector@MV?$allocator@M@std@@@std@@@std@@YAPEAV?$vector@MV?$allocator@M@std@@@0@AEAV10@@Z ; std::addressof<std::vector<float,std::allocator<float> > >
PUBLIC	??$?0$$V@?$_Compressed_pair@V?$allocator@PEAVDelay@@@std@@V?$_Vector_val@U?$_Simple_types@PEAVDelay@@@std@@@2@$00@std@@QEAA@U_Zero_then_variadic_args_t@1@@Z ; std::_Compressed_pair<std::allocator<Delay *>,std::_Vector_val<std::_Simple_types<Delay *> >,1>::_Compressed_pair<std::allocator<Delay *>,std::_Vector_val<std::_Simple_types<Delay *> >,1><>
PUBLIC	??$_Emplace_reallocate@PEAVDelay@@@?$vector@PEAVDelay@@V?$allocator@PEAVDelay@@@std@@@std@@QEAAPEAPEAVDelay@@QEAPEAV2@$$QEAPEAV2@@Z ; std::vector<Delay *,std::allocator<Delay *> >::_Emplace_reallocate<Delay *>
PUBLIC	??$construct@PEAVDelay@@PEAV1@@?$_Default_allocator_traits@V?$allocator@PEAVDelay@@@std@@@std@@SAXAEAV?$allocator@PEAVDelay@@@1@QEAPEAVDelay@@$$QEAPEAV3@@Z ; std::_Default_allocator_traits<std::allocator<Delay *> >::construct<Delay *,Delay *>
PUBLIC	??$_Unfancy@PEAVDelay@@@std@@YAPEAPEAVDelay@@PEAPEAV1@@Z ; std::_Unfancy<Delay *>
PUBLIC	??$forward@PEAVDelay@@@std@@YA$$QEAPEAVDelay@@AEAPEAV1@@Z ; std::forward<Delay *>
PUBLIC	??$move@AEAPEAVDelay@@@std@@YA$$QEAPEAVDelay@@AEAPEAV1@@Z ; std::move<Delay * &>
PUBLIC	??$?0$$V@?$_Compressed_pair@V?$allocator@H@std@@V?$_Vector_val@U?$_Simple_types@H@std@@@2@$00@std@@QEAA@U_Zero_then_variadic_args_t@1@@Z ; std::_Compressed_pair<std::allocator<int>,std::_Vector_val<std::_Simple_types<int> >,1>::_Compressed_pair<std::allocator<int>,std::_Vector_val<std::_Simple_types<int> >,1><>
PUBLIC	??$_Emplace_reallocate@H@?$vector@HV?$allocator@H@std@@@std@@QEAAPEAHQEAH$$QEAH@Z ; std::vector<int,std::allocator<int> >::_Emplace_reallocate<int>
PUBLIC	??$construct@HH@?$_Default_allocator_traits@V?$allocator@H@std@@@std@@SAXAEAV?$allocator@H@1@QEAH$$QEAH@Z ; std::_Default_allocator_traits<std::allocator<int> >::construct<int,int>
PUBLIC	??$_Unfancy@H@std@@YAPEAHPEAH@Z			; std::_Unfancy<int>
PUBLIC	??$forward@H@std@@YA$$QEAHAEAH@Z		; std::forward<int>
PUBLIC	??$move@AEAH@std@@YA$$QEAHAEAH@Z		; std::move<int &>
PUBLIC	??$?0$$V@?$_Compressed_pair@V?$allocator@PEAVModDelay@@@std@@V?$_Vector_val@U?$_Simple_types@PEAVModDelay@@@std@@@2@$00@std@@QEAA@U_Zero_then_variadic_args_t@1@@Z ; std::_Compressed_pair<std::allocator<ModDelay *>,std::_Vector_val<std::_Simple_types<ModDelay *> >,1>::_Compressed_pair<std::allocator<ModDelay *>,std::_Vector_val<std::_Simple_types<ModDelay *> >,1><>
PUBLIC	??$_Emplace_reallocate@PEAVModDelay@@@?$vector@PEAVModDelay@@V?$allocator@PEAVModDelay@@@std@@@std@@QEAAPEAPEAVModDelay@@QEAPEAV2@$$QEAPEAV2@@Z ; std::vector<ModDelay *,std::allocator<ModDelay *> >::_Emplace_reallocate<ModDelay *>
PUBLIC	??$construct@PEAVModDelay@@PEAV1@@?$_Default_allocator_traits@V?$allocator@PEAVModDelay@@@std@@@std@@SAXAEAV?$allocator@PEAVModDelay@@@1@QEAPEAVModDelay@@$$QEAPEAV3@@Z ; std::_Default_allocator_traits<std::allocator<ModDelay *> >::construct<ModDelay *,ModDelay *>
PUBLIC	??$_Unfancy@PEAVModDelay@@@std@@YAPEAPEAVModDelay@@PEAPEAV1@@Z ; std::_Unfancy<ModDelay *>
PUBLIC	??$forward@PEAVModDelay@@@std@@YA$$QEAPEAVModDelay@@AEAPEAV1@@Z ; std::forward<ModDelay *>
PUBLIC	??$move@AEAPEAVModDelay@@@std@@YA$$QEAPEAVModDelay@@AEAPEAV1@@Z ; std::move<ModDelay * &>
PUBLIC	??$?0$$V@?$_Compressed_pair@V?$allocator@PEAVMultiChannelDiffuser@@@std@@V?$_Vector_val@U?$_Simple_types@PEAVMultiChannelDiffuser@@@std@@@2@$00@std@@QEAA@U_Zero_then_variadic_args_t@1@@Z ; std::_Compressed_pair<std::allocator<MultiChannelDiffuser *>,std::_Vector_val<std::_Simple_types<MultiChannelDiffuser *> >,1>::_Compressed_pair<std::allocator<MultiChannelDiffuser *>,std::_Vector_val<std::_Simple_types<MultiChannelDiffuser *> >,1><>
PUBLIC	??$_Emplace_reallocate@PEAVMultiChannelDiffuser@@@?$vector@PEAVMultiChannelDiffuser@@V?$allocator@PEAVMultiChannelDiffuser@@@std@@@std@@QEAAPEAPEAVMultiChannelDiffuser@@QEAPEAV2@$$QEAPEAV2@@Z ; std::vector<MultiChannelDiffuser *,std::allocator<MultiChannelDiffuser *> >::_Emplace_reallocate<MultiChannelDiffuser *>
PUBLIC	??$construct@PEAVMultiChannelDiffuser@@PEAV1@@?$_Default_allocator_traits@V?$allocator@PEAVMultiChannelDiffuser@@@std@@@std@@SAXAEAV?$allocator@PEAVMultiChannelDiffuser@@@1@QEAPEAVMultiChannelDiffuser@@$$QEAPEAV3@@Z ; std::_Default_allocator_traits<std::allocator<MultiChannelDiffuser *> >::construct<MultiChannelDiffuser *,MultiChannelDiffuser *>
PUBLIC	??$_Unfancy@PEAVMultiChannelDiffuser@@@std@@YAPEAPEAVMultiChannelDiffuser@@PEAPEAV1@@Z ; std::_Unfancy<MultiChannelDiffuser *>
PUBLIC	??$forward@PEAVMultiChannelDiffuser@@@std@@YA$$QEAPEAVMultiChannelDiffuser@@AEAPEAV1@@Z ; std::forward<MultiChannelDiffuser *>
PUBLIC	??$move@AEAPEAVMultiChannelDiffuser@@@std@@YA$$QEAPEAVMultiChannelDiffuser@@AEAPEAV1@@Z ; std::move<MultiChannelDiffuser * &>
PUBLIC	??$?0$$V@?$_Compressed_pair@V?$allocator@PEAVModMultiChannelDiffuser@@@std@@V?$_Vector_val@U?$_Simple_types@PEAVModMultiChannelDiffuser@@@std@@@2@$00@std@@QEAA@U_Zero_then_variadic_args_t@1@@Z ; std::_Compressed_pair<std::allocator<ModMultiChannelDiffuser *>,std::_Vector_val<std::_Simple_types<ModMultiChannelDiffuser *> >,1>::_Compressed_pair<std::allocator<ModMultiChannelDiffuser *>,std::_Vector_val<std::_Simple_types<ModMultiChannelDiffuser *> >,1><>
PUBLIC	??$_Emplace_reallocate@PEAVModMultiChannelDiffuser@@@?$vector@PEAVModMultiChannelDiffuser@@V?$allocator@PEAVModMultiChannelDiffuser@@@std@@@std@@QEAAPEAPEAVModMultiChannelDiffuser@@QEAPEAV2@$$QEAPEAV2@@Z ; std::vector<ModMultiChannelDiffuser *,std::allocator<ModMultiChannelDiffuser *> >::_Emplace_reallocate<ModMultiChannelDiffuser *>
PUBLIC	??$construct@PEAVModMultiChannelDiffuser@@PEAV1@@?$_Default_allocator_traits@V?$allocator@PEAVModMultiChannelDiffuser@@@std@@@std@@SAXAEAV?$allocator@PEAVModMultiChannelDiffuser@@@1@QEAPEAVModMultiChannelDiffuser@@$$QEAPEAV3@@Z ; std::_Default_allocator_traits<std::allocator<ModMultiChannelDiffuser *> >::construct<ModMultiChannelDiffuser *,ModMultiChannelDiffuser *>
PUBLIC	??$_Unfancy@PEAVModMultiChannelDiffuser@@@std@@YAPEAPEAVModMultiChannelDiffuser@@PEAPEAV1@@Z ; std::_Unfancy<ModMultiChannelDiffuser *>
PUBLIC	??$forward@PEAVModMultiChannelDiffuser@@@std@@YA$$QEAPEAVModMultiChannelDiffuser@@AEAPEAV1@@Z ; std::forward<ModMultiChannelDiffuser *>
PUBLIC	??$move@AEAPEAVModMultiChannelDiffuser@@@std@@YA$$QEAPEAVModMultiChannelDiffuser@@AEAPEAV1@@Z ; std::move<ModMultiChannelDiffuser * &>
PUBLIC	??$?0$$V@?$_Compressed_pair@V?$allocator@PEAVLowPassFilter@@@std@@V?$_Vector_val@U?$_Simple_types@PEAVLowPassFilter@@@std@@@2@$00@std@@QEAA@U_Zero_then_variadic_args_t@1@@Z ; std::_Compressed_pair<std::allocator<LowPassFilter *>,std::_Vector_val<std::_Simple_types<LowPassFilter *> >,1>::_Compressed_pair<std::allocator<LowPassFilter *>,std::_Vector_val<std::_Simple_types<LowPassFilter *> >,1><>
PUBLIC	??$_Emplace_reallocate@PEAVLowPassFilter@@@?$vector@PEAVLowPassFilter@@V?$allocator@PEAVLowPassFilter@@@std@@@std@@QEAAPEAPEAVLowPassFilter@@QEAPEAV2@$$QEAPEAV2@@Z ; std::vector<LowPassFilter *,std::allocator<LowPassFilter *> >::_Emplace_reallocate<LowPassFilter *>
PUBLIC	??$construct@PEAVLowPassFilter@@PEAV1@@?$_Default_allocator_traits@V?$allocator@PEAVLowPassFilter@@@std@@@std@@SAXAEAV?$allocator@PEAVLowPassFilter@@@1@QEAPEAVLowPassFilter@@$$QEAPEAV3@@Z ; std::_Default_allocator_traits<std::allocator<LowPassFilter *> >::construct<LowPassFilter *,LowPassFilter *>
PUBLIC	??$_Unfancy@PEAVLowPassFilter@@@std@@YAPEAPEAVLowPassFilter@@PEAPEAV1@@Z ; std::_Unfancy<LowPassFilter *>
PUBLIC	??$forward@PEAVLowPassFilter@@@std@@YA$$QEAPEAVLowPassFilter@@AEAPEAV1@@Z ; std::forward<LowPassFilter *>
PUBLIC	??$move@AEAPEAVLowPassFilter@@@std@@YA$$QEAPEAVLowPassFilter@@AEAPEAV1@@Z ; std::move<LowPassFilter * &>
PUBLIC	??$?0$$V@?$_Compressed_pair@V?$allocator@PEAVModulation@@@std@@V?$_Vector_val@U?$_Simple_types@PEAVModulation@@@std@@@2@$00@std@@QEAA@U_Zero_then_variadic_args_t@1@@Z ; std::_Compressed_pair<std::allocator<Modulation *>,std::_Vector_val<std::_Simple_types<Modulation *> >,1>::_Compressed_pair<std::allocator<Modulation *>,std::_Vector_val<std::_Simple_types<Modulation *> >,1><>
PUBLIC	??$_Emplace_reallocate@PEAVModulation@@@?$vector@PEAVModulation@@V?$allocator@PEAVModulation@@@std@@@std@@QEAAPEAPEAVModulation@@QEAPEAV2@$$QEAPEAV2@@Z ; std::vector<Modulation *,std::allocator<Modulation *> >::_Emplace_reallocate<Modulation *>
PUBLIC	??$construct@PEAVModulation@@PEAV1@@?$_Default_allocator_traits@V?$allocator@PEAVModulation@@@std@@@std@@SAXAEAV?$allocator@PEAVModulation@@@1@QEAPEAVModulation@@$$QEAPEAV3@@Z ; std::_Default_allocator_traits<std::allocator<Modulation *> >::construct<Modulation *,Modulation *>
PUBLIC	??$_Unfancy@PEAVModulation@@@std@@YAPEAPEAVModulation@@PEAPEAV1@@Z ; std::_Unfancy<Modulation *>
PUBLIC	??$forward@PEAVModulation@@@std@@YA$$QEAPEAVModulation@@AEAPEAV1@@Z ; std::forward<Modulation *>
PUBLIC	??$move@AEAPEAVModulation@@@std@@YA$$QEAPEAVModulation@@AEAPEAV1@@Z ; std::move<Modulation * &>
PUBLIC	??$?0$$V@?$_Compressed_pair@V?$allocator@PEAVHighPassFilter@@@std@@V?$_Vector_val@U?$_Simple_types@PEAVHighPassFilter@@@std@@@2@$00@std@@QEAA@U_Zero_then_variadic_args_t@1@@Z ; std::_Compressed_pair<std::allocator<HighPassFilter *>,std::_Vector_val<std::_Simple_types<HighPassFilter *> >,1>::_Compressed_pair<std::allocator<HighPassFilter *>,std::_Vector_val<std::_Simple_types<HighPassFilter *> >,1><>
PUBLIC	??$_Emplace_reallocate@PEAVHighPassFilter@@@?$vector@PEAVHighPassFilter@@V?$allocator@PEAVHighPassFilter@@@std@@@std@@QEAAPEAPEAVHighPassFilter@@QEAPEAV2@$$QEAPEAV2@@Z ; std::vector<HighPassFilter *,std::allocator<HighPassFilter *> >::_Emplace_reallocate<HighPassFilter *>
PUBLIC	??$construct@PEAVHighPassFilter@@PEAV1@@?$_Default_allocator_traits@V?$allocator@PEAVHighPassFilter@@@std@@@std@@SAXAEAV?$allocator@PEAVHighPassFilter@@@1@QEAPEAVHighPassFilter@@$$QEAPEAV3@@Z ; std::_Default_allocator_traits<std::allocator<HighPassFilter *> >::construct<HighPassFilter *,HighPassFilter *>
PUBLIC	??$_Unfancy@PEAVHighPassFilter@@@std@@YAPEAPEAVHighPassFilter@@PEAPEAV1@@Z ; std::_Unfancy<HighPassFilter *>
PUBLIC	??$forward@PEAVHighPassFilter@@@std@@YA$$QEAPEAVHighPassFilter@@AEAPEAV1@@Z ; std::forward<HighPassFilter *>
PUBLIC	??$move@AEAPEAVHighPassFilter@@@std@@YA$$QEAPEAVHighPassFilter@@AEAPEAV1@@Z ; std::move<HighPassFilter * &>
PUBLIC	?_Take_contents@?$_Vector_val@U?$_Simple_types@M@std@@@std@@QEAAXAEAV12@@Z ; std::_Vector_val<std::_Simple_types<float> >::_Take_contents
PUBLIC	?deallocate@?$allocator@PEAVDelay@@@std@@QEAAXQEAPEAVDelay@@_K@Z ; std::allocator<Delay *>::deallocate
PUBLIC	?_Get_first@?$_Compressed_pair@V?$allocator@PEAVDelay@@@std@@V?$_Vector_val@U?$_Simple_types@PEAVDelay@@@std@@@2@$00@std@@QEAAAEAV?$allocator@PEAVDelay@@@2@XZ ; std::_Compressed_pair<std::allocator<Delay *>,std::_Vector_val<std::_Simple_types<Delay *> >,1>::_Get_first
PUBLIC	?deallocate@?$allocator@H@std@@QEAAXQEAH_K@Z	; std::allocator<int>::deallocate
PUBLIC	?_Get_first@?$_Compressed_pair@V?$allocator@H@std@@V?$_Vector_val@U?$_Simple_types@H@std@@@2@$00@std@@QEAAAEAV?$allocator@H@2@XZ ; std::_Compressed_pair<std::allocator<int>,std::_Vector_val<std::_Simple_types<int> >,1>::_Get_first
PUBLIC	?deallocate@?$allocator@PEAVModDelay@@@std@@QEAAXQEAPEAVModDelay@@_K@Z ; std::allocator<ModDelay *>::deallocate
PUBLIC	?_Get_first@?$_Compressed_pair@V?$allocator@PEAVModDelay@@@std@@V?$_Vector_val@U?$_Simple_types@PEAVModDelay@@@std@@@2@$00@std@@QEAAAEAV?$allocator@PEAVModDelay@@@2@XZ ; std::_Compressed_pair<std::allocator<ModDelay *>,std::_Vector_val<std::_Simple_types<ModDelay *> >,1>::_Get_first
PUBLIC	?deallocate@?$allocator@PEAVMultiChannelDiffuser@@@std@@QEAAXQEAPEAVMultiChannelDiffuser@@_K@Z ; std::allocator<MultiChannelDiffuser *>::deallocate
PUBLIC	?_Get_first@?$_Compressed_pair@V?$allocator@PEAVMultiChannelDiffuser@@@std@@V?$_Vector_val@U?$_Simple_types@PEAVMultiChannelDiffuser@@@std@@@2@$00@std@@QEAAAEAV?$allocator@PEAVMultiChannelDiffuser@@@2@XZ ; std::_Compressed_pair<std::allocator<MultiChannelDiffuser *>,std::_Vector_val<std::_Simple_types<MultiChannelDiffuser *> >,1>::_Get_first
PUBLIC	?deallocate@?$allocator@PEAVModMultiChannelDiffuser@@@std@@QEAAXQEAPEAVModMultiChannelDiffuser@@_K@Z ; std::allocator<ModMultiChannelDiffuser *>::deallocate
PUBLIC	?_Get_first@?$_Compressed_pair@V?$allocator@PEAVModMultiChannelDiffuser@@@std@@V?$_Vector_val@U?$_Simple_types@PEAVModMultiChannelDiffuser@@@std@@@2@$00@std@@QEAAAEAV?$allocator@PEAVModMultiChannelDiffuser@@@2@XZ ; std::_Compressed_pair<std::allocator<ModMultiChannelDiffuser *>,std::_Vector_val<std::_Simple_types<ModMultiChannelDiffuser *> >,1>::_Get_first
PUBLIC	?deallocate@?$allocator@PEAVLowPassFilter@@@std@@QEAAXQEAPEAVLowPassFilter@@_K@Z ; std::allocator<LowPassFilter *>::deallocate
PUBLIC	?_Get_first@?$_Compressed_pair@V?$allocator@PEAVLowPassFilter@@@std@@V?$_Vector_val@U?$_Simple_types@PEAVLowPassFilter@@@std@@@2@$00@std@@QEAAAEAV?$allocator@PEAVLowPassFilter@@@2@XZ ; std::_Compressed_pair<std::allocator<LowPassFilter *>,std::_Vector_val<std::_Simple_types<LowPassFilter *> >,1>::_Get_first
PUBLIC	?deallocate@?$allocator@PEAVModulation@@@std@@QEAAXQEAPEAVModulation@@_K@Z ; std::allocator<Modulation *>::deallocate
PUBLIC	?_Get_first@?$_Compressed_pair@V?$allocator@PEAVModulation@@@std@@V?$_Vector_val@U?$_Simple_types@PEAVModulation@@@std@@@2@$00@std@@QEAAAEAV?$allocator@PEAVModulation@@@2@XZ ; std::_Compressed_pair<std::allocator<Modulation *>,std::_Vector_val<std::_Simple_types<Modulation *> >,1>::_Get_first
PUBLIC	?deallocate@?$allocator@PEAVHighPassFilter@@@std@@QEAAXQEAPEAVHighPassFilter@@_K@Z ; std::allocator<HighPassFilter *>::deallocate
PUBLIC	?_Get_first@?$_Compressed_pair@V?$allocator@PEAVHighPassFilter@@@std@@V?$_Vector_val@U?$_Simple_types@PEAVHighPassFilter@@@std@@@2@$00@std@@QEAAAEAV?$allocator@PEAVHighPassFilter@@@2@XZ ; std::_Compressed_pair<std::allocator<HighPassFilter *>,std::_Vector_val<std::_Simple_types<HighPassFilter *> >,1>::_Get_first
PUBLIC	?_Move_assign@?$vector@MV?$allocator@M@std@@@std@@AEAAXAEAV12@U_Equal_allocators@2@@Z ; std::vector<float,std::allocator<float> >::_Move_assign
PUBLIC	?_Reallocate_exactly@?$vector@MV?$allocator@M@std@@@std@@AEAAX_K@Z ; std::vector<float,std::allocator<float> >::_Reallocate_exactly
PUBLIC	?_Destroy@?$vector@PEAVDelay@@V?$allocator@PEAVDelay@@@std@@@std@@AEAAXPEAPEAVDelay@@0@Z ; std::vector<Delay *,std::allocator<Delay *> >::_Destroy
PUBLIC	?_Tidy@?$vector@PEAVDelay@@V?$allocator@PEAVDelay@@@std@@@std@@AEAAXXZ ; std::vector<Delay *,std::allocator<Delay *> >::_Tidy
PUBLIC	?_Orphan_range@?$vector@PEAVDelay@@V?$allocator@PEAVDelay@@@std@@@std@@AEBAXPEAPEAVDelay@@0@Z ; std::vector<Delay *,std::allocator<Delay *> >::_Orphan_range
PUBLIC	?_Getal@?$vector@PEAVDelay@@V?$allocator@PEAVDelay@@@std@@@std@@AEAAAEAV?$allocator@PEAVDelay@@@2@XZ ; std::vector<Delay *,std::allocator<Delay *> >::_Getal
PUBLIC	?_Destroy@?$vector@HV?$allocator@H@std@@@std@@AEAAXPEAH0@Z ; std::vector<int,std::allocator<int> >::_Destroy
PUBLIC	?_Tidy@?$vector@HV?$allocator@H@std@@@std@@AEAAXXZ ; std::vector<int,std::allocator<int> >::_Tidy
PUBLIC	?_Orphan_range@?$vector@HV?$allocator@H@std@@@std@@AEBAXPEAH0@Z ; std::vector<int,std::allocator<int> >::_Orphan_range
PUBLIC	?_Getal@?$vector@HV?$allocator@H@std@@@std@@AEAAAEAV?$allocator@H@2@XZ ; std::vector<int,std::allocator<int> >::_Getal
PUBLIC	?_Destroy@?$vector@PEAVModDelay@@V?$allocator@PEAVModDelay@@@std@@@std@@AEAAXPEAPEAVModDelay@@0@Z ; std::vector<ModDelay *,std::allocator<ModDelay *> >::_Destroy
PUBLIC	?_Tidy@?$vector@PEAVModDelay@@V?$allocator@PEAVModDelay@@@std@@@std@@AEAAXXZ ; std::vector<ModDelay *,std::allocator<ModDelay *> >::_Tidy
PUBLIC	?_Orphan_range@?$vector@PEAVModDelay@@V?$allocator@PEAVModDelay@@@std@@@std@@AEBAXPEAPEAVModDelay@@0@Z ; std::vector<ModDelay *,std::allocator<ModDelay *> >::_Orphan_range
PUBLIC	?_Getal@?$vector@PEAVModDelay@@V?$allocator@PEAVModDelay@@@std@@@std@@AEAAAEAV?$allocator@PEAVModDelay@@@2@XZ ; std::vector<ModDelay *,std::allocator<ModDelay *> >::_Getal
PUBLIC	?_Destroy@?$vector@PEAVMultiChannelDiffuser@@V?$allocator@PEAVMultiChannelDiffuser@@@std@@@std@@AEAAXPEAPEAVMultiChannelDiffuser@@0@Z ; std::vector<MultiChannelDiffuser *,std::allocator<MultiChannelDiffuser *> >::_Destroy
PUBLIC	?_Tidy@?$vector@PEAVMultiChannelDiffuser@@V?$allocator@PEAVMultiChannelDiffuser@@@std@@@std@@AEAAXXZ ; std::vector<MultiChannelDiffuser *,std::allocator<MultiChannelDiffuser *> >::_Tidy
PUBLIC	?_Orphan_range@?$vector@PEAVMultiChannelDiffuser@@V?$allocator@PEAVMultiChannelDiffuser@@@std@@@std@@AEBAXPEAPEAVMultiChannelDiffuser@@0@Z ; std::vector<MultiChannelDiffuser *,std::allocator<MultiChannelDiffuser *> >::_Orphan_range
PUBLIC	?_Getal@?$vector@PEAVMultiChannelDiffuser@@V?$allocator@PEAVMultiChannelDiffuser@@@std@@@std@@AEAAAEAV?$allocator@PEAVMultiChannelDiffuser@@@2@XZ ; std::vector<MultiChannelDiffuser *,std::allocator<MultiChannelDiffuser *> >::_Getal
PUBLIC	?_Destroy@?$vector@PEAVModMultiChannelDiffuser@@V?$allocator@PEAVModMultiChannelDiffuser@@@std@@@std@@AEAAXPEAPEAVModMultiChannelDiffuser@@0@Z ; std::vector<ModMultiChannelDiffuser *,std::allocator<ModMultiChannelDiffuser *> >::_Destroy
PUBLIC	?_Tidy@?$vector@PEAVModMultiChannelDiffuser@@V?$allocator@PEAVModMultiChannelDiffuser@@@std@@@std@@AEAAXXZ ; std::vector<ModMultiChannelDiffuser *,std::allocator<ModMultiChannelDiffuser *> >::_Tidy
PUBLIC	?_Orphan_range@?$vector@PEAVModMultiChannelDiffuser@@V?$allocator@PEAVModMultiChannelDiffuser@@@std@@@std@@AEBAXPEAPEAVModMultiChannelDiffuser@@0@Z ; std::vector<ModMultiChannelDiffuser *,std::allocator<ModMultiChannelDiffuser *> >::_Orphan_range
PUBLIC	?_Getal@?$vector@PEAVModMultiChannelDiffuser@@V?$allocator@PEAVModMultiChannelDiffuser@@@std@@@std@@AEAAAEAV?$allocator@PEAVModMultiChannelDiffuser@@@2@XZ ; std::vector<ModMultiChannelDiffuser *,std::allocator<ModMultiChannelDiffuser *> >::_Getal
PUBLIC	?_Destroy@?$vector@PEAVLowPassFilter@@V?$allocator@PEAVLowPassFilter@@@std@@@std@@AEAAXPEAPEAVLowPassFilter@@0@Z ; std::vector<LowPassFilter *,std::allocator<LowPassFilter *> >::_Destroy
PUBLIC	?_Tidy@?$vector@PEAVLowPassFilter@@V?$allocator@PEAVLowPassFilter@@@std@@@std@@AEAAXXZ ; std::vector<LowPassFilter *,std::allocator<LowPassFilter *> >::_Tidy
PUBLIC	?_Orphan_range@?$vector@PEAVLowPassFilter@@V?$allocator@PEAVLowPassFilter@@@std@@@std@@AEBAXPEAPEAVLowPassFilter@@0@Z ; std::vector<LowPassFilter *,std::allocator<LowPassFilter *> >::_Orphan_range
PUBLIC	?_Getal@?$vector@PEAVLowPassFilter@@V?$allocator@PEAVLowPassFilter@@@std@@@std@@AEAAAEAV?$allocator@PEAVLowPassFilter@@@2@XZ ; std::vector<LowPassFilter *,std::allocator<LowPassFilter *> >::_Getal
PUBLIC	?_Destroy@?$vector@PEAVModulation@@V?$allocator@PEAVModulation@@@std@@@std@@AEAAXPEAPEAVModulation@@0@Z ; std::vector<Modulation *,std::allocator<Modulation *> >::_Destroy
PUBLIC	?_Tidy@?$vector@PEAVModulation@@V?$allocator@PEAVModulation@@@std@@@std@@AEAAXXZ ; std::vector<Modulation *,std::allocator<Modulation *> >::_Tidy
PUBLIC	?_Orphan_range@?$vector@PEAVModulation@@V?$allocator@PEAVModulation@@@std@@@std@@AEBAXPEAPEAVModulation@@0@Z ; std::vector<Modulation *,std::allocator<Modulation *> >::_Orphan_range
PUBLIC	?_Getal@?$vector@PEAVModulation@@V?$allocator@PEAVModulation@@@std@@@std@@AEAAAEAV?$allocator@PEAVModulation@@@2@XZ ; std::vector<Modulation *,std::allocator<Modulation *> >::_Getal
PUBLIC	?_Destroy@?$vector@PEAVHighPassFilter@@V?$allocator@PEAVHighPassFilter@@@std@@@std@@AEAAXPEAPEAVHighPassFilter@@0@Z ; std::vector<HighPassFilter *,std::allocator<HighPassFilter *> >::_Destroy
PUBLIC	?_Tidy@?$vector@PEAVHighPassFilter@@V?$allocator@PEAVHighPassFilter@@@std@@@std@@AEAAXXZ ; std::vector<HighPassFilter *,std::allocator<HighPassFilter *> >::_Tidy
PUBLIC	?_Orphan_range@?$vector@PEAVHighPassFilter@@V?$allocator@PEAVHighPassFilter@@@std@@@std@@AEBAXPEAPEAVHighPassFilter@@0@Z ; std::vector<HighPassFilter *,std::allocator<HighPassFilter *> >::_Orphan_range
PUBLIC	?_Getal@?$vector@PEAVHighPassFilter@@V?$allocator@PEAVHighPassFilter@@@std@@@std@@AEAAAEAV?$allocator@PEAVHighPassFilter@@@2@XZ ; std::vector<HighPassFilter *,std::allocator<HighPassFilter *> >::_Getal
PUBLIC	??0?$vector@MV?$allocator@M@std@@@std@@QEAA@_KAEBV?$allocator@M@1@@Z ; std::vector<float,std::allocator<float> >::vector<float,std::allocator<float> >
PUBLIC	??0?$vector@MV?$allocator@M@std@@@std@@QEAA@$$QEAV01@@Z ; std::vector<float,std::allocator<float> >::vector<float,std::allocator<float> >
PUBLIC	??4?$vector@MV?$allocator@M@std@@@std@@QEAAAEAV01@$$QEAV01@@Z ; std::vector<float,std::allocator<float> >::operator=
PUBLIC	?reserve@?$vector@MV?$allocator@M@std@@@std@@QEAAX_K@Z ; std::vector<float,std::allocator<float> >::reserve
PUBLIC	??0?$vector@PEAVDelay@@V?$allocator@PEAVDelay@@@std@@@std@@QEAA@XZ ; std::vector<Delay *,std::allocator<Delay *> >::vector<Delay *,std::allocator<Delay *> >
PUBLIC	??1?$vector@PEAVDelay@@V?$allocator@PEAVDelay@@@std@@@std@@QEAA@XZ ; std::vector<Delay *,std::allocator<Delay *> >::~vector<Delay *,std::allocator<Delay *> >
PUBLIC	??$_Emplace_back_with_unused_capacity@PEAVDelay@@@?$vector@PEAVDelay@@V?$allocator@PEAVDelay@@@std@@@std@@AEAA?A_T$$QEAPEAVDelay@@@Z ; std::vector<Delay *,std::allocator<Delay *> >::_Emplace_back_with_unused_capacity<Delay *>
PUBLIC	??$emplace_back@PEAVDelay@@@?$vector@PEAVDelay@@V?$allocator@PEAVDelay@@@std@@@std@@QEAA?A_T$$QEAPEAVDelay@@@Z ; std::vector<Delay *,std::allocator<Delay *> >::emplace_back<Delay *>
PUBLIC	?push_back@?$vector@PEAVDelay@@V?$allocator@PEAVDelay@@@std@@@std@@QEAAX$$QEAPEAVDelay@@@Z ; std::vector<Delay *,std::allocator<Delay *> >::push_back
PUBLIC	?clear@?$vector@PEAVDelay@@V?$allocator@PEAVDelay@@@std@@@std@@QEAAXXZ ; std::vector<Delay *,std::allocator<Delay *> >::clear
PUBLIC	?empty@?$vector@PEAVDelay@@V?$allocator@PEAVDelay@@@std@@@std@@QEBA_NXZ ; std::vector<Delay *,std::allocator<Delay *> >::empty
PUBLIC	?size@?$vector@PEAVDelay@@V?$allocator@PEAVDelay@@@std@@@std@@QEBA_KXZ ; std::vector<Delay *,std::allocator<Delay *> >::size
PUBLIC	??A?$vector@PEAVDelay@@V?$allocator@PEAVDelay@@@std@@@std@@QEAAAEAPEAVDelay@@_K@Z ; std::vector<Delay *,std::allocator<Delay *> >::operator[]
PUBLIC	??0?$vector@HV?$allocator@H@std@@@std@@QEAA@XZ	; std::vector<int,std::allocator<int> >::vector<int,std::allocator<int> >
PUBLIC	??1?$vector@HV?$allocator@H@std@@@std@@QEAA@XZ	; std::vector<int,std::allocator<int> >::~vector<int,std::allocator<int> >
PUBLIC	??$_Emplace_back_with_unused_capacity@H@?$vector@HV?$allocator@H@std@@@std@@AEAA?A_T$$QEAH@Z ; std::vector<int,std::allocator<int> >::_Emplace_back_with_unused_capacity<int>
PUBLIC	??$emplace_back@H@?$vector@HV?$allocator@H@std@@@std@@QEAA?A_T$$QEAH@Z ; std::vector<int,std::allocator<int> >::emplace_back<int>
PUBLIC	?push_back@?$vector@HV?$allocator@H@std@@@std@@QEAAX$$QEAH@Z ; std::vector<int,std::allocator<int> >::push_back
PUBLIC	?clear@?$vector@HV?$allocator@H@std@@@std@@QEAAXXZ ; std::vector<int,std::allocator<int> >::clear
PUBLIC	?empty@?$vector@HV?$allocator@H@std@@@std@@QEBA_NXZ ; std::vector<int,std::allocator<int> >::empty
PUBLIC	??A?$vector@HV?$allocator@H@std@@@std@@QEAAAEAH_K@Z ; std::vector<int,std::allocator<int> >::operator[]
PUBLIC	??0?$vector@PEAVModDelay@@V?$allocator@PEAVModDelay@@@std@@@std@@QEAA@XZ ; std::vector<ModDelay *,std::allocator<ModDelay *> >::vector<ModDelay *,std::allocator<ModDelay *> >
PUBLIC	??1?$vector@PEAVModDelay@@V?$allocator@PEAVModDelay@@@std@@@std@@QEAA@XZ ; std::vector<ModDelay *,std::allocator<ModDelay *> >::~vector<ModDelay *,std::allocator<ModDelay *> >
PUBLIC	??$_Emplace_back_with_unused_capacity@PEAVModDelay@@@?$vector@PEAVModDelay@@V?$allocator@PEAVModDelay@@@std@@@std@@AEAA?A_T$$QEAPEAVModDelay@@@Z ; std::vector<ModDelay *,std::allocator<ModDelay *> >::_Emplace_back_with_unused_capacity<ModDelay *>
PUBLIC	??$emplace_back@PEAVModDelay@@@?$vector@PEAVModDelay@@V?$allocator@PEAVModDelay@@@std@@@std@@QEAA?A_T$$QEAPEAVModDelay@@@Z ; std::vector<ModDelay *,std::allocator<ModDelay *> >::emplace_back<ModDelay *>
PUBLIC	?push_back@?$vector@PEAVModDelay@@V?$allocator@PEAVModDelay@@@std@@@std@@QEAAX$$QEAPEAVModDelay@@@Z ; std::vector<ModDelay *,std::allocator<ModDelay *> >::push_back
PUBLIC	?clear@?$vector@PEAVModDelay@@V?$allocator@PEAVModDelay@@@std@@@std@@QEAAXXZ ; std::vector<ModDelay *,std::allocator<ModDelay *> >::clear
PUBLIC	?empty@?$vector@PEAVModDelay@@V?$allocator@PEAVModDelay@@@std@@@std@@QEBA_NXZ ; std::vector<ModDelay *,std::allocator<ModDelay *> >::empty
PUBLIC	?size@?$vector@PEAVModDelay@@V?$allocator@PEAVModDelay@@@std@@@std@@QEBA_KXZ ; std::vector<ModDelay *,std::allocator<ModDelay *> >::size
PUBLIC	??A?$vector@PEAVModDelay@@V?$allocator@PEAVModDelay@@@std@@@std@@QEAAAEAPEAVModDelay@@_K@Z ; std::vector<ModDelay *,std::allocator<ModDelay *> >::operator[]
PUBLIC	??0?$vector@PEAVMultiChannelDiffuser@@V?$allocator@PEAVMultiChannelDiffuser@@@std@@@std@@QEAA@XZ ; std::vector<MultiChannelDiffuser *,std::allocator<MultiChannelDiffuser *> >::vector<MultiChannelDiffuser *,std::allocator<MultiChannelDiffuser *> >
PUBLIC	??1?$vector@PEAVMultiChannelDiffuser@@V?$allocator@PEAVMultiChannelDiffuser@@@std@@@std@@QEAA@XZ ; std::vector<MultiChannelDiffuser *,std::allocator<MultiChannelDiffuser *> >::~vector<MultiChannelDiffuser *,std::allocator<MultiChannelDiffuser *> >
PUBLIC	??$_Emplace_back_with_unused_capacity@PEAVMultiChannelDiffuser@@@?$vector@PEAVMultiChannelDiffuser@@V?$allocator@PEAVMultiChannelDiffuser@@@std@@@std@@AEAA?A_T$$QEAPEAVMultiChannelDiffuser@@@Z ; std::vector<MultiChannelDiffuser *,std::allocator<MultiChannelDiffuser *> >::_Emplace_back_with_unused_capacity<MultiChannelDiffuser *>
PUBLIC	??$emplace_back@PEAVMultiChannelDiffuser@@@?$vector@PEAVMultiChannelDiffuser@@V?$allocator@PEAVMultiChannelDiffuser@@@std@@@std@@QEAA?A_T$$QEAPEAVMultiChannelDiffuser@@@Z ; std::vector<MultiChannelDiffuser *,std::allocator<MultiChannelDiffuser *> >::emplace_back<MultiChannelDiffuser *>
PUBLIC	?push_back@?$vector@PEAVMultiChannelDiffuser@@V?$allocator@PEAVMultiChannelDiffuser@@@std@@@std@@QEAAX$$QEAPEAVMultiChannelDiffuser@@@Z ; std::vector<MultiChannelDiffuser *,std::allocator<MultiChannelDiffuser *> >::push_back
PUBLIC	?clear@?$vector@PEAVMultiChannelDiffuser@@V?$allocator@PEAVMultiChannelDiffuser@@@std@@@std@@QEAAXXZ ; std::vector<MultiChannelDiffuser *,std::allocator<MultiChannelDiffuser *> >::clear
PUBLIC	?empty@?$vector@PEAVMultiChannelDiffuser@@V?$allocator@PEAVMultiChannelDiffuser@@@std@@@std@@QEBA_NXZ ; std::vector<MultiChannelDiffuser *,std::allocator<MultiChannelDiffuser *> >::empty
PUBLIC	?size@?$vector@PEAVMultiChannelDiffuser@@V?$allocator@PEAVMultiChannelDiffuser@@@std@@@std@@QEBA_KXZ ; std::vector<MultiChannelDiffuser *,std::allocator<MultiChannelDiffuser *> >::size
PUBLIC	??A?$vector@PEAVMultiChannelDiffuser@@V?$allocator@PEAVMultiChannelDiffuser@@@std@@@std@@QEAAAEAPEAVMultiChannelDiffuser@@_K@Z ; std::vector<MultiChannelDiffuser *,std::allocator<MultiChannelDiffuser *> >::operator[]
PUBLIC	??0?$vector@PEAVModMultiChannelDiffuser@@V?$allocator@PEAVModMultiChannelDiffuser@@@std@@@std@@QEAA@XZ ; std::vector<ModMultiChannelDiffuser *,std::allocator<ModMultiChannelDiffuser *> >::vector<ModMultiChannelDiffuser *,std::allocator<ModMultiChannelDiffuser *> >
PUBLIC	??1?$vector@PEAVModMultiChannelDiffuser@@V?$allocator@PEAVModMultiChannelDiffuser@@@std@@@std@@QEAA@XZ ; std::vector<ModMultiChannelDiffuser *,std::allocator<ModMultiChannelDiffuser *> >::~vector<ModMultiChannelDiffuser *,std::allocator<ModMultiChannelDiffuser *> >
PUBLIC	??$_Emplace_back_with_unused_capacity@PEAVModMultiChannelDiffuser@@@?$vector@PEAVModMultiChannelDiffuser@@V?$allocator@PEAVModMultiChannelDiffuser@@@std@@@std@@AEAA?A_T$$QEAPEAVModMultiChannelDiffuser@@@Z ; std::vector<ModMultiChannelDiffuser *,std::allocator<ModMultiChannelDiffuser *> >::_Emplace_back_with_unused_capacity<ModMultiChannelDiffuser *>
PUBLIC	??$emplace_back@PEAVModMultiChannelDiffuser@@@?$vector@PEAVModMultiChannelDiffuser@@V?$allocator@PEAVModMultiChannelDiffuser@@@std@@@std@@QEAA?A_T$$QEAPEAVModMultiChannelDiffuser@@@Z ; std::vector<ModMultiChannelDiffuser *,std::allocator<ModMultiChannelDiffuser *> >::emplace_back<ModMultiChannelDiffuser *>
PUBLIC	?push_back@?$vector@PEAVModMultiChannelDiffuser@@V?$allocator@PEAVModMultiChannelDiffuser@@@std@@@std@@QEAAX$$QEAPEAVModMultiChannelDiffuser@@@Z ; std::vector<ModMultiChannelDiffuser *,std::allocator<ModMultiChannelDiffuser *> >::push_back
PUBLIC	?clear@?$vector@PEAVModMultiChannelDiffuser@@V?$allocator@PEAVModMultiChannelDiffuser@@@std@@@std@@QEAAXXZ ; std::vector<ModMultiChannelDiffuser *,std::allocator<ModMultiChannelDiffuser *> >::clear
PUBLIC	?empty@?$vector@PEAVModMultiChannelDiffuser@@V?$allocator@PEAVModMultiChannelDiffuser@@@std@@@std@@QEBA_NXZ ; std::vector<ModMultiChannelDiffuser *,std::allocator<ModMultiChannelDiffuser *> >::empty
PUBLIC	?size@?$vector@PEAVModMultiChannelDiffuser@@V?$allocator@PEAVModMultiChannelDiffuser@@@std@@@std@@QEBA_KXZ ; std::vector<ModMultiChannelDiffuser *,std::allocator<ModMultiChannelDiffuser *> >::size
PUBLIC	??A?$vector@PEAVModMultiChannelDiffuser@@V?$allocator@PEAVModMultiChannelDiffuser@@@std@@@std@@QEAAAEAPEAVModMultiChannelDiffuser@@_K@Z ; std::vector<ModMultiChannelDiffuser *,std::allocator<ModMultiChannelDiffuser *> >::operator[]
PUBLIC	??0?$vector@PEAVLowPassFilter@@V?$allocator@PEAVLowPassFilter@@@std@@@std@@QEAA@XZ ; std::vector<LowPassFilter *,std::allocator<LowPassFilter *> >::vector<LowPassFilter *,std::allocator<LowPassFilter *> >
PUBLIC	??1?$vector@PEAVLowPassFilter@@V?$allocator@PEAVLowPassFilter@@@std@@@std@@QEAA@XZ ; std::vector<LowPassFilter *,std::allocator<LowPassFilter *> >::~vector<LowPassFilter *,std::allocator<LowPassFilter *> >
PUBLIC	??$_Emplace_back_with_unused_capacity@PEAVLowPassFilter@@@?$vector@PEAVLowPassFilter@@V?$allocator@PEAVLowPassFilter@@@std@@@std@@AEAA?A_T$$QEAPEAVLowPassFilter@@@Z ; std::vector<LowPassFilter *,std::allocator<LowPassFilter *> >::_Emplace_back_with_unused_capacity<LowPassFilter *>
PUBLIC	??$emplace_back@PEAVLowPassFilter@@@?$vector@PEAVLowPassFilter@@V?$allocator@PEAVLowPassFilter@@@std@@@std@@QEAA?A_T$$QEAPEAVLowPassFilter@@@Z ; std::vector<LowPassFilter *,std::allocator<LowPassFilter *> >::emplace_back<LowPassFilter *>
PUBLIC	?push_back@?$vector@PEAVLowPassFilter@@V?$allocator@PEAVLowPassFilter@@@std@@@std@@QEAAX$$QEAPEAVLowPassFilter@@@Z ; std::vector<LowPassFilter *,std::allocator<LowPassFilter *> >::push_back
PUBLIC	?clear@?$vector@PEAVLowPassFilter@@V?$allocator@PEAVLowPassFilter@@@std@@@std@@QEAAXXZ ; std::vector<LowPassFilter *,std::allocator<LowPassFilter *> >::clear
PUBLIC	?empty@?$vector@PEAVLowPassFilter@@V?$allocator@PEAVLowPassFilter@@@std@@@std@@QEBA_NXZ ; std::vector<LowPassFilter *,std::allocator<LowPassFilter *> >::empty
PUBLIC	?size@?$vector@PEAVLowPassFilter@@V?$allocator@PEAVLowPassFilter@@@std@@@std@@QEBA_KXZ ; std::vector<LowPassFilter *,std::allocator<LowPassFilter *> >::size
PUBLIC	??A?$vector@PEAVLowPassFilter@@V?$allocator@PEAVLowPassFilter@@@std@@@std@@QEAAAEAPEAVLowPassFilter@@_K@Z ; std::vector<LowPassFilter *,std::allocator<LowPassFilter *> >::operator[]
PUBLIC	??0?$vector@PEAVModulation@@V?$allocator@PEAVModulation@@@std@@@std@@QEAA@XZ ; std::vector<Modulation *,std::allocator<Modulation *> >::vector<Modulation *,std::allocator<Modulation *> >
PUBLIC	??1?$vector@PEAVModulation@@V?$allocator@PEAVModulation@@@std@@@std@@QEAA@XZ ; std::vector<Modulation *,std::allocator<Modulation *> >::~vector<Modulation *,std::allocator<Modulation *> >
PUBLIC	??$_Emplace_back_with_unused_capacity@PEAVModulation@@@?$vector@PEAVModulation@@V?$allocator@PEAVModulation@@@std@@@std@@AEAA?A_T$$QEAPEAVModulation@@@Z ; std::vector<Modulation *,std::allocator<Modulation *> >::_Emplace_back_with_unused_capacity<Modulation *>
PUBLIC	??$emplace_back@PEAVModulation@@@?$vector@PEAVModulation@@V?$allocator@PEAVModulation@@@std@@@std@@QEAA?A_T$$QEAPEAVModulation@@@Z ; std::vector<Modulation *,std::allocator<Modulation *> >::emplace_back<Modulation *>
PUBLIC	?push_back@?$vector@PEAVModulation@@V?$allocator@PEAVModulation@@@std@@@std@@QEAAX$$QEAPEAVModulation@@@Z ; std::vector<Modulation *,std::allocator<Modulation *> >::push_back
PUBLIC	?clear@?$vector@PEAVModulation@@V?$allocator@PEAVModulation@@@std@@@std@@QEAAXXZ ; std::vector<Modulation *,std::allocator<Modulation *> >::clear
PUBLIC	?empty@?$vector@PEAVModulation@@V?$allocator@PEAVModulation@@@std@@@std@@QEBA_NXZ ; std::vector<Modulation *,std::allocator<Modulation *> >::empty
PUBLIC	?size@?$vector@PEAVModulation@@V?$allocator@PEAVModulation@@@std@@@std@@QEBA_KXZ ; std::vector<Modulation *,std::allocator<Modulation *> >::size
PUBLIC	??A?$vector@PEAVModulation@@V?$allocator@PEAVModulation@@@std@@@std@@QEAAAEAPEAVModulation@@_K@Z ; std::vector<Modulation *,std::allocator<Modulation *> >::operator[]
PUBLIC	??0?$vector@PEAVHighPassFilter@@V?$allocator@PEAVHighPassFilter@@@std@@@std@@QEAA@XZ ; std::vector<HighPassFilter *,std::allocator<HighPassFilter *> >::vector<HighPassFilter *,std::allocator<HighPassFilter *> >
PUBLIC	??1?$vector@PEAVHighPassFilter@@V?$allocator@PEAVHighPassFilter@@@std@@@std@@QEAA@XZ ; std::vector<HighPassFilter *,std::allocator<HighPassFilter *> >::~vector<HighPassFilter *,std::allocator<HighPassFilter *> >
PUBLIC	??$_Emplace_back_with_unused_capacity@PEAVHighPassFilter@@@?$vector@PEAVHighPassFilter@@V?$allocator@PEAVHighPassFilter@@@std@@@std@@AEAA?A_T$$QEAPEAVHighPassFilter@@@Z ; std::vector<HighPassFilter *,std::allocator<HighPassFilter *> >::_Emplace_back_with_unused_capacity<HighPassFilter *>
PUBLIC	??$emplace_back@PEAVHighPassFilter@@@?$vector@PEAVHighPassFilter@@V?$allocator@PEAVHighPassFilter@@@std@@@std@@QEAA?A_T$$QEAPEAVHighPassFilter@@@Z ; std::vector<HighPassFilter *,std::allocator<HighPassFilter *> >::emplace_back<HighPassFilter *>
PUBLIC	?push_back@?$vector@PEAVHighPassFilter@@V?$allocator@PEAVHighPassFilter@@@std@@@std@@QEAAX$$QEAPEAVHighPassFilter@@@Z ; std::vector<HighPassFilter *,std::allocator<HighPassFilter *> >::push_back
PUBLIC	?clear@?$vector@PEAVHighPassFilter@@V?$allocator@PEAVHighPassFilter@@@std@@@std@@QEAAXXZ ; std::vector<HighPassFilter *,std::allocator<HighPassFilter *> >::clear
PUBLIC	?empty@?$vector@PEAVHighPassFilter@@V?$allocator@PEAVHighPassFilter@@@std@@@std@@QEBA_NXZ ; std::vector<HighPassFilter *,std::allocator<HighPassFilter *> >::empty
PUBLIC	?size@?$vector@PEAVHighPassFilter@@V?$allocator@PEAVHighPassFilter@@@std@@@std@@QEBA_KXZ ; std::vector<HighPassFilter *,std::allocator<HighPassFilter *> >::size
PUBLIC	??A?$vector@PEAVHighPassFilter@@V?$allocator@PEAVHighPassFilter@@@std@@@std@@QEAAAEAPEAVHighPassFilter@@_K@Z ; std::vector<HighPassFilter *,std::allocator<HighPassFilter *> >::operator[]
PUBLIC	??_GPSMVocoder@@QEAAPEAXI@Z			; PSMVocoder::`scalar deleting destructor'
PUBLIC	??_GFDN@@QEAAPEAXI@Z				; FDN::`scalar deleting destructor'
PUBLIC	??1Shimmer@@UEAA@XZ				; Shimmer::~Shimmer
PUBLIC	?getVendorString@Shimmer@@UEAA_NPEAD@Z		; Shimmer::getVendorString
PUBLIC	?getEffectName@Shimmer@@UEAA_NPEAD@Z		; Shimmer::getEffectName
PUBLIC	?setChunk@Shimmer@@UEAAHPEAXH_N@Z		; Shimmer::setChunk
PUBLIC	?getChunk@Shimmer@@UEAAHPEAPEAX_N@Z		; Shimmer::getChunk
PUBLIC	?getProgramNameIndexed@Shimmer@@UEAA_NHHPEAD@Z	; Shimmer::getProgramNameIndexed
PUBLIC	?getProgramName@Shimmer@@UEAAXPEAD@Z		; Shimmer::getProgramName
PUBLIC	?setProgram@Shimmer@@UEAAXH@Z			; Shimmer::setProgram
PUBLIC	?InitPresets@Shimmer@@AEAAXXZ			; Shimmer::InitPresets
PUBLIC	?getParameterName@Shimmer@@UEAAXHPEAD@Z		; Shimmer::getParameterName
PUBLIC	?getParameterDisplay@Shimmer@@UEAAXHPEAD@Z	; Shimmer::getParameterDisplay
PUBLIC	?getParameterLabel@Shimmer@@UEAAXHPEAD@Z	; Shimmer::getParameterLabel
PUBLIC	?getParameter@Shimmer@@UEAAMH@Z			; Shimmer::getParameter
PUBLIC	?setParameter@Shimmer@@UEAAXHM@Z		; Shimmer::setParameter
PUBLIC	?processReplacing@Shimmer@@UEAAXPEAPEAM0H@Z	; Shimmer::processReplacing
PUBLIC	?setSampleRate@Shimmer@@UEAAXM@Z		; Shimmer::setSampleRate
PUBLIC	?InitPlugin@Shimmer@@AEAAXXZ			; Shimmer::InitPlugin
PUBLIC	??_GShimmer@@UEAAPEAXI@Z			; Shimmer::`scalar deleting destructor'
PUBLIC	??0Shimmer@@QEAA@P6A_JPEAUAEffect@@HH_JPEAXM@Z@Z ; Shimmer::Shimmer
PUBLIC	?updateMixPitchShifters@Shimmer@@AEAAXM@Z	; Shimmer::updateMixPitchShifters
PUBLIC	?updateMix@Shimmer@@AEAAXXZ			; Shimmer::updateMix
PUBLIC	??0IAudioSignalProcessor@@QEAA@XZ		; IAudioSignalProcessor::IAudioSignalProcessor
PUBLIC	?setParameters@PSMVocoder@@QEAAXAEBUPSMVocoderParameters@@@Z ; PSMVocoder::setParameters
PUBLIC	?getParameters@PSMVocoder@@QEAA?AUPSMVocoderParameters@@XZ ; PSMVocoder::getParameters
PUBLIC	?processAudioSample@PSMVocoder@@UEAANN@Z	; PSMVocoder::processAudioSample
PUBLIC	?findPeaksAndRegionsOfInfluence@PSMVocoder@@QEAAXXZ ; PSMVocoder::findPeaksAndRegionsOfInfluence
PUBLIC	?findPreviousNearestPeak@PSMVocoder@@QEAAHH@Z	; PSMVocoder::findPreviousNearestPeak
PUBLIC	?setPitchShift@PSMVocoder@@QEAAXN@Z		; PSMVocoder::setPitchShift
PUBLIC	?canProcessAudioFrame@PSMVocoder@@UEAA_NXZ	; PSMVocoder::canProcessAudioFrame
PUBLIC	?reset@PSMVocoder@@UEAA_NN@Z			; PSMVocoder::reset
PUBLIC	??1PSMVocoder@@QEAA@XZ				; PSMVocoder::~PSMVocoder
PUBLIC	??0PSMVocoder@@QEAA@XZ				; PSMVocoder::PSMVocoder
PUBLIC	?getIFFTData@PhaseVocoder@@QEAAPEAY01NXZ	; PhaseVocoder::getIFFTData
PUBLIC	?getFFTData@PhaseVocoder@@QEAAPEAY01NXZ		; PhaseVocoder::getFFTData
PUBLIC	??1PhaseVocoder@@QEAA@XZ			; PhaseVocoder::~PhaseVocoder
PUBLIC	??0PhaseVocoder@@QEAA@XZ			; PhaseVocoder::PhaseVocoder
PUBLIC	?reset@BinData@@QEAAXXZ				; BinData::reset
PUBLIC	??4BinData@@QEAAAEAU0@AEBU0@@Z			; BinData::operator=
PUBLIC	??0BinData@@QEAA@XZ				; BinData::BinData
PUBLIC	??4PSMVocoderParameters@@QEAAAEAU0@AEBU0@@Z	; PSMVocoderParameters::operator=
PUBLIC	??0PSMVocoderParameters@@QEAA@XZ		; PSMVocoderParameters::PSMVocoderParameters
PUBLIC	?processAudioFrame@IAudioSignalProcessor@@UEAA_NPEBMPEAMII@Z ; IAudioSignalProcessor::processAudioFrame
PUBLIC	?processAuxInputAudioSample@IAudioSignalProcessor@@UEAANN@Z ; IAudioSignalProcessor::processAuxInputAudioSample
PUBLIC	?enableAuxInput@IAudioSignalProcessor@@UEAAX_N@Z ; IAudioSignalProcessor::enableAuxInput
PUBLIC	?setSampleRate@IAudioSignalProcessor@@UEAAXN@Z	; IAudioSignalProcessor::setSampleRate
PUBLIC	?resample@@YA_NPEAN0IIW4interpolation@@N0@Z	; resample
PUBLIC	?doLagrangeInterpolation@@YANPEAN0HN@Z		; doLagrangeInterpolation
PUBLIC	?doLinearInterpolation@@YANNNN@Z		; doLinearInterpolation
PUBLIC	?principalArg@@YANN@Z				; principalArg
PUBLIC	?getPhase@@YANNN@Z				; getPhase
PUBLIC	?getMagnitude@@YANNN@Z				; getMagnitude
PUBLIC	??_GModulation@@QEAAPEAXI@Z			; Modulation::`scalar deleting destructor'
PUBLIC	??_GHighPassFilter@@QEAAPEAXI@Z			; HighPassFilter::`scalar deleting destructor'
PUBLIC	??_GModMultiChannelFeedback@@QEAAPEAXI@Z	; ModMultiChannelFeedback::`scalar deleting destructor'
PUBLIC	??_GModMultiChannelDiffuser@@QEAAPEAXI@Z	; ModMultiChannelDiffuser::`scalar deleting destructor'
PUBLIC	??_GMultiChannelDiffuser@@QEAAPEAXI@Z		; MultiChannelDiffuser::`scalar deleting destructor'
PUBLIC	??_GChannelMixer@@QEAAPEAXI@Z			; ChannelMixer::`scalar deleting destructor'
PUBLIC	??_GChannelSplitter@@QEAAPEAXI@Z		; ChannelSplitter::`scalar deleting destructor'
PUBLIC	?deleteInternalArrays@FDN@@AEAAXXZ		; FDN::deleteInternalArrays
PUBLIC	?initInternalArrays@FDN@@AEAAXXZ		; FDN::initInternalArrays
PUBLIC	?deleteChorus@FDN@@AEAAXXZ			; FDN::deleteChorus
PUBLIC	?deleteFilters@FDN@@AEAAXXZ			; FDN::deleteFilters
PUBLIC	?deleteFeedbackBlock@FDN@@AEAAXXZ		; FDN::deleteFeedbackBlock
PUBLIC	?deleteDiffusionBlocks@FDN@@AEAAXXZ		; FDN::deleteDiffusionBlocks
PUBLIC	?deleteInterfaceBlocks@FDN@@AEAAXXZ		; FDN::deleteInterfaceBlocks
PUBLIC	?constructModulation@FDN@@AEAAXXZ		; FDN::constructModulation
PUBLIC	?constructFilters@FDN@@AEAAXXZ			; FDN::constructFilters
PUBLIC	?constructDiffusionBlocks@FDN@@AEAAXXZ		; FDN::constructDiffusionBlocks
PUBLIC	?constructFDN@FDN@@AEAAXHHHHH@Z			; FDN::constructFDN
PUBLIC	?setEqualDiffuserDelayLengths@FDN@@AEAAXMMW4DelayDistribution@@@Z ; FDN::setEqualDiffuserDelayLengths
PUBLIC	?setDoubledDiffuserDelayLengths@FDN@@AEAAXMMW4DelayDistribution@@@Z ; FDN::setDoubledDiffuserDelayLengths
PUBLIC	?processAudio@FDN@@QEAAXPEAM0@Z			; FDN::processAudio
PUBLIC	?setMixMode@FDN@@QEAAXW4MixMode@@@Z		; FDN::setMixMode
PUBLIC	?setSampleRate@FDN@@QEAAXH@Z			; FDN::setSampleRate
PUBLIC	?setEarlyReflWeight@FDN@@QEAAXM@Z		; FDN::setEarlyReflWeight
PUBLIC	?setFeedbackDelayLengths@FDN@@QEAAXMMW4DelayDistribution@@@Z ; FDN::setFeedbackDelayLengths
PUBLIC	?setDiffuserDelayLengths@FDN@@QEAAXMW4DiffuserDelayLogic@@W4DelayDistribution@@M@Z ; FDN::setDiffuserDelayLengths
PUBLIC	?setStereoSpread@FDN@@QEAAXM@Z			; FDN::setStereoSpread
PUBLIC	?setHighPassType@FDN@@QEAAXW4HPFilterType@@@Z	; FDN::setHighPassType
PUBLIC	?setLowPassType@FDN@@QEAAXW4LPFilterType@@@Z	; FDN::setLowPassType
PUBLIC	?setHighPassFrequency@FDN@@QEAAXM@Z		; FDN::setHighPassFrequency
PUBLIC	?setLowPassFrequency@FDN@@QEAAXM@Z		; FDN::setLowPassFrequency
PUBLIC	?setDampingType@FDN@@QEAAXW4LPFilterType@@@Z	; FDN::setDampingType
PUBLIC	?setDampingFrequency@FDN@@QEAAXM@Z		; FDN::setDampingFrequency
PUBLIC	?setModMix@FDN@@QEAAXM@Z			; FDN::setModMix
PUBLIC	?setModFeedback@FDN@@QEAAXM@Z			; FDN::setModFeedback
PUBLIC	?setModDepth@FDN@@QEAAXM@Z			; FDN::setModDepth
PUBLIC	?setModRate@FDN@@QEAAXM@Z			; FDN::setModRate
PUBLIC	?setRoomSize@FDN@@QEAAXMW4DiffuserDelayLogic@@W4DelayDistribution@@1@Z ; FDN::setRoomSize
PUBLIC	?setDecayInSeconds@FDN@@QEAAXM@Z		; FDN::setDecayInSeconds
PUBLIC	?initialize@FDN@@QEAAXMMHM@Z			; FDN::initialize
PUBLIC	??1FDN@@QEAA@XZ					; FDN::~FDN
PUBLIC	??0FDN@@QEAA@HHHHH@Z				; FDN::FDN
PUBLIC	?processAudio@Modulation@@UEAAMM@Z		; Modulation::processAudio
PUBLIC	?setModType@Modulation@@QEAAXW4ModulationType@@@Z ; Modulation::setModType
PUBLIC	?setSampleRate@Modulation@@UEAAXH@Z		; Modulation::setSampleRate
PUBLIC	?setModMix@Modulation@@QEAAXM@Z			; Modulation::setModMix
PUBLIC	?setModFeedback@Modulation@@QEAAXM@Z		; Modulation::setModFeedback
PUBLIC	?setModRate@Modulation@@QEAAXM@Z		; Modulation::setModRate
PUBLIC	?setModDepth@Modulation@@QEAAXM@Z		; Modulation::setModDepth
PUBLIC	?setModWet@Modulation@@QEAAXM@Z			; Modulation::setModWet
PUBLIC	?setModDry@Modulation@@QEAAXM@Z			; Modulation::setModDry
PUBLIC	?init@Modulation@@QEAAXW4ModulationType@@H@Z	; Modulation::init
PUBLIC	??1Modulation@@QEAA@XZ				; Modulation::~Modulation
PUBLIC	??0Modulation@@QEAA@XZ				; Modulation::Modulation
PUBLIC	?setModulationValue@Modulation@@AEAAXM@Z	; Modulation::setModulationValue
PUBLIC	?processAudio@HighPassFilter@@QEAAMM@Z		; HighPassFilter::processAudio
PUBLIC	?updateBuffers@HighPassFilter@@QEAAXMM@Z	; HighPassFilter::updateBuffers
PUBLIC	?updateGains@HighPassFilter@@QEAAXXZ		; HighPassFilter::updateGains
PUBLIC	?setFilterType@HighPassFilter@@QEAAXW4HPFilterType@@@Z ; HighPassFilter::setFilterType
PUBLIC	?setCutoffFrequency@HighPassFilter@@QEAAXM@Z	; HighPassFilter::setCutoffFrequency
PUBLIC	?setSampleRate@HighPassFilter@@QEAAXH@Z		; HighPassFilter::setSampleRate
PUBLIC	?init@HighPassFilter@@QEAAXH@Z			; HighPassFilter::init
PUBLIC	??1HighPassFilter@@QEAA@XZ			; HighPassFilter::~HighPassFilter
PUBLIC	??0HighPassFilter@@QEAA@HMW4HPFilterType@@@Z	; HighPassFilter::HighPassFilter
PUBLIC	?processAudio@ChannelMixer@@QEAAXPEAM0@Z	; ChannelMixer::processAudio
PUBLIC	?setMixMode@ChannelMixer@@QEAAXW4MixMode@@@Z	; ChannelMixer::setMixMode
PUBLIC	?setNumberOfOutputChannels@ChannelMixer@@QEAAXH@Z ; ChannelMixer::setNumberOfOutputChannels
PUBLIC	?setNumberOfInputChannels@ChannelMixer@@QEAAXH@Z ; ChannelMixer::setNumberOfInputChannels
PUBLIC	??1ChannelMixer@@QEAA@XZ			; ChannelMixer::~ChannelMixer
PUBLIC	??0ChannelMixer@@QEAA@HH@Z			; ChannelMixer::ChannelMixer
PUBLIC	?processAudio@ChannelSplitter@@QEAAXPEAM0@Z	; ChannelSplitter::processAudio
PUBLIC	?setNumberOfChannelsOut@ChannelSplitter@@QEAAXH@Z ; ChannelSplitter::setNumberOfChannelsOut
PUBLIC	?setNumberOfChannelsIn@ChannelSplitter@@QEAAXH@Z ; ChannelSplitter::setNumberOfChannelsIn
PUBLIC	??1ChannelSplitter@@QEAA@XZ			; ChannelSplitter::~ChannelSplitter
PUBLIC	??0ChannelSplitter@@QEAA@HH@Z			; ChannelSplitter::ChannelSplitter
PUBLIC	?setRandomInRangeDelayLines@ModMultiChannelFeedback@@AEAAXXZ ; ModMultiChannelFeedback::setRandomInRangeDelayLines
PUBLIC	?setDelayExponential@ModMultiChannelFeedback@@AEAAXXZ ; ModMultiChannelFeedback::setDelayExponential
PUBLIC	?allocateDelayLines@ModMultiChannelFeedback@@AEAAXXZ ; ModMultiChannelFeedback::allocateDelayLines
PUBLIC	?deleteDelayLines@ModMultiChannelFeedback@@AEAAXXZ ; ModMultiChannelFeedback::deleteDelayLines
PUBLIC	?constructMCF@ModMultiChannelFeedback@@AEAAXH@Z	; ModMultiChannelFeedback::constructMCF
PUBLIC	?processAudio@ModMultiChannelFeedback@@QEAAXPEAM0@Z ; ModMultiChannelFeedback::processAudio
PUBLIC	?setOscillatorIsUnipolar@ModMultiChannelFeedback@@QEAAX_N@Z ; ModMultiChannelFeedback::setOscillatorIsUnipolar
PUBLIC	?setOscillatorType@ModMultiChannelFeedback@@QEAAXW4OscillatorType@@@Z ; ModMultiChannelFeedback::setOscillatorType
PUBLIC	?setModRate@ModMultiChannelFeedback@@QEAAXM@Z	; ModMultiChannelFeedback::setModRate
PUBLIC	?setModDepth@ModMultiChannelFeedback@@QEAAXM@Z	; ModMultiChannelFeedback::setModDepth
PUBLIC	?setModValue@ModMultiChannelFeedback@@QEAAXM@Z	; ModMultiChannelFeedback::setModValue
PUBLIC	?setFilterType@ModMultiChannelFeedback@@QEAAXW4LPFilterType@@@Z ; ModMultiChannelFeedback::setFilterType
PUBLIC	?setDampingFrequency@ModMultiChannelFeedback@@QEAAXM@Z ; ModMultiChannelFeedback::setDampingFrequency
PUBLIC	?setDelayLengths@ModMultiChannelFeedback@@QEAAXMMW4DelayDistribution@@@Z ; ModMultiChannelFeedback::setDelayLengths
PUBLIC	?setSampleRate@ModMultiChannelFeedback@@QEAAXH@Z ; ModMultiChannelFeedback::setSampleRate
PUBLIC	?init@ModMultiChannelFeedback@@QEAAXMH@Z	; ModMultiChannelFeedback::init
PUBLIC	?setDecayInSeconds@ModMultiChannelFeedback@@QEAAXM@Z ; ModMultiChannelFeedback::setDecayInSeconds
PUBLIC	??1ModMultiChannelFeedback@@QEAA@XZ		; ModMultiChannelFeedback::~ModMultiChannelFeedback
PUBLIC	??0ModMultiChannelFeedback@@QEAA@H@Z		; ModMultiChannelFeedback::ModMultiChannelFeedback
PUBLIC	??_GModMultiChannelDelay@@QEAAPEAXI@Z		; ModMultiChannelDelay::`scalar deleting destructor'
PUBLIC	?constructBlocks@ModMultiChannelDiffuser@@AEAAXXZ ; ModMultiChannelDiffuser::constructBlocks
PUBLIC	?deleteBlocks@ModMultiChannelDiffuser@@AEAAXXZ	; ModMultiChannelDiffuser::deleteBlocks
PUBLIC	?initPointers@ModMultiChannelDiffuser@@AEAAXXZ	; ModMultiChannelDiffuser::initPointers
PUBLIC	?deleteInternalArrays@ModMultiChannelDiffuser@@AEAAXXZ ; ModMultiChannelDiffuser::deleteInternalArrays
PUBLIC	?initInternalArrays@ModMultiChannelDiffuser@@AEAAXXZ ; ModMultiChannelDiffuser::initInternalArrays
PUBLIC	?constructMCDF@ModMultiChannelDiffuser@@AEAAXH@Z ; ModMultiChannelDiffuser::constructMCDF
PUBLIC	?processAudio@ModMultiChannelDiffuser@@QEAAXPEAM0@Z ; ModMultiChannelDiffuser::processAudio
PUBLIC	?setSampleRate@ModMultiChannelDiffuser@@QEAAXH@Z ; ModMultiChannelDiffuser::setSampleRate
PUBLIC	?setOscillatorIsUnipolar@ModMultiChannelDiffuser@@QEAAX_N@Z ; ModMultiChannelDiffuser::setOscillatorIsUnipolar
PUBLIC	?setOscillatorType@ModMultiChannelDiffuser@@QEAAXW4OscillatorType@@@Z ; ModMultiChannelDiffuser::setOscillatorType
PUBLIC	?setModValue@ModMultiChannelDiffuser@@QEAAXM@Z	; ModMultiChannelDiffuser::setModValue
PUBLIC	?setModRate@ModMultiChannelDiffuser@@QEAAXM@Z	; ModMultiChannelDiffuser::setModRate
PUBLIC	?setModDepth@ModMultiChannelDiffuser@@QEAAXM@Z	; ModMultiChannelDiffuser::setModDepth
PUBLIC	?setMakeUpGainDB@ModMultiChannelDiffuser@@QEAAXM@Z ; ModMultiChannelDiffuser::setMakeUpGainDB
PUBLIC	?setDelayLinesLength@ModMultiChannelDiffuser@@QEAAXMMW4DelayDistribution@@@Z ; ModMultiChannelDiffuser::setDelayLinesLength
PUBLIC	?init@ModMultiChannelDiffuser@@QEAAXMH@Z	; ModMultiChannelDiffuser::init
PUBLIC	??1ModMultiChannelDiffuser@@QEAA@XZ		; ModMultiChannelDiffuser::~ModMultiChannelDiffuser
PUBLIC	??0ModMultiChannelDiffuser@@QEAA@H@Z		; ModMultiChannelDiffuser::ModMultiChannelDiffuser
PUBLIC	??_GModDelay@@QEAAPEAXI@Z			; ModDelay::`scalar deleting destructor'
PUBLIC	?constructMCDL@ModMultiChannelDelay@@AEAAXH@Z	; ModMultiChannelDelay::constructMCDL
PUBLIC	?constructDelayObjects@ModMultiChannelDelay@@AEAAXXZ ; ModMultiChannelDelay::constructDelayObjects
PUBLIC	?deleteDelayLines@ModMultiChannelDelay@@AEAAXXZ	; ModMultiChannelDelay::deleteDelayLines
PUBLIC	?setExponentialDelayLengths@ModMultiChannelDelay@@AEAAXXZ ; ModMultiChannelDelay::setExponentialDelayLengths
PUBLIC	?setRandomInRangeDelayLines@ModMultiChannelDelay@@AEAAXXZ ; ModMultiChannelDelay::setRandomInRangeDelayLines
PUBLIC	?setEqualDelayLines@ModMultiChannelDelay@@AEAAXXZ ; ModMultiChannelDelay::setEqualDelayLines
PUBLIC	?processAudio@ModMultiChannelDelay@@QEAAXPEAM0@Z ; ModMultiChannelDelay::processAudio
PUBLIC	?setSampleRate@ModMultiChannelDelay@@QEAAXH@Z	; ModMultiChannelDelay::setSampleRate
PUBLIC	?setOscillatorIsUnipolar@ModMultiChannelDelay@@QEAAX_N@Z ; ModMultiChannelDelay::setOscillatorIsUnipolar
PUBLIC	?setOscillatorType@ModMultiChannelDelay@@QEAAXW4OscillatorType@@@Z ; ModMultiChannelDelay::setOscillatorType
PUBLIC	?setModValueInMsec@ModMultiChannelDelay@@QEAAXM@Z ; ModMultiChannelDelay::setModValueInMsec
PUBLIC	?setModRate@ModMultiChannelDelay@@QEAAXM@Z	; ModMultiChannelDelay::setModRate
PUBLIC	?setModDepth@ModMultiChannelDelay@@QEAAXM@Z	; ModMultiChannelDelay::setModDepth
PUBLIC	?setMakeUpGaindB@ModMultiChannelDelay@@QEAAXM@Z	; ModMultiChannelDelay::setMakeUpGaindB
PUBLIC	?setDelayLinesLength@ModMultiChannelDelay@@QEAAXMMW4DelayDistribution@@@Z ; ModMultiChannelDelay::setDelayLinesLength
PUBLIC	?initDelayLines@ModMultiChannelDelay@@QEAAXMH@Z	; ModMultiChannelDelay::initDelayLines
PUBLIC	??1ModMultiChannelDelay@@QEAA@XZ		; ModMultiChannelDelay::~ModMultiChannelDelay
PUBLIC	??0ModMultiChannelDelay@@QEAA@H@Z		; ModMultiChannelDelay::ModMultiChannelDelay
PUBLIC	?processAudio@Householder@@QEAAXPEAM0@Z		; Householder::processAudio
PUBLIC	?setNumberOfChannels@Householder@@QEAAXH@Z	; Householder::setNumberOfChannels
PUBLIC	??0Householder@@QEAA@H@Z			; Householder::Householder
PUBLIC	??_GFlipPolarity@@QEAAPEAXI@Z			; FlipPolarity::`scalar deleting destructor'
PUBLIC	??_GHadamard@@QEAAPEAXI@Z			; Hadamard::`scalar deleting destructor'
PUBLIC	??_GMultiChannelDelay@@QEAAPEAXI@Z		; MultiChannelDelay::`scalar deleting destructor'
PUBLIC	?constructBlocks@MultiChannelDiffuser@@AEAAXXZ	; MultiChannelDiffuser::constructBlocks
PUBLIC	?deleteBlocks@MultiChannelDiffuser@@AEAAXXZ	; MultiChannelDiffuser::deleteBlocks
PUBLIC	?initPointers@MultiChannelDiffuser@@AEAAXXZ	; MultiChannelDiffuser::initPointers
PUBLIC	?deleteInternalArrays@MultiChannelDiffuser@@AEAAXXZ ; MultiChannelDiffuser::deleteInternalArrays
PUBLIC	?initInternalArrays@MultiChannelDiffuser@@AEAAXXZ ; MultiChannelDiffuser::initInternalArrays
PUBLIC	?constructMCDF@MultiChannelDiffuser@@AEAAXH@Z	; MultiChannelDiffuser::constructMCDF
PUBLIC	?processAudio@MultiChannelDiffuser@@QEAAXPEAM0@Z ; MultiChannelDiffuser::processAudio
PUBLIC	?setSampleRate@MultiChannelDiffuser@@QEAAXH@Z	; MultiChannelDiffuser::setSampleRate
PUBLIC	?setDelayLinesLength@MultiChannelDiffuser@@QEAAXMMW4DelayDistribution@@@Z ; MultiChannelDiffuser::setDelayLinesLength
PUBLIC	?init@MultiChannelDiffuser@@QEAAXMH@Z		; MultiChannelDiffuser::init
PUBLIC	??1MultiChannelDiffuser@@QEAA@XZ		; MultiChannelDiffuser::~MultiChannelDiffuser
PUBLIC	??0MultiChannelDiffuser@@QEAA@H@Z		; MultiChannelDiffuser::MultiChannelDiffuser
PUBLIC	?deleteFlipVector@FlipPolarity@@AEAAXXZ		; FlipPolarity::deleteFlipVector
PUBLIC	?processAudio@FlipPolarity@@QEAAXPEAM0@Z	; FlipPolarity::processAudio
PUBLIC	?setNumberOfChannels@FlipPolarity@@QEAAXH@Z	; FlipPolarity::setNumberOfChannels
PUBLIC	??1FlipPolarity@@QEAA@XZ			; FlipPolarity::~FlipPolarity
PUBLIC	??0FlipPolarity@@QEAA@H@Z			; FlipPolarity::FlipPolarity
PUBLIC	?processAudio@Hadamard@@QEAAXPEAM0@Z		; Hadamard::processAudio
PUBLIC	?hadamardScaled@Hadamard@@QEAAXPEAMH@Z		; Hadamard::hadamardScaled
PUBLIC	?hadamardUnscaled@Hadamard@@QEAAXPEAMH@Z	; Hadamard::hadamardUnscaled
PUBLIC	?setNumberOfChannels@Hadamard@@QEAAXH@Z		; Hadamard::setNumberOfChannels
PUBLIC	?deleteMatrix@Hadamard@@QEAAXXZ			; Hadamard::deleteMatrix
PUBLIC	??1Hadamard@@QEAA@XZ				; Hadamard::~Hadamard
PUBLIC	??0Hadamard@@QEAA@H@Z				; Hadamard::Hadamard
PUBLIC	??_GDelay@@QEAAPEAXI@Z				; Delay::`scalar deleting destructor'
PUBLIC	?constructMCDL@MultiChannelDelay@@AEAAXH@Z	; MultiChannelDelay::constructMCDL
PUBLIC	?constructDelayObjects@MultiChannelDelay@@AEAAXXZ ; MultiChannelDelay::constructDelayObjects
PUBLIC	?deleteDelayLines@MultiChannelDelay@@AEAAXXZ	; MultiChannelDelay::deleteDelayLines
PUBLIC	?setExponentialDelayLengths@MultiChannelDelay@@AEAAXXZ ; MultiChannelDelay::setExponentialDelayLengths
PUBLIC	?setRandomInRangeDelayLines@MultiChannelDelay@@AEAAXXZ ; MultiChannelDelay::setRandomInRangeDelayLines
PUBLIC	?setEqualDelayLines@MultiChannelDelay@@AEAAXXZ	; MultiChannelDelay::setEqualDelayLines
PUBLIC	?processAudio@MultiChannelDelay@@QEAAXPEAM0@Z	; MultiChannelDelay::processAudio
PUBLIC	?setSampleRate@MultiChannelDelay@@QEAAXH@Z	; MultiChannelDelay::setSampleRate
PUBLIC	?setDelayLinesLength@MultiChannelDelay@@QEAAXMMW4DelayDistribution@@@Z ; MultiChannelDelay::setDelayLinesLength
PUBLIC	?initDelayLines@MultiChannelDelay@@QEAAXMH@Z	; MultiChannelDelay::initDelayLines
PUBLIC	??1MultiChannelDelay@@QEAA@XZ			; MultiChannelDelay::~MultiChannelDelay
PUBLIC	??0MultiChannelDelay@@QEAA@H@Z			; MultiChannelDelay::MultiChannelDelay
PUBLIC	??_GLFO@@QEAAPEAXI@Z				; LFO::`scalar deleting destructor'
PUBLIC	?processAudio@ModDelay@@UEAAMM@Z		; ModDelay::processAudio
PUBLIC	?setSampleRate@ModDelay@@UEAAXH@Z		; ModDelay::setSampleRate
PUBLIC	?setLFOUnipolar@ModDelay@@QEAAX_N@Z		; ModDelay::setLFOUnipolar
PUBLIC	?setLFOWaveform@ModDelay@@QEAAXW4OscillatorType@@@Z ; ModDelay::setLFOWaveform
PUBLIC	?setModRate@ModDelay@@QEAAXM@Z			; ModDelay::setModRate
PUBLIC	?setDelayInmsec@ModDelay@@QEAAXM@Z		; ModDelay::setDelayInmsec
PUBLIC	?setDeltaDelayValue@ModDelay@@QEAAXM@Z		; ModDelay::setDeltaDelayValue
PUBLIC	?init@ModDelay@@QEAAXMHW4OscillatorType@@@Z	; ModDelay::init
PUBLIC	??1ModDelay@@QEAA@XZ				; ModDelay::~ModDelay
PUBLIC	??0ModDelay@@QEAA@XZ				; ModDelay::ModDelay
PUBLIC	?createTable@LFO@@AEAAXXZ			; LFO::createTable
PUBLIC	?clearTable@LFO@@AEAAXXZ			; LFO::clearTable
PUBLIC	?increaseLFOCounter@LFO@@AEAAXXZ		; LFO::increaseLFOCounter
PUBLIC	?computeIncrement@LFO@@AEAAXXZ			; LFO::computeIncrement
PUBLIC	?processAudio@LFO@@QEAAMXZ			; LFO::processAudio
PUBLIC	?setSampleRate@LFO@@QEAAXH@Z			; LFO::setSampleRate
PUBLIC	?setLFOunipolar@LFO@@QEAAX_N@Z			; LFO::setLFOunipolar
PUBLIC	?setLFOWaveform@LFO@@QEAAXW4OscillatorType@@@Z	; LFO::setLFOWaveform
PUBLIC	?setLFOfrequency@LFO@@QEAAXM@Z			; LFO::setLFOfrequency
PUBLIC	?init@LFO@@QEAAXW4OscillatorType@@H@Z		; LFO::init
PUBLIC	??1LFO@@QEAA@XZ					; LFO::~LFO
PUBLIC	??0LFO@@QEAA@W4OscillatorType@@@Z		; LFO::LFO
PUBLIC	?setSampleRate@LowPassFilter@@QEAAXH@Z		; LowPassFilter::setSampleRate
PUBLIC	?randomInRange@@YAMMM@Z				; randomInRange
PUBLIC	?exponentialVector@@YA?AV?$vector@MV?$allocator@M@std@@@std@@MMH@Z ; exponentialVector
PUBLIC	?mapValueOutsideRange@@YAMMMM@Z			; mapValueOutsideRange
PUBLIC	?mapValueIntoRange@@YAMMMM@Z			; mapValueIntoRange
PUBLIC	?_Release@_Fake_proxy_ptr_impl@std@@QEAAXXZ	; std::_Fake_proxy_ptr_impl::_Release
PUBLIC	??0_Fake_proxy_ptr_impl@std@@QEAA@AEBU_Fake_allocator@1@AEBU_Container_base0@1@@Z ; std::_Fake_proxy_ptr_impl::_Fake_proxy_ptr_impl
PUBLIC	?_Swap_proxy_and_iterators@_Container_base0@std@@QEAAXAEAU12@@Z ; std::_Container_base0::_Swap_proxy_and_iterators
PUBLIC	?abs@@YANN@Z					; abs
PUBLIC	?createEffectInstance@@YAPEAVAudioEffect@@P6A_JPEAUAEffect@@HH_JPEAXM@Z@Z ; createEffectInstance
EXTRN	??_EShimmer@@UEAAPEAXI@Z:PROC			; Shimmer::`vector deleting destructor'
?MAX_LPF_FREQUENCY_LOG@@3MB DD 01H DUP (?)		; MAX_LPF_FREQUENCY_LOG
?MIN_LPF_FREQUENCY_LOG@@3MB DD 01H DUP (?)		; MIN_LPF_FREQUENCY_LOG
?MAX_DAMPING_FREQUENCY_LOG@@3MB DD 01H DUP (?)		; MAX_DAMPING_FREQUENCY_LOG
?LPF_FILTER_MIN_FREQ_LOG@@3MB DD 01H DUP (?)		; LPF_FILTER_MIN_FREQ_LOG
?kCTCorrFactorAntiLog@@3NB DQ 01H DUP (?)		; kCTCorrFactorAntiLog
?LPF_FILTER_MAX_FREQ_LOG@@3MB DD 01H DUP (?)		; LPF_FILTER_MAX_FREQ_LOG
	ALIGN	8

?kCTCorrFactorZero@@3NB DQ 01H DUP (?)			; kCTCorrFactorZero
?MIN_DAMPING_FREQUENCY_LOG@@3MB DD 01H DUP (?)		; MIN_DAMPING_FREQUENCY_LOG
_BSS	ENDS
;	COMDAT pdata
pdata	SEGMENT
$pdata$??$_Zero_range@PEAM@std@@YAPEAMQEAM0@Z DD imagerel $LN4
	DD	imagerel $LN4+32
	DD	imagerel $unwind$??$_Zero_range@PEAM@std@@YAPEAMQEAM0@Z
pdata	ENDS
;	COMDAT pdata
pdata	SEGMENT
$pdata$??$_Copy_memmove@PEAPEAVDelay@@PEAPEAV1@@std@@YAPEAPEAVDelay@@PEAPEAV1@00@Z DD imagerel $LN4
	DD	imagerel $LN4+49
	DD	imagerel $unwind$??$_Copy_memmove@PEAPEAVDelay@@PEAPEAV1@@std@@YAPEAPEAVDelay@@PEAPEAV1@00@Z
pdata	ENDS
;	COMDAT pdata
pdata	SEGMENT
$pdata$??$_Copy_memmove@PEAHPEAH@std@@YAPEAHPEAH00@Z DD imagerel $LN4
	DD	imagerel $LN4+49
	DD	imagerel $unwind$??$_Copy_memmove@PEAHPEAH@std@@YAPEAHPEAH00@Z
pdata	ENDS
;	COMDAT pdata
pdata	SEGMENT
$pdata$??$_Copy_memmove@PEAPEAVModDelay@@PEAPEAV1@@std@@YAPEAPEAVModDelay@@PEAPEAV1@00@Z DD imagerel $LN4
	DD	imagerel $LN4+49
	DD	imagerel $unwind$??$_Copy_memmove@PEAPEAVModDelay@@PEAPEAV1@@std@@YAPEAPEAVModDelay@@PEAPEAV1@00@Z
pdata	ENDS
;	COMDAT pdata
pdata	SEGMENT
$pdata$??$_Copy_memmove@PEAPEAVMultiChannelDiffuser@@PEAPEAV1@@std@@YAPEAPEAVMultiChannelDiffuser@@PEAPEAV1@00@Z DD imagerel $LN4
	DD	imagerel $LN4+49
	DD	imagerel $unwind$??$_Copy_memmove@PEAPEAVMultiChannelDiffuser@@PEAPEAV1@@std@@YAPEAPEAVMultiChannelDiffuser@@PEAPEAV1@00@Z
pdata	ENDS
;	COMDAT pdata
pdata	SEGMENT
$pdata$??$_Copy_memmove@PEAPEAVModMultiChannelDiffuser@@PEAPEAV1@@std@@YAPEAPEAVModMultiChannelDiffuser@@PEAPEAV1@00@Z DD imagerel $LN4
	DD	imagerel $LN4+49
	DD	imagerel $unwind$??$_Copy_memmove@PEAPEAVModMultiChannelDiffuser@@PEAPEAV1@@std@@YAPEAPEAVModMultiChannelDiffuser@@PEAPEAV1@00@Z
pdata	ENDS
;	COMDAT pdata
pdata	SEGMENT
$pdata$??$_Copy_memmove@PEAPEAVLowPassFilter@@PEAPEAV1@@std@@YAPEAPEAVLowPassFilter@@PEAPEAV1@00@Z DD imagerel $LN4
	DD	imagerel $LN4+49
	DD	imagerel $unwind$??$_Copy_memmove@PEAPEAVLowPassFilter@@PEAPEAV1@@std@@YAPEAPEAVLowPassFilter@@PEAPEAV1@00@Z
pdata	ENDS
;	COMDAT pdata
pdata	SEGMENT
$pdata$??$_Copy_memmove@PEAPEAVModulation@@PEAPEAV1@@std@@YAPEAPEAVModulation@@PEAPEAV1@00@Z DD imagerel $LN4
	DD	imagerel $LN4+49
	DD	imagerel $unwind$??$_Copy_memmove@PEAPEAVModulation@@PEAPEAV1@@std@@YAPEAPEAVModulation@@PEAPEAV1@00@Z
pdata	ENDS
;	COMDAT pdata
pdata	SEGMENT
$pdata$??$_Copy_memmove@PEAPEAVHighPassFilter@@PEAPEAV1@@std@@YAPEAPEAVHighPassFilter@@PEAPEAV1@00@Z DD imagerel $LN4
	DD	imagerel $LN4+49
	DD	imagerel $unwind$??$_Copy_memmove@PEAPEAVHighPassFilter@@PEAPEAV1@@std@@YAPEAPEAVHighPassFilter@@PEAPEAV1@00@Z
pdata	ENDS
;	COMDAT pdata
pdata	SEGMENT
$pdata$??$_Uninitialized_value_construct_n@V?$allocator@M@std@@@std@@YAPEAMPEAM_KAEAV?$allocator@M@0@@Z DD imagerel $LN18
	DD	imagerel $LN18+47
	DD	imagerel $unwind$??$_Uninitialized_value_construct_n@V?$allocator@M@std@@@std@@YAPEAMPEAM_KAEAV?$allocator@M@0@@Z
pdata	ENDS
;	COMDAT pdata
pdata	SEGMENT
$pdata$??$_Uninitialized_move@PEAPEAVDelay@@V?$allocator@PEAVDelay@@@std@@@std@@YAPEAPEAVDelay@@QEAPEAV1@0PEAPEAV1@AEAV?$allocator@PEAVDelay@@@0@@Z DD imagerel $LN16
	DD	imagerel $LN16+53
	DD	imagerel $unwind$??$_Uninitialized_move@PEAPEAVDelay@@V?$allocator@PEAVDelay@@@std@@@std@@YAPEAPEAVDelay@@QEAPEAV1@0PEAPEAV1@AEAV?$allocator@PEAVDelay@@@0@@Z
pdata	ENDS
;	COMDAT pdata
pdata	SEGMENT
$pdata$??$_Uninitialized_move@PEAHV?$allocator@H@std@@@std@@YAPEAHQEAH0PEAHAEAV?$allocator@H@0@@Z DD imagerel $LN16
	DD	imagerel $LN16+53
	DD	imagerel $unwind$??$_Uninitialized_move@PEAHV?$allocator@H@std@@@std@@YAPEAHQEAH0PEAHAEAV?$allocator@H@0@@Z
pdata	ENDS
;	COMDAT pdata
pdata	SEGMENT
$pdata$??$_Uninitialized_move@PEAPEAVModDelay@@V?$allocator@PEAVModDelay@@@std@@@std@@YAPEAPEAVModDelay@@QEAPEAV1@0PEAPEAV1@AEAV?$allocator@PEAVModDelay@@@0@@Z DD imagerel $LN16
	DD	imagerel $LN16+53
	DD	imagerel $unwind$??$_Uninitialized_move@PEAPEAVModDelay@@V?$allocator@PEAVModDelay@@@std@@@std@@YAPEAPEAVModDelay@@QEAPEAV1@0PEAPEAV1@AEAV?$allocator@PEAVModDelay@@@0@@Z
pdata	ENDS
;	COMDAT pdata
pdata	SEGMENT
$pdata$??$_Uninitialized_move@PEAPEAVMultiChannelDiffuser@@V?$allocator@PEAVMultiChannelDiffuser@@@std@@@std@@YAPEAPEAVMultiChannelDiffuser@@QEAPEAV1@0PEAPEAV1@AEAV?$allocator@PEAVMultiChannelDiffuser@@@0@@Z DD imagerel $LN16
	DD	imagerel $LN16+53
	DD	imagerel $unwind$??$_Uninitialized_move@PEAPEAVMultiChannelDiffuser@@V?$allocator@PEAVMultiChannelDiffuser@@@std@@@std@@YAPEAPEAVMultiChannelDiffuser@@QEAPEAV1@0PEAPEAV1@AEAV?$allocator@PEAVMultiChannelDiffuser@@@0@@Z
pdata	ENDS
;	COMDAT pdata
pdata	SEGMENT
$pdata$??$_Uninitialized_move@PEAPEAVModMultiChannelDiffuser@@V?$allocator@PEAVModMultiChannelDiffuser@@@std@@@std@@YAPEAPEAVModMultiChannelDiffuser@@QEAPEAV1@0PEAPEAV1@AEAV?$allocator@PEAVModMultiChannelDiffuser@@@0@@Z DD imagerel $LN16
	DD	imagerel $LN16+53
	DD	imagerel $unwind$??$_Uninitialized_move@PEAPEAVModMultiChannelDiffuser@@V?$allocator@PEAVModMultiChannelDiffuser@@@std@@@std@@YAPEAPEAVModMultiChannelDiffuser@@QEAPEAV1@0PEAPEAV1@AEAV?$allocator@PEAVModMultiChannelDiffuser@@@0@@Z
pdata	ENDS
;	COMDAT pdata
pdata	SEGMENT
$pdata$??$_Uninitialized_move@PEAPEAVLowPassFilter@@V?$allocator@PEAVLowPassFilter@@@std@@@std@@YAPEAPEAVLowPassFilter@@QEAPEAV1@0PEAPEAV1@AEAV?$allocator@PEAVLowPassFilter@@@0@@Z DD imagerel $LN16
	DD	imagerel $LN16+53
	DD	imagerel $unwind$??$_Uninitialized_move@PEAPEAVLowPassFilter@@V?$allocator@PEAVLowPassFilter@@@std@@@std@@YAPEAPEAVLowPassFilter@@QEAPEAV1@0PEAPEAV1@AEAV?$allocator@PEAVLowPassFilter@@@0@@Z
pdata	ENDS
;	COMDAT pdata
pdata	SEGMENT
$pdata$??$_Uninitialized_move@PEAPEAVModulation@@V?$allocator@PEAVModulation@@@std@@@std@@YAPEAPEAVModulation@@QEAPEAV1@0PEAPEAV1@AEAV?$allocator@PEAVModulation@@@0@@Z DD imagerel $LN16
	DD	imagerel $LN16+53
	DD	imagerel $unwind$??$_Uninitialized_move@PEAPEAVModulation@@V?$allocator@PEAVModulation@@@std@@@std@@YAPEAPEAVModulation@@QEAPEAV1@0PEAPEAV1@AEAV?$allocator@PEAVModulation@@@0@@Z
pdata	ENDS
;	COMDAT pdata
pdata	SEGMENT
$pdata$??$_Get_size_of_n@$07@std@@YA_K_K@Z DD imagerel $LN7
	DD	imagerel $LN7+38
	DD	imagerel $unwind$??$_Get_size_of_n@$07@std@@YA_K_K@Z
pdata	ENDS
;	COMDAT pdata
pdata	SEGMENT
$pdata$??$_Uninitialized_move@PEAPEAVHighPassFilter@@V?$allocator@PEAVHighPassFilter@@@std@@@std@@YAPEAPEAVHighPassFilter@@QEAPEAV1@0PEAPEAV1@AEAV?$allocator@PEAVHighPassFilter@@@0@@Z DD imagerel $LN16
	DD	imagerel $LN16+53
	DD	imagerel $unwind$??$_Uninitialized_move@PEAPEAVHighPassFilter@@V?$allocator@PEAVHighPassFilter@@@std@@@std@@YAPEAPEAVHighPassFilter@@QEAPEAV1@0PEAPEAV1@AEAV?$allocator@PEAVHighPassFilter@@@0@@Z
pdata	ENDS
;	COMDAT pdata
pdata	SEGMENT
$pdata$?_Buy_raw@?$vector@MV?$allocator@M@std@@@std@@AEAAX_K@Z DD imagerel $LN33
	DD	imagerel $LN33+134
	DD	imagerel $unwind$?_Buy_raw@?$vector@MV?$allocator@M@std@@@std@@AEAAX_K@Z
pdata	ENDS
;	COMDAT pdata
pdata	SEGMENT
$pdata$?_Ufill@?$vector@MV?$allocator@M@std@@@std@@AEAAPEAMPEAM_KU_Value_init_tag@2@@Z DD imagerel $LN20
	DD	imagerel $LN20+50
	DD	imagerel $unwind$?_Ufill@?$vector@MV?$allocator@M@std@@@std@@AEAAPEAMPEAM_KU_Value_init_tag@2@@Z
pdata	ENDS
;	COMDAT pdata
pdata	SEGMENT
$pdata$?_Buy_nonzero@?$vector@MV?$allocator@M@std@@@std@@AEAAX_K@Z DD imagerel $LN38
	DD	imagerel $LN38+140
	DD	imagerel $unwind$?_Buy_nonzero@?$vector@MV?$allocator@M@std@@@std@@AEAAX_K@Z
pdata	ENDS
;	COMDAT pdata
pdata	SEGMENT
$pdata$?allocate@?$allocator@PEAVDelay@@@std@@QEAAPEAPEAVDelay@@_K@Z DD imagerel $LN30
	DD	imagerel $LN30+107
	DD	imagerel $unwind$?allocate@?$allocator@PEAVDelay@@@std@@QEAAPEAPEAVDelay@@_K@Z
pdata	ENDS
;	COMDAT pdata
pdata	SEGMENT
$pdata$?_Umove@?$vector@PEAVDelay@@V?$allocator@PEAVDelay@@@std@@@std@@AEAAPEAPEAVDelay@@PEAPEAV3@00@Z DD imagerel $LN18
	DD	imagerel $LN18+50
	DD	imagerel $unwind$?_Umove@?$vector@PEAVDelay@@V?$allocator@PEAVDelay@@@std@@@std@@AEAAPEAPEAVDelay@@PEAPEAV3@00@Z
pdata	ENDS
;	COMDAT pdata
pdata	SEGMENT
$pdata$?_Change_array@?$vector@PEAVDelay@@V?$allocator@PEAVDelay@@@std@@@std@@AEAAXQEAPEAVDelay@@_K1@Z DD imagerel $LN25
	DD	imagerel $LN25+136
	DD	imagerel $unwind$?_Change_array@?$vector@PEAVDelay@@V?$allocator@PEAVDelay@@@std@@@std@@AEAAXQEAPEAVDelay@@_K1@Z
pdata	ENDS
;	COMDAT pdata
pdata	SEGMENT
$pdata$?_Xlength@?$vector@PEAVDelay@@V?$allocator@PEAVDelay@@@std@@@std@@CAXXZ DD imagerel $LN4
	DD	imagerel $LN4+18
	DD	imagerel $unwind$?_Xlength@?$vector@PEAVDelay@@V?$allocator@PEAVDelay@@@std@@@std@@CAXXZ
pdata	ENDS
;	COMDAT pdata
pdata	SEGMENT
$pdata$?allocate@?$allocator@H@std@@QEAAPEAH_K@Z DD imagerel $LN30
	DD	imagerel $LN30+107
	DD	imagerel $unwind$?allocate@?$allocator@H@std@@QEAAPEAH_K@Z
pdata	ENDS
;	COMDAT pdata
pdata	SEGMENT
$pdata$?_Umove@?$vector@HV?$allocator@H@std@@@std@@AEAAPEAHPEAH00@Z DD imagerel $LN18
	DD	imagerel $LN18+50
	DD	imagerel $unwind$?_Umove@?$vector@HV?$allocator@H@std@@@std@@AEAAPEAHPEAH00@Z
pdata	ENDS
;	COMDAT pdata
pdata	SEGMENT
$pdata$?_Change_array@?$vector@HV?$allocator@H@std@@@std@@AEAAXQEAH_K1@Z DD imagerel $LN25
	DD	imagerel $LN25+136
	DD	imagerel $unwind$?_Change_array@?$vector@HV?$allocator@H@std@@@std@@AEAAXQEAH_K1@Z
pdata	ENDS
;	COMDAT pdata
pdata	SEGMENT
$pdata$?_Xlength@?$vector@HV?$allocator@H@std@@@std@@CAXXZ DD imagerel $LN4
	DD	imagerel $LN4+18
	DD	imagerel $unwind$?_Xlength@?$vector@HV?$allocator@H@std@@@std@@CAXXZ
pdata	ENDS
;	COMDAT pdata
pdata	SEGMENT
$pdata$?allocate@?$allocator@PEAVModDelay@@@std@@QEAAPEAPEAVModDelay@@_K@Z DD imagerel $LN30
	DD	imagerel $LN30+107
	DD	imagerel $unwind$?allocate@?$allocator@PEAVModDelay@@@std@@QEAAPEAPEAVModDelay@@_K@Z
pdata	ENDS
;	COMDAT pdata
pdata	SEGMENT
$pdata$?_Umove@?$vector@PEAVModDelay@@V?$allocator@PEAVModDelay@@@std@@@std@@AEAAPEAPEAVModDelay@@PEAPEAV3@00@Z DD imagerel $LN18
	DD	imagerel $LN18+50
	DD	imagerel $unwind$?_Umove@?$vector@PEAVModDelay@@V?$allocator@PEAVModDelay@@@std@@@std@@AEAAPEAPEAVModDelay@@PEAPEAV3@00@Z
pdata	ENDS
;	COMDAT pdata
pdata	SEGMENT
$pdata$?_Change_array@?$vector@PEAVModDelay@@V?$allocator@PEAVModDelay@@@std@@@std@@AEAAXQEAPEAVModDelay@@_K1@Z DD imagerel $LN25
	DD	imagerel $LN25+136
	DD	imagerel $unwind$?_Change_array@?$vector@PEAVModDelay@@V?$allocator@PEAVModDelay@@@std@@@std@@AEAAXQEAPEAVModDelay@@_K1@Z
pdata	ENDS
;	COMDAT pdata
pdata	SEGMENT
$pdata$?_Xlength@?$vector@PEAVModDelay@@V?$allocator@PEAVModDelay@@@std@@@std@@CAXXZ DD imagerel $LN4
	DD	imagerel $LN4+18
	DD	imagerel $unwind$?_Xlength@?$vector@PEAVModDelay@@V?$allocator@PEAVModDelay@@@std@@@std@@CAXXZ
pdata	ENDS
;	COMDAT pdata
pdata	SEGMENT
$pdata$?allocate@?$allocator@PEAVMultiChannelDiffuser@@@std@@QEAAPEAPEAVMultiChannelDiffuser@@_K@Z DD imagerel $LN30
	DD	imagerel $LN30+107
	DD	imagerel $unwind$?allocate@?$allocator@PEAVMultiChannelDiffuser@@@std@@QEAAPEAPEAVMultiChannelDiffuser@@_K@Z
pdata	ENDS
;	COMDAT pdata
pdata	SEGMENT
$pdata$?_Umove@?$vector@PEAVMultiChannelDiffuser@@V?$allocator@PEAVMultiChannelDiffuser@@@std@@@std@@AEAAPEAPEAVMultiChannelDiffuser@@PEAPEAV3@00@Z DD imagerel $LN18
	DD	imagerel $LN18+50
	DD	imagerel $unwind$?_Umove@?$vector@PEAVMultiChannelDiffuser@@V?$allocator@PEAVMultiChannelDiffuser@@@std@@@std@@AEAAPEAPEAVMultiChannelDiffuser@@PEAPEAV3@00@Z
pdata	ENDS
;	COMDAT pdata
pdata	SEGMENT
$pdata$?_Change_array@?$vector@PEAVMultiChannelDiffuser@@V?$allocator@PEAVMultiChannelDiffuser@@@std@@@std@@AEAAXQEAPEAVMultiChannelDiffuser@@_K1@Z DD imagerel $LN25
	DD	imagerel $LN25+136
	DD	imagerel $unwind$?_Change_array@?$vector@PEAVMultiChannelDiffuser@@V?$allocator@PEAVMultiChannelDiffuser@@@std@@@std@@AEAAXQEAPEAVMultiChannelDiffuser@@_K1@Z
pdata	ENDS
;	COMDAT pdata
pdata	SEGMENT
$pdata$?_Xlength@?$vector@PEAVMultiChannelDiffuser@@V?$allocator@PEAVMultiChannelDiffuser@@@std@@@std@@CAXXZ DD imagerel $LN4
	DD	imagerel $LN4+18
	DD	imagerel $unwind$?_Xlength@?$vector@PEAVMultiChannelDiffuser@@V?$allocator@PEAVMultiChannelDiffuser@@@std@@@std@@CAXXZ
pdata	ENDS
;	COMDAT pdata
pdata	SEGMENT
$pdata$?allocate@?$allocator@PEAVModMultiChannelDiffuser@@@std@@QEAAPEAPEAVModMultiChannelDiffuser@@_K@Z DD imagerel $LN30
	DD	imagerel $LN30+107
	DD	imagerel $unwind$?allocate@?$allocator@PEAVModMultiChannelDiffuser@@@std@@QEAAPEAPEAVModMultiChannelDiffuser@@_K@Z
pdata	ENDS
;	COMDAT pdata
pdata	SEGMENT
$pdata$?_Umove@?$vector@PEAVModMultiChannelDiffuser@@V?$allocator@PEAVModMultiChannelDiffuser@@@std@@@std@@AEAAPEAPEAVModMultiChannelDiffuser@@PEAPEAV3@00@Z DD imagerel $LN18
	DD	imagerel $LN18+50
	DD	imagerel $unwind$?_Umove@?$vector@PEAVModMultiChannelDiffuser@@V?$allocator@PEAVModMultiChannelDiffuser@@@std@@@std@@AEAAPEAPEAVModMultiChannelDiffuser@@PEAPEAV3@00@Z
pdata	ENDS
;	COMDAT pdata
pdata	SEGMENT
$pdata$?_Change_array@?$vector@PEAVModMultiChannelDiffuser@@V?$allocator@PEAVModMultiChannelDiffuser@@@std@@@std@@AEAAXQEAPEAVModMultiChannelDiffuser@@_K1@Z DD imagerel $LN25
	DD	imagerel $LN25+136
	DD	imagerel $unwind$?_Change_array@?$vector@PEAVModMultiChannelDiffuser@@V?$allocator@PEAVModMultiChannelDiffuser@@@std@@@std@@AEAAXQEAPEAVModMultiChannelDiffuser@@_K1@Z
pdata	ENDS
;	COMDAT pdata
pdata	SEGMENT
$pdata$?_Xlength@?$vector@PEAVModMultiChannelDiffuser@@V?$allocator@PEAVModMultiChannelDiffuser@@@std@@@std@@CAXXZ DD imagerel $LN4
	DD	imagerel $LN4+18
	DD	imagerel $unwind$?_Xlength@?$vector@PEAVModMultiChannelDiffuser@@V?$allocator@PEAVModMultiChannelDiffuser@@@std@@@std@@CAXXZ
pdata	ENDS
;	COMDAT pdata
pdata	SEGMENT
$pdata$?allocate@?$allocator@PEAVLowPassFilter@@@std@@QEAAPEAPEAVLowPassFilter@@_K@Z DD imagerel $LN30
	DD	imagerel $LN30+107
	DD	imagerel $unwind$?allocate@?$allocator@PEAVLowPassFilter@@@std@@QEAAPEAPEAVLowPassFilter@@_K@Z
pdata	ENDS
;	COMDAT pdata
pdata	SEGMENT
$pdata$?_Umove@?$vector@PEAVLowPassFilter@@V?$allocator@PEAVLowPassFilter@@@std@@@std@@AEAAPEAPEAVLowPassFilter@@PEAPEAV3@00@Z DD imagerel $LN18
	DD	imagerel $LN18+50
	DD	imagerel $unwind$?_Umove@?$vector@PEAVLowPassFilter@@V?$allocator@PEAVLowPassFilter@@@std@@@std@@AEAAPEAPEAVLowPassFilter@@PEAPEAV3@00@Z
pdata	ENDS
;	COMDAT pdata
pdata	SEGMENT
$pdata$?_Change_array@?$vector@PEAVLowPassFilter@@V?$allocator@PEAVLowPassFilter@@@std@@@std@@AEAAXQEAPEAVLowPassFilter@@_K1@Z DD imagerel $LN25
	DD	imagerel $LN25+136
	DD	imagerel $unwind$?_Change_array@?$vector@PEAVLowPassFilter@@V?$allocator@PEAVLowPassFilter@@@std@@@std@@AEAAXQEAPEAVLowPassFilter@@_K1@Z
pdata	ENDS
;	COMDAT pdata
pdata	SEGMENT
$pdata$?_Xlength@?$vector@PEAVLowPassFilter@@V?$allocator@PEAVLowPassFilter@@@std@@@std@@CAXXZ DD imagerel $LN4
	DD	imagerel $LN4+18
	DD	imagerel $unwind$?_Xlength@?$vector@PEAVLowPassFilter@@V?$allocator@PEAVLowPassFilter@@@std@@@std@@CAXXZ
pdata	ENDS
;	COMDAT pdata
pdata	SEGMENT
$pdata$?allocate@?$allocator@PEAVModulation@@@std@@QEAAPEAPEAVModulation@@_K@Z DD imagerel $LN30
	DD	imagerel $LN30+107
	DD	imagerel $unwind$?allocate@?$allocator@PEAVModulation@@@std@@QEAAPEAPEAVModulation@@_K@Z
pdata	ENDS
;	COMDAT pdata
pdata	SEGMENT
$pdata$?_Umove@?$vector@PEAVModulation@@V?$allocator@PEAVModulation@@@std@@@std@@AEAAPEAPEAVModulation@@PEAPEAV3@00@Z DD imagerel $LN18
	DD	imagerel $LN18+50
	DD	imagerel $unwind$?_Umove@?$vector@PEAVModulation@@V?$allocator@PEAVModulation@@@std@@@std@@AEAAPEAPEAVModulation@@PEAPEAV3@00@Z
pdata	ENDS
;	COMDAT pdata
pdata	SEGMENT
$pdata$?_Change_array@?$vector@PEAVModulation@@V?$allocator@PEAVModulation@@@std@@@std@@AEAAXQEAPEAVModulation@@_K1@Z DD imagerel $LN25
	DD	imagerel $LN25+136
	DD	imagerel $unwind$?_Change_array@?$vector@PEAVModulation@@V?$allocator@PEAVModulation@@@std@@@std@@AEAAXQEAPEAVModulation@@_K1@Z
pdata	ENDS
;	COMDAT pdata
pdata	SEGMENT
$pdata$?_Xlength@?$vector@PEAVModulation@@V?$allocator@PEAVModulation@@@std@@@std@@CAXXZ DD imagerel $LN4
	DD	imagerel $LN4+18
	DD	imagerel $unwind$?_Xlength@?$vector@PEAVModulation@@V?$allocator@PEAVModulation@@@std@@@std@@CAXXZ
pdata	ENDS
;	COMDAT pdata
pdata	SEGMENT
$pdata$?allocate@?$allocator@PEAVHighPassFilter@@@std@@QEAAPEAPEAVHighPassFilter@@_K@Z DD imagerel $LN30
	DD	imagerel $LN30+107
	DD	imagerel $unwind$?allocate@?$allocator@PEAVHighPassFilter@@@std@@QEAAPEAPEAVHighPassFilter@@_K@Z
pdata	ENDS
;	COMDAT pdata
pdata	SEGMENT
$pdata$?_Umove@?$vector@PEAVHighPassFilter@@V?$allocator@PEAVHighPassFilter@@@std@@@std@@AEAAPEAPEAVHighPassFilter@@PEAPEAV3@00@Z DD imagerel $LN18
	DD	imagerel $LN18+50
	DD	imagerel $unwind$?_Umove@?$vector@PEAVHighPassFilter@@V?$allocator@PEAVHighPassFilter@@@std@@@std@@AEAAPEAPEAVHighPassFilter@@PEAPEAV3@00@Z
pdata	ENDS
;	COMDAT pdata
pdata	SEGMENT
$pdata$?_Change_array@?$vector@PEAVHighPassFilter@@V?$allocator@PEAVHighPassFilter@@@std@@@std@@AEAAXQEAPEAVHighPassFilter@@_K1@Z DD imagerel $LN25
	DD	imagerel $LN25+136
	DD	imagerel $unwind$?_Change_array@?$vector@PEAVHighPassFilter@@V?$allocator@PEAVHighPassFilter@@@std@@@std@@AEAAXQEAPEAVHighPassFilter@@_K1@Z
pdata	ENDS
;	COMDAT pdata
pdata	SEGMENT
$pdata$?_Xlength@?$vector@PEAVHighPassFilter@@V?$allocator@PEAVHighPassFilter@@@std@@@std@@CAXXZ DD imagerel $LN4
	DD	imagerel $LN4+18
	DD	imagerel $unwind$?_Xlength@?$vector@PEAVHighPassFilter@@V?$allocator@PEAVHighPassFilter@@@std@@@std@@CAXXZ
pdata	ENDS
;	COMDAT pdata
pdata	SEGMENT
$pdata$??1?$_Tidy_guard@V?$vector@MV?$allocator@M@std@@@std@@@std@@QEAA@XZ DD imagerel $LN29
	DD	imagerel $LN29+98
	DD	imagerel $unwind$??1?$_Tidy_guard@V?$vector@MV?$allocator@M@std@@@std@@@std@@QEAA@XZ
pdata	ENDS
;	COMDAT pdata
pdata	SEGMENT
$pdata$??$_Construct_n_copies_of_ty@U_Value_init_tag@std@@@?$vector@MV?$allocator@M@std@@@std@@AEAAX_KAEBU_Value_init_tag@1@@Z DD imagerel $LN62
	DD	imagerel $LN62+209
	DD	imagerel $unwind$??$_Construct_n_copies_of_ty@U_Value_init_tag@std@@@?$vector@MV?$allocator@M@std@@@std@@AEAAX_KAEBU_Value_init_tag@1@@Z
pdata	ENDS
;	COMDAT pdata
pdata	SEGMENT
$pdata$??$_Emplace_reallocate@PEAVDelay@@@?$vector@PEAVDelay@@V?$allocator@PEAVDelay@@@std@@@std@@QEAAPEAPEAVDelay@@QEAPEAV2@$$QEAPEAV2@@Z DD imagerel $LN120
	DD	imagerel $LN120+400
	DD	imagerel $unwind$??$_Emplace_reallocate@PEAVDelay@@@?$vector@PEAVDelay@@V?$allocator@PEAVDelay@@@std@@@std@@QEAAPEAPEAVDelay@@QEAPEAV2@$$QEAPEAV2@@Z
pdata	ENDS
;	COMDAT pdata
pdata	SEGMENT
$pdata$??$_Emplace_reallocate@H@?$vector@HV?$allocator@H@std@@@std@@QEAAPEAHQEAH$$QEAH@Z DD imagerel $LN120
	DD	imagerel $LN120+400
	DD	imagerel $unwind$??$_Emplace_reallocate@H@?$vector@HV?$allocator@H@std@@@std@@QEAAPEAHQEAH$$QEAH@Z
pdata	ENDS
;	COMDAT pdata
pdata	SEGMENT
$pdata$??$_Emplace_reallocate@PEAVModDelay@@@?$vector@PEAVModDelay@@V?$allocator@PEAVModDelay@@@std@@@std@@QEAAPEAPEAVModDelay@@QEAPEAV2@$$QEAPEAV2@@Z DD imagerel $LN120
	DD	imagerel $LN120+400
	DD	imagerel $unwind$??$_Emplace_reallocate@PEAVModDelay@@@?$vector@PEAVModDelay@@V?$allocator@PEAVModDelay@@@std@@@std@@QEAAPEAPEAVModDelay@@QEAPEAV2@$$QEAPEAV2@@Z
pdata	ENDS
;	COMDAT pdata
pdata	SEGMENT
$pdata$??$_Emplace_reallocate@PEAVMultiChannelDiffuser@@@?$vector@PEAVMultiChannelDiffuser@@V?$allocator@PEAVMultiChannelDiffuser@@@std@@@std@@QEAAPEAPEAVMultiChannelDiffuser@@QEAPEAV2@$$QEAPEAV2@@Z DD imagerel $LN120
	DD	imagerel $LN120+400
	DD	imagerel $unwind$??$_Emplace_reallocate@PEAVMultiChannelDiffuser@@@?$vector@PEAVMultiChannelDiffuser@@V?$allocator@PEAVMultiChannelDiffuser@@@std@@@std@@QEAAPEAPEAVMultiChannelDiffuser@@QEAPEAV2@$$QEAPEAV2@@Z
pdata	ENDS
;	COMDAT pdata
pdata	SEGMENT
$pdata$??$_Emplace_reallocate@PEAVModMultiChannelDiffuser@@@?$vector@PEAVModMultiChannelDiffuser@@V?$allocator@PEAVModMultiChannelDiffuser@@@std@@@std@@QEAAPEAPEAVModMultiChannelDiffuser@@QEAPEAV2@$$QEAPEAV2@@Z DD imagerel $LN120
	DD	imagerel $LN120+400
	DD	imagerel $unwind$??$_Emplace_reallocate@PEAVModMultiChannelDiffuser@@@?$vector@PEAVModMultiChannelDiffuser@@V?$allocator@PEAVModMultiChannelDiffuser@@@std@@@std@@QEAAPEAPEAVModMultiChannelDiffuser@@QEAPEAV2@$$QEAPEAV2@@Z
pdata	ENDS
;	COMDAT pdata
pdata	SEGMENT
$pdata$??$_Emplace_reallocate@PEAVLowPassFilter@@@?$vector@PEAVLowPassFilter@@V?$allocator@PEAVLowPassFilter@@@std@@@std@@QEAAPEAPEAVLowPassFilter@@QEAPEAV2@$$QEAPEAV2@@Z DD imagerel $LN120
	DD	imagerel $LN120+400
	DD	imagerel $unwind$??$_Emplace_reallocate@PEAVLowPassFilter@@@?$vector@PEAVLowPassFilter@@V?$allocator@PEAVLowPassFilter@@@std@@@std@@QEAAPEAPEAVLowPassFilter@@QEAPEAV2@$$QEAPEAV2@@Z
pdata	ENDS
;	COMDAT pdata
pdata	SEGMENT
$pdata$??$_Emplace_reallocate@PEAVModulation@@@?$vector@PEAVModulation@@V?$allocator@PEAVModulation@@@std@@@std@@QEAAPEAPEAVModulation@@QEAPEAV2@$$QEAPEAV2@@Z DD imagerel $LN120
	DD	imagerel $LN120+400
	DD	imagerel $unwind$??$_Emplace_reallocate@PEAVModulation@@@?$vector@PEAVModulation@@V?$allocator@PEAVModulation@@@std@@@std@@QEAAPEAPEAVModulation@@QEAPEAV2@$$QEAPEAV2@@Z
pdata	ENDS
;	COMDAT pdata
pdata	SEGMENT
$pdata$??$_Emplace_reallocate@PEAVHighPassFilter@@@?$vector@PEAVHighPassFilter@@V?$allocator@PEAVHighPassFilter@@@std@@@std@@QEAAPEAPEAVHighPassFilter@@QEAPEAV2@$$QEAPEAV2@@Z DD imagerel $LN120
	DD	imagerel $LN120+400
	DD	imagerel $unwind$??$_Emplace_reallocate@PEAVHighPassFilter@@@?$vector@PEAVHighPassFilter@@V?$allocator@PEAVHighPassFilter@@@std@@@std@@QEAAPEAPEAVHighPassFilter@@QEAPEAV2@$$QEAPEAV2@@Z
pdata	ENDS
;	COMDAT pdata
pdata	SEGMENT
$pdata$?deallocate@?$allocator@PEAVDelay@@@std@@QEAAXQEAPEAVDelay@@_K@Z DD imagerel $LN21
	DD	imagerel $LN21+67
	DD	imagerel $unwind$?deallocate@?$allocator@PEAVDelay@@@std@@QEAAXQEAPEAVDelay@@_K@Z
pdata	ENDS
;	COMDAT pdata
pdata	SEGMENT
$pdata$?deallocate@?$allocator@H@std@@QEAAXQEAH_K@Z DD imagerel $LN21
	DD	imagerel $LN21+67
	DD	imagerel $unwind$?deallocate@?$allocator@H@std@@QEAAXQEAH_K@Z
pdata	ENDS
;	COMDAT pdata
pdata	SEGMENT
$pdata$?deallocate@?$allocator@PEAVModDelay@@@std@@QEAAXQEAPEAVModDelay@@_K@Z DD imagerel $LN21
	DD	imagerel $LN21+67
	DD	imagerel $unwind$?deallocate@?$allocator@PEAVModDelay@@@std@@QEAAXQEAPEAVModDelay@@_K@Z
pdata	ENDS
;	COMDAT pdata
pdata	SEGMENT
$pdata$?deallocate@?$allocator@PEAVMultiChannelDiffuser@@@std@@QEAAXQEAPEAVMultiChannelDiffuser@@_K@Z DD imagerel $LN21
	DD	imagerel $LN21+67
	DD	imagerel $unwind$?deallocate@?$allocator@PEAVMultiChannelDiffuser@@@std@@QEAAXQEAPEAVMultiChannelDiffuser@@_K@Z
pdata	ENDS
;	COMDAT pdata
pdata	SEGMENT
$pdata$?deallocate@?$allocator@PEAVModMultiChannelDiffuser@@@std@@QEAAXQEAPEAVModMultiChannelDiffuser@@_K@Z DD imagerel $LN21
	DD	imagerel $LN21+67
	DD	imagerel $unwind$?deallocate@?$allocator@PEAVModMultiChannelDiffuser@@@std@@QEAAXQEAPEAVModMultiChannelDiffuser@@_K@Z
pdata	ENDS
;	COMDAT pdata
pdata	SEGMENT
$pdata$?deallocate@?$allocator@PEAVLowPassFilter@@@std@@QEAAXQEAPEAVLowPassFilter@@_K@Z DD imagerel $LN21
	DD	imagerel $LN21+67
	DD	imagerel $unwind$?deallocate@?$allocator@PEAVLowPassFilter@@@std@@QEAAXQEAPEAVLowPassFilter@@_K@Z
pdata	ENDS
;	COMDAT pdata
pdata	SEGMENT
$pdata$?deallocate@?$allocator@PEAVModulation@@@std@@QEAAXQEAPEAVModulation@@_K@Z DD imagerel $LN21
	DD	imagerel $LN21+67
	DD	imagerel $unwind$?deallocate@?$allocator@PEAVModulation@@@std@@QEAAXQEAPEAVModulation@@_K@Z
pdata	ENDS
;	COMDAT pdata
pdata	SEGMENT
$pdata$?deallocate@?$allocator@PEAVHighPassFilter@@@std@@QEAAXQEAPEAVHighPassFilter@@_K@Z DD imagerel $LN21
	DD	imagerel $LN21+67
	DD	imagerel $unwind$?deallocate@?$allocator@PEAVHighPassFilter@@@std@@QEAAXQEAPEAVHighPassFilter@@_K@Z
pdata	ENDS
;	COMDAT pdata
pdata	SEGMENT
$pdata$?_Move_assign@?$vector@MV?$allocator@M@std@@@std@@AEAAXAEAV12@U_Equal_allocators@2@@Z DD imagerel $LN30
	DD	imagerel $LN30+141
	DD	imagerel $unwind$?_Move_assign@?$vector@MV?$allocator@M@std@@@std@@AEAAXAEAV12@U_Equal_allocators@2@@Z
pdata	ENDS
;	COMDAT pdata
pdata	SEGMENT
$pdata$?_Reallocate_exactly@?$vector@MV?$allocator@M@std@@@std@@AEAAX_K@Z DD imagerel $LN78
	DD	imagerel $LN78+177
	DD	imagerel $unwind$?_Reallocate_exactly@?$vector@MV?$allocator@M@std@@@std@@AEAAX_K@Z
pdata	ENDS
;	COMDAT pdata
pdata	SEGMENT
$pdata$?_Tidy@?$vector@PEAVDelay@@V?$allocator@PEAVDelay@@@std@@@std@@AEAAXXZ DD imagerel $LN25
	DD	imagerel $LN25+93
	DD	imagerel $unwind$?_Tidy@?$vector@PEAVDelay@@V?$allocator@PEAVDelay@@@std@@@std@@AEAAXXZ
pdata	ENDS
;	COMDAT pdata
pdata	SEGMENT
$pdata$?_Tidy@?$vector@HV?$allocator@H@std@@@std@@AEAAXXZ DD imagerel $LN25
	DD	imagerel $LN25+93
	DD	imagerel $unwind$?_Tidy@?$vector@HV?$allocator@H@std@@@std@@AEAAXXZ
pdata	ENDS
;	COMDAT pdata
pdata	SEGMENT
$pdata$?_Tidy@?$vector@PEAVModDelay@@V?$allocator@PEAVModDelay@@@std@@@std@@AEAAXXZ DD imagerel $LN25
	DD	imagerel $LN25+93
	DD	imagerel $unwind$?_Tidy@?$vector@PEAVModDelay@@V?$allocator@PEAVModDelay@@@std@@@std@@AEAAXXZ
pdata	ENDS
;	COMDAT pdata
pdata	SEGMENT
$pdata$?_Tidy@?$vector@PEAVMultiChannelDiffuser@@V?$allocator@PEAVMultiChannelDiffuser@@@std@@@std@@AEAAXXZ DD imagerel $LN25
	DD	imagerel $LN25+93
	DD	imagerel $unwind$?_Tidy@?$vector@PEAVMultiChannelDiffuser@@V?$allocator@PEAVMultiChannelDiffuser@@@std@@@std@@AEAAXXZ
pdata	ENDS
;	COMDAT pdata
pdata	SEGMENT
$pdata$?_Tidy@?$vector@PEAVModMultiChannelDiffuser@@V?$allocator@PEAVModMultiChannelDiffuser@@@std@@@std@@AEAAXXZ DD imagerel $LN25
	DD	imagerel $LN25+93
	DD	imagerel $unwind$?_Tidy@?$vector@PEAVModMultiChannelDiffuser@@V?$allocator@PEAVModMultiChannelDiffuser@@@std@@@std@@AEAAXXZ
pdata	ENDS
;	COMDAT pdata
pdata	SEGMENT
$pdata$?_Tidy@?$vector@PEAVLowPassFilter@@V?$allocator@PEAVLowPassFilter@@@std@@@std@@AEAAXXZ DD imagerel $LN25
	DD	imagerel $LN25+93
	DD	imagerel $unwind$?_Tidy@?$vector@PEAVLowPassFilter@@V?$allocator@PEAVLowPassFilter@@@std@@@std@@AEAAXXZ
pdata	ENDS
;	COMDAT pdata
pdata	SEGMENT
$pdata$?_Tidy@?$vector@PEAVModulation@@V?$allocator@PEAVModulation@@@std@@@std@@AEAAXXZ DD imagerel $LN25
	DD	imagerel $LN25+93
	DD	imagerel $unwind$?_Tidy@?$vector@PEAVModulation@@V?$allocator@PEAVModulation@@@std@@@std@@AEAAXXZ
pdata	ENDS
;	COMDAT pdata
pdata	SEGMENT
$pdata$?_Tidy@?$vector@PEAVHighPassFilter@@V?$allocator@PEAVHighPassFilter@@@std@@@std@@AEAAXXZ DD imagerel $LN25
	DD	imagerel $LN25+93
	DD	imagerel $unwind$?_Tidy@?$vector@PEAVHighPassFilter@@V?$allocator@PEAVHighPassFilter@@@std@@@std@@AEAAXXZ
pdata	ENDS
;	COMDAT pdata
pdata	SEGMENT
$pdata$??0?$vector@MV?$allocator@M@std@@@std@@QEAA@_KAEBV?$allocator@M@1@@Z DD imagerel $LN68
	DD	imagerel $LN68+226
	DD	imagerel $unwind$??0?$vector@MV?$allocator@M@std@@@std@@QEAA@_KAEBV?$allocator@M@1@@Z
pdata	ENDS
;	COMDAT pdata
pdata	SEGMENT
$pdata$??4?$vector@MV?$allocator@M@std@@@std@@QEAAAEAV01@$$QEAV01@@Z DD imagerel $LN34
	DD	imagerel $LN34+149
	DD	imagerel $unwind$??4?$vector@MV?$allocator@M@std@@@std@@QEAAAEAV01@$$QEAV01@@Z
pdata	ENDS
;	COMDAT pdata
pdata	SEGMENT
$pdata$?reserve@?$vector@MV?$allocator@M@std@@@std@@QEAAX_K@Z DD imagerel $LN9
	DD	imagerel $LN9+33
	DD	imagerel $unwind$?reserve@?$vector@MV?$allocator@M@std@@@std@@QEAAX_K@Z
pdata	ENDS
;	COMDAT pdata
pdata	SEGMENT
$pdata$??1?$vector@PEAVDelay@@V?$allocator@PEAVDelay@@@std@@@std@@QEAA@XZ DD imagerel $LN28
	DD	imagerel $LN28+93
	DD	imagerel $unwind$??1?$vector@PEAVDelay@@V?$allocator@PEAVDelay@@@std@@@std@@QEAA@XZ
pdata	ENDS
;	COMDAT pdata
pdata	SEGMENT
$pdata$??1?$vector@HV?$allocator@H@std@@@std@@QEAA@XZ DD imagerel $LN28
	DD	imagerel $LN28+93
	DD	imagerel $unwind$??1?$vector@HV?$allocator@H@std@@@std@@QEAA@XZ
pdata	ENDS
;	COMDAT pdata
pdata	SEGMENT
$pdata$??1?$vector@PEAVModDelay@@V?$allocator@PEAVModDelay@@@std@@@std@@QEAA@XZ DD imagerel $LN28
	DD	imagerel $LN28+93
	DD	imagerel $unwind$??1?$vector@PEAVModDelay@@V?$allocator@PEAVModDelay@@@std@@@std@@QEAA@XZ
pdata	ENDS
;	COMDAT pdata
pdata	SEGMENT
$pdata$??1?$vector@PEAVMultiChannelDiffuser@@V?$allocator@PEAVMultiChannelDiffuser@@@std@@@std@@QEAA@XZ DD imagerel $LN28
	DD	imagerel $LN28+93
	DD	imagerel $unwind$??1?$vector@PEAVMultiChannelDiffuser@@V?$allocator@PEAVMultiChannelDiffuser@@@std@@@std@@QEAA@XZ
pdata	ENDS
;	COMDAT pdata
pdata	SEGMENT
$pdata$??1?$vector@PEAVModMultiChannelDiffuser@@V?$allocator@PEAVModMultiChannelDiffuser@@@std@@@std@@QEAA@XZ DD imagerel $LN28
	DD	imagerel $LN28+93
	DD	imagerel $unwind$??1?$vector@PEAVModMultiChannelDiffuser@@V?$allocator@PEAVModMultiChannelDiffuser@@@std@@@std@@QEAA@XZ
pdata	ENDS
;	COMDAT pdata
pdata	SEGMENT
$pdata$??1?$vector@PEAVLowPassFilter@@V?$allocator@PEAVLowPassFilter@@@std@@@std@@QEAA@XZ DD imagerel $LN28
	DD	imagerel $LN28+93
	DD	imagerel $unwind$??1?$vector@PEAVLowPassFilter@@V?$allocator@PEAVLowPassFilter@@@std@@@std@@QEAA@XZ
pdata	ENDS
;	COMDAT pdata
pdata	SEGMENT
$pdata$??1?$vector@PEAVModulation@@V?$allocator@PEAVModulation@@@std@@@std@@QEAA@XZ DD imagerel $LN28
	DD	imagerel $LN28+93
	DD	imagerel $unwind$??1?$vector@PEAVModulation@@V?$allocator@PEAVModulation@@@std@@@std@@QEAA@XZ
pdata	ENDS
;	COMDAT pdata
pdata	SEGMENT
$pdata$??1?$vector@PEAVHighPassFilter@@V?$allocator@PEAVHighPassFilter@@@std@@@std@@QEAA@XZ DD imagerel $LN28
	DD	imagerel $LN28+93
	DD	imagerel $unwind$??1?$vector@PEAVHighPassFilter@@V?$allocator@PEAVHighPassFilter@@@std@@@std@@QEAA@XZ
pdata	ENDS
;	COMDAT pdata
pdata	SEGMENT
$pdata$??_GPSMVocoder@@QEAAPEAXI@Z DD imagerel $LN6
	DD	imagerel $LN6+36
	DD	imagerel $unwind$??_GPSMVocoder@@QEAAPEAXI@Z
pdata	ENDS
;	COMDAT pdata
pdata	SEGMENT
$pdata$??_GFDN@@QEAAPEAXI@Z DD imagerel $LN6
	DD	imagerel $LN6+36
	DD	imagerel $unwind$??_GFDN@@QEAAPEAXI@Z
pdata	ENDS
;	COMDAT pdata
pdata	SEGMENT
$pdata$??1Shimmer@@UEAA@XZ DD imagerel $LN23
	DD	imagerel $LN23+140
	DD	imagerel $unwind$??1Shimmer@@UEAA@XZ
pdata	ENDS
;	COMDAT pdata
pdata	SEGMENT
$pdata$?getVendorString@Shimmer@@UEAA_NPEAD@Z DD imagerel $LN6
	DD	imagerel $LN6+43
	DD	imagerel $unwind$?getVendorString@Shimmer@@UEAA_NPEAD@Z
pdata	ENDS
;	COMDAT pdata
pdata	SEGMENT
$pdata$?getEffectName@Shimmer@@UEAA_NPEAD@Z DD imagerel $LN6
	DD	imagerel $LN6+43
	DD	imagerel $unwind$?getEffectName@Shimmer@@UEAA_NPEAD@Z
pdata	ENDS
;	COMDAT pdata
pdata	SEGMENT
$pdata$?setChunk@Shimmer@@UEAAHPEAXH_N@Z DD imagerel $LN4
	DD	imagerel $LN4+231
	DD	imagerel $unwind$?setChunk@Shimmer@@UEAAHPEAXH_N@Z
pdata	ENDS
;	COMDAT pdata
pdata	SEGMENT
$pdata$?getChunk@Shimmer@@UEAAHPEAPEAX_N@Z DD imagerel $LN4
	DD	imagerel $LN4+21
	DD	imagerel $unwind$?getChunk@Shimmer@@UEAAHPEAPEAX_N@Z
pdata	ENDS
;	COMDAT pdata
pdata	SEGMENT
$pdata$?getProgramNameIndexed@Shimmer@@UEAA_NHHPEAD@Z DD imagerel $LN5
	DD	imagerel $LN5+51
	DD	imagerel $unwind$?getProgramNameIndexed@Shimmer@@UEAA_NHHPEAD@Z
pdata	ENDS
;	COMDAT pdata
pdata	SEGMENT
$pdata$?setProgram@Shimmer@@UEAAXH@Z DD imagerel $LN4
	DD	imagerel $LN4+243
	DD	imagerel $unwind$?setProgram@Shimmer@@UEAAXH@Z
pdata	ENDS
;	COMDAT pdata
pdata	SEGMENT
$pdata$?InitPresets@Shimmer@@AEAAXXZ DD imagerel $LN10
	DD	imagerel $LN10+1186
	DD	imagerel $unwind$?InitPresets@Shimmer@@AEAAXXZ
pdata	ENDS
;	COMDAT pdata
pdata	SEGMENT
$pdata$?getParameterName@Shimmer@@UEAAXHPEAD@Z DD imagerel $LN42
	DD	imagerel $LN42+191
	DD	imagerel $unwind$?getParameterName@Shimmer@@UEAAXHPEAD@Z
pdata	ENDS
;	COMDAT pdata
pdata	SEGMENT
$pdata$?getParameterDisplay@Shimmer@@UEAAXHPEAD@Z DD imagerel $LN28
	DD	imagerel $LN28+382
	DD	imagerel $unwind$?getParameterDisplay@Shimmer@@UEAAXHPEAD@Z
pdata	ENDS
;	COMDAT pdata
pdata	SEGMENT
$pdata$?getParameterLabel@Shimmer@@UEAAXHPEAD@Z DD imagerel $LN42
	DD	imagerel $LN42+115
	DD	imagerel $unwind$?getParameterLabel@Shimmer@@UEAAXHPEAD@Z
pdata	ENDS
;	COMDAT pdata
pdata	SEGMENT
$pdata$?setParameter@Shimmer@@UEAAXHM@Z DD imagerel $LN150
	DD	imagerel $LN150+1225
	DD	imagerel $unwind$?setParameter@Shimmer@@UEAAXHM@Z
pdata	ENDS
;	COMDAT pdata
pdata	SEGMENT
$pdata$?processReplacing@Shimmer@@UEAAXPEAPEAM0H@Z DD imagerel $LN12
	DD	imagerel $LN12+394
	DD	imagerel $unwind$?processReplacing@Shimmer@@UEAAXPEAPEAM0H@Z
pdata	ENDS
;	COMDAT pdata
pdata	SEGMENT
$pdata$?setSampleRate@Shimmer@@UEAAXM@Z DD imagerel $LN4
	DD	imagerel $LN4+108
	DD	imagerel $unwind$?setSampleRate@Shimmer@@UEAAXM@Z
pdata	ENDS
;	COMDAT pdata
pdata	SEGMENT
$pdata$?InitPlugin@Shimmer@@AEAAXXZ DD imagerel $LN206
	DD	imagerel $LN206+1141
	DD	imagerel $unwind$?InitPlugin@Shimmer@@AEAAXXZ
pdata	ENDS
;	COMDAT pdata
pdata	SEGMENT
$pdata$?dtor$0@?0??InitPlugin@Shimmer@@AEAAXXZ@4HA DD imagerel ?dtor$0@?0??InitPlugin@Shimmer@@AEAAXXZ@4HA
	DD	imagerel ?dtor$0@?0??InitPlugin@Shimmer@@AEAAXXZ@4HA+32
	DD	imagerel $unwind$?dtor$0@?0??InitPlugin@Shimmer@@AEAAXXZ@4HA
pdata	ENDS
;	COMDAT pdata
pdata	SEGMENT
$pdata$?dtor$1@?0??InitPlugin@Shimmer@@AEAAXXZ@4HA DD imagerel ?dtor$1@?0??InitPlugin@Shimmer@@AEAAXXZ@4HA
	DD	imagerel ?dtor$1@?0??InitPlugin@Shimmer@@AEAAXXZ@4HA+32
	DD	imagerel $unwind$?dtor$1@?0??InitPlugin@Shimmer@@AEAAXXZ@4HA
pdata	ENDS
;	COMDAT pdata
pdata	SEGMENT
$pdata$?dtor$2@?0??InitPlugin@Shimmer@@AEAAXXZ@4HA DD imagerel ?dtor$2@?0??InitPlugin@Shimmer@@AEAAXXZ@4HA
	DD	imagerel ?dtor$2@?0??InitPlugin@Shimmer@@AEAAXXZ@4HA+32
	DD	imagerel $unwind$?dtor$2@?0??InitPlugin@Shimmer@@AEAAXXZ@4HA
pdata	ENDS
;	COMDAT pdata
pdata	SEGMENT
$pdata$?dtor$3@?0??InitPlugin@Shimmer@@AEAAXXZ@4HA DD imagerel ?dtor$3@?0??InitPlugin@Shimmer@@AEAAXXZ@4HA
	DD	imagerel ?dtor$3@?0??InitPlugin@Shimmer@@AEAAXXZ@4HA+32
	DD	imagerel $unwind$?dtor$3@?0??InitPlugin@Shimmer@@AEAAXXZ@4HA
pdata	ENDS
;	COMDAT pdata
pdata	SEGMENT
$pdata$??_GShimmer@@UEAAPEAXI@Z DD imagerel $LN6
	DD	imagerel $LN6+52
	DD	imagerel $unwind$??_GShimmer@@UEAAPEAXI@Z
pdata	ENDS
;	COMDAT pdata
pdata	SEGMENT
$pdata$??0Shimmer@@QEAA@P6A_JPEAUAEffect@@HH_JPEAXM@Z@Z DD imagerel $LN14
	DD	imagerel $LN14+265
	DD	imagerel $unwind$??0Shimmer@@QEAA@P6A_JPEAUAEffect@@HH_JPEAXM@Z@Z
pdata	ENDS
;	COMDAT pdata
pdata	SEGMENT
$pdata$?updateMix@Shimmer@@AEAAXXZ DD imagerel $LN4
	DD	imagerel $LN4+95
	DD	imagerel $unwind$?updateMix@Shimmer@@AEAAXXZ
pdata	ENDS
;	COMDAT pdata
pdata	SEGMENT
$pdata$??__ELPF_FILTER_MIN_FREQ_LOG@@YAXXZ DD imagerel ??__ELPF_FILTER_MIN_FREQ_LOG@@YAXXZ
	DD	imagerel ??__ELPF_FILTER_MIN_FREQ_LOG@@YAXXZ+38
	DD	imagerel $unwind$??__ELPF_FILTER_MIN_FREQ_LOG@@YAXXZ
pdata	ENDS
;	COMDAT pdata
pdata	SEGMENT
$pdata$??__ELPF_FILTER_MAX_FREQ_LOG@@YAXXZ DD imagerel ??__ELPF_FILTER_MAX_FREQ_LOG@@YAXXZ
	DD	imagerel ??__ELPF_FILTER_MAX_FREQ_LOG@@YAXXZ+38
	DD	imagerel $unwind$??__ELPF_FILTER_MAX_FREQ_LOG@@YAXXZ
pdata	ENDS
;	COMDAT pdata
pdata	SEGMENT
$pdata$??__EMAX_DAMPING_FREQUENCY_LOG@@YAXXZ DD imagerel ??__EMAX_DAMPING_FREQUENCY_LOG@@YAXXZ
	DD	imagerel ??__EMAX_DAMPING_FREQUENCY_LOG@@YAXXZ+38
	DD	imagerel $unwind$??__EMAX_DAMPING_FREQUENCY_LOG@@YAXXZ
pdata	ENDS
;	COMDAT pdata
pdata	SEGMENT
$pdata$??__EMIN_DAMPING_FREQUENCY_LOG@@YAXXZ DD imagerel ??__EMIN_DAMPING_FREQUENCY_LOG@@YAXXZ
	DD	imagerel ??__EMIN_DAMPING_FREQUENCY_LOG@@YAXXZ+38
	DD	imagerel $unwind$??__EMIN_DAMPING_FREQUENCY_LOG@@YAXXZ
pdata	ENDS
;	COMDAT pdata
pdata	SEGMENT
$pdata$?setParameters@PSMVocoder@@QEAAXAEBUPSMVocoderParameters@@@Z DD imagerel $LN8
	DD	imagerel $LN8+66
	DD	imagerel $unwind$?setParameters@PSMVocoder@@QEAAXAEBUPSMVocoderParameters@@@Z
pdata	ENDS
;	COMDAT pdata
pdata	SEGMENT
$pdata$?processAudioSample@PSMVocoder@@UEAANN@Z DD imagerel $LN161
	DD	imagerel $LN161+1733
	DD	imagerel $unwind$?processAudioSample@PSMVocoder@@UEAANN@Z
pdata	ENDS
;	COMDAT pdata
pdata	SEGMENT
$pdata$?findPeaksAndRegionsOfInfluence@PSMVocoder@@QEAAXXZ DD imagerel $LN88
	DD	imagerel $LN88+758
	DD	imagerel $unwind$?findPeaksAndRegionsOfInfluence@PSMVocoder@@QEAAXXZ
pdata	ENDS
;	COMDAT pdata
pdata	SEGMENT
$pdata$?findPreviousNearestPeak@PSMVocoder@@QEAAHH@Z DD imagerel $LN20
	DD	imagerel $LN20+132
	DD	imagerel $unwind$?findPreviousNearestPeak@PSMVocoder@@QEAAHH@Z
pdata	ENDS
;	COMDAT pdata
pdata	SEGMENT
$pdata$?setPitchShift@PSMVocoder@@QEAAXN@Z DD imagerel $LN14
	DD	imagerel $LN14+459
	DD	imagerel $unwind$?setPitchShift@PSMVocoder@@QEAAXN@Z
pdata	ENDS
;	COMDAT pdata
pdata	SEGMENT
$pdata$?reset@PSMVocoder@@UEAA_NN@Z DD imagerel $LN16
	DD	imagerel $LN16+222
	DD	imagerel $unwind$?reset@PSMVocoder@@UEAA_NN@Z
pdata	ENDS
;	COMDAT pdata
pdata	SEGMENT
$pdata$??1PSMVocoder@@QEAA@XZ DD imagerel $LN12
	DD	imagerel $LN12+109
	DD	imagerel $unwind$??1PSMVocoder@@QEAA@XZ
pdata	ENDS
;	COMDAT pdata
pdata	SEGMENT
$pdata$??0PSMVocoder@@QEAA@XZ DD imagerel $LN34
	DD	imagerel $LN34+429
	DD	imagerel $unwind$??0PSMVocoder@@QEAA@XZ
pdata	ENDS
;	COMDAT pdata
pdata	SEGMENT
$pdata$??1PhaseVocoder@@QEAA@XZ DD imagerel $LN8
	DD	imagerel $LN8+64
	DD	imagerel $unwind$??1PhaseVocoder@@QEAA@XZ
pdata	ENDS
;	COMDAT pdata
pdata	SEGMENT
$pdata$?resample@@YA_NPEAN0IIW4interpolation@@N0@Z DD imagerel $LN94
	DD	imagerel $LN94+315
	DD	imagerel $unwind$?resample@@YA_NPEAN0IIW4interpolation@@N0@Z
pdata	ENDS
;	COMDAT pdata
pdata	SEGMENT
$pdata$?principalArg@@YANN@Z DD imagerel $LN6
	DD	imagerel $LN6+79
	DD	imagerel $unwind$?principalArg@@YANN@Z
pdata	ENDS
;	COMDAT pdata
pdata	SEGMENT
$pdata$??__EkCTCorrFactorAntiLog@@YAXXZ DD imagerel ??__EkCTCorrFactorAntiLog@@YAXXZ
	DD	imagerel ??__EkCTCorrFactorAntiLog@@YAXXZ+47
	DD	imagerel $unwind$??__EkCTCorrFactorAntiLog@@YAXXZ
pdata	ENDS
;	COMDAT pdata
pdata	SEGMENT
$pdata$??__EkCTCorrFactorZero@@YAXXZ DD imagerel ??__EkCTCorrFactorZero@@YAXXZ
	DD	imagerel ??__EkCTCorrFactorZero@@YAXXZ+39
	DD	imagerel $unwind$??__EkCTCorrFactorZero@@YAXXZ
pdata	ENDS
;	COMDAT pdata
pdata	SEGMENT
$pdata$??_GModulation@@QEAAPEAXI@Z DD imagerel $LN17
	DD	imagerel $LN17+88
	DD	imagerel $unwind$??_GModulation@@QEAAPEAXI@Z
pdata	ENDS
;	COMDAT pdata
pdata	SEGMENT
$pdata$??_GHighPassFilter@@QEAAPEAXI@Z DD imagerel $LN6
	DD	imagerel $LN6+28
	DD	imagerel $unwind$??_GHighPassFilter@@QEAAPEAXI@Z
pdata	ENDS
;	COMDAT pdata
pdata	SEGMENT
$pdata$??_GModMultiChannelFeedback@@QEAAPEAXI@Z DD imagerel $LN6
	DD	imagerel $LN6+36
	DD	imagerel $unwind$??_GModMultiChannelFeedback@@QEAAPEAXI@Z
pdata	ENDS
;	COMDAT pdata
pdata	SEGMENT
$pdata$??_GModMultiChannelDiffuser@@QEAAPEAXI@Z DD imagerel $LN6
	DD	imagerel $LN6+36
	DD	imagerel $unwind$??_GModMultiChannelDiffuser@@QEAAPEAXI@Z
pdata	ENDS
;	COMDAT pdata
pdata	SEGMENT
$pdata$??_GMultiChannelDiffuser@@QEAAPEAXI@Z DD imagerel $LN6
	DD	imagerel $LN6+36
	DD	imagerel $unwind$??_GMultiChannelDiffuser@@QEAAPEAXI@Z
pdata	ENDS
;	COMDAT pdata
pdata	SEGMENT
$pdata$??_GChannelMixer@@QEAAPEAXI@Z DD imagerel $LN6
	DD	imagerel $LN6+28
	DD	imagerel $unwind$??_GChannelMixer@@QEAAPEAXI@Z
pdata	ENDS
;	COMDAT pdata
pdata	SEGMENT
$pdata$??_GChannelSplitter@@QEAAPEAXI@Z DD imagerel $LN6
	DD	imagerel $LN6+28
	DD	imagerel $unwind$??_GChannelSplitter@@QEAAPEAXI@Z
pdata	ENDS
;	COMDAT pdata
pdata	SEGMENT
$pdata$?initInternalArrays@FDN@@AEAAXXZ DD imagerel $LN4
	DD	imagerel $LN4+102
	DD	imagerel $unwind$?initInternalArrays@FDN@@AEAAXXZ
pdata	ENDS
;	COMDAT pdata
pdata	SEGMENT
$pdata$?deleteChorus@FDN@@AEAAXXZ DD imagerel $LN35
	DD	imagerel $LN35+188
	DD	imagerel $unwind$?deleteChorus@FDN@@AEAAXXZ
pdata	ENDS
;	COMDAT pdata
pdata	SEGMENT
$pdata$?deleteFilters@FDN@@AEAAXXZ DD imagerel $LN43
	DD	imagerel $LN43+211
	DD	imagerel $unwind$?deleteFilters@FDN@@AEAAXXZ
pdata	ENDS
;	COMDAT pdata
pdata	SEGMENT
$pdata$?deleteFeedbackBlock@FDN@@AEAAXXZ DD imagerel $LN10
	DD	imagerel $LN10+42
	DD	imagerel $unwind$?deleteFeedbackBlock@FDN@@AEAAXXZ
pdata	ENDS
;	COMDAT pdata
pdata	SEGMENT
$pdata$?deleteDiffusionBlocks@FDN@@AEAAXXZ DD imagerel $LN48
	DD	imagerel $LN48+272
	DD	imagerel $unwind$?deleteDiffusionBlocks@FDN@@AEAAXXZ
pdata	ENDS
;	COMDAT pdata
pdata	SEGMENT
$pdata$?deleteInterfaceBlocks@FDN@@AEAAXXZ DD imagerel $LN15
	DD	imagerel $LN15+52
	DD	imagerel $unwind$?deleteInterfaceBlocks@FDN@@AEAAXXZ
pdata	ENDS
;	COMDAT pdata
pdata	SEGMENT
$pdata$?constructModulation@FDN@@AEAAXXZ DD imagerel $LN25
	DD	imagerel $LN25+125
	DD	imagerel $unwind$?constructModulation@FDN@@AEAAXXZ
pdata	ENDS
;	COMDAT pdata
pdata	SEGMENT
$pdata$?dtor$0@?0??constructModulation@FDN@@AEAAXXZ@4HA DD imagerel ?dtor$0@?0??constructModulation@FDN@@AEAAXXZ@4HA
	DD	imagerel ?dtor$0@?0??constructModulation@FDN@@AEAAXXZ@4HA+29
	DD	imagerel $unwind$?dtor$0@?0??constructModulation@FDN@@AEAAXXZ@4HA
pdata	ENDS
;	COMDAT pdata
pdata	SEGMENT
$pdata$?constructFilters@FDN@@AEAAXXZ DD imagerel $LN36
	DD	imagerel $LN36+298
	DD	imagerel $unwind$?constructFilters@FDN@@AEAAXXZ
pdata	ENDS
;	COMDAT pdata
pdata	SEGMENT
$pdata$?constructDiffusionBlocks@FDN@@AEAAXXZ DD imagerel $LN102
	DD	imagerel $LN102+571
	DD	imagerel $unwind$?constructDiffusionBlocks@FDN@@AEAAXXZ
pdata	ENDS
;	COMDAT pdata
pdata	SEGMENT
$pdata$?dtor$0@?0??constructDiffusionBlocks@FDN@@AEAAXXZ@4HA DD imagerel ?dtor$0@?0??constructDiffusionBlocks@FDN@@AEAAXXZ@4HA
	DD	imagerel ?dtor$0@?0??constructDiffusionBlocks@FDN@@AEAAXXZ@4HA+32
	DD	imagerel $unwind$?dtor$0@?0??constructDiffusionBlocks@FDN@@AEAAXXZ@4HA
pdata	ENDS
;	COMDAT pdata
pdata	SEGMENT
$pdata$?dtor$1@?0??constructDiffusionBlocks@FDN@@AEAAXXZ@4HA DD imagerel ?dtor$1@?0??constructDiffusionBlocks@FDN@@AEAAXXZ@4HA
	DD	imagerel ?dtor$1@?0??constructDiffusionBlocks@FDN@@AEAAXXZ@4HA+32
	DD	imagerel $unwind$?dtor$1@?0??constructDiffusionBlocks@FDN@@AEAAXXZ@4HA
pdata	ENDS
;	COMDAT pdata
pdata	SEGMENT
$pdata$?dtor$3@?0??constructDiffusionBlocks@FDN@@AEAAXXZ@4HA DD imagerel ?dtor$3@?0??constructDiffusionBlocks@FDN@@AEAAXXZ@4HA
	DD	imagerel ?dtor$3@?0??constructDiffusionBlocks@FDN@@AEAAXXZ@4HA+32
	DD	imagerel $unwind$?dtor$3@?0??constructDiffusionBlocks@FDN@@AEAAXXZ@4HA
pdata	ENDS
;	COMDAT pdata
pdata	SEGMENT
$pdata$?dtor$7@?0??constructDiffusionBlocks@FDN@@AEAAXXZ@4HA DD imagerel ?dtor$7@?0??constructDiffusionBlocks@FDN@@AEAAXXZ@4HA
	DD	imagerel ?dtor$7@?0??constructDiffusionBlocks@FDN@@AEAAXXZ@4HA+32
	DD	imagerel $unwind$?dtor$7@?0??constructDiffusionBlocks@FDN@@AEAAXXZ@4HA
pdata	ENDS
;	COMDAT pdata
pdata	SEGMENT
$pdata$?dtor$4@?0??constructDiffusionBlocks@FDN@@AEAAXXZ@4HA DD imagerel ?dtor$4@?0??constructDiffusionBlocks@FDN@@AEAAXXZ@4HA
	DD	imagerel ?dtor$4@?0??constructDiffusionBlocks@FDN@@AEAAXXZ@4HA+29
	DD	imagerel $unwind$?dtor$4@?0??constructDiffusionBlocks@FDN@@AEAAXXZ@4HA
pdata	ENDS
;	COMDAT pdata
pdata	SEGMENT
$pdata$?dtor$5@?0??constructDiffusionBlocks@FDN@@AEAAXXZ@4HA DD imagerel ?dtor$5@?0??constructDiffusionBlocks@FDN@@AEAAXXZ@4HA
	DD	imagerel ?dtor$5@?0??constructDiffusionBlocks@FDN@@AEAAXXZ@4HA+29
	DD	imagerel $unwind$?dtor$5@?0??constructDiffusionBlocks@FDN@@AEAAXXZ@4HA
pdata	ENDS
;	COMDAT pdata
pdata	SEGMENT
$pdata$?dtor$2@?0??constructDiffusionBlocks@FDN@@AEAAXXZ@4HA DD imagerel ?dtor$2@?0??constructDiffusionBlocks@FDN@@AEAAXXZ@4HA
	DD	imagerel ?dtor$2@?0??constructDiffusionBlocks@FDN@@AEAAXXZ@4HA+32
	DD	imagerel $unwind$?dtor$2@?0??constructDiffusionBlocks@FDN@@AEAAXXZ@4HA
pdata	ENDS
;	COMDAT pdata
pdata	SEGMENT
$pdata$?constructFDN@FDN@@AEAAXHHHHH@Z DD imagerel $LN120
	DD	imagerel $LN120+843
	DD	imagerel $unwind$?constructFDN@FDN@@AEAAXHHHHH@Z
pdata	ENDS
;	COMDAT pdata
pdata	SEGMENT
$pdata$?dtor$2@?0??constructFDN@FDN@@AEAAXHHHHH@Z@4HA DD imagerel ?dtor$2@?0??constructFDN@FDN@@AEAAXHHHHH@Z@4HA
	DD	imagerel ?dtor$2@?0??constructFDN@FDN@@AEAAXHHHHH@Z@4HA+29
	DD	imagerel $unwind$?dtor$2@?0??constructFDN@FDN@@AEAAXHHHHH@Z@4HA
pdata	ENDS
;	COMDAT pdata
pdata	SEGMENT
$pdata$?dtor$7@?0??constructFDN@FDN@@AEAAXHHHHH@Z@4HA DD imagerel ?dtor$7@?0??constructFDN@FDN@@AEAAXHHHHH@Z@4HA
	DD	imagerel ?dtor$7@?0??constructFDN@FDN@@AEAAXHHHHH@Z@4HA+29
	DD	imagerel $unwind$?dtor$7@?0??constructFDN@FDN@@AEAAXHHHHH@Z@4HA
pdata	ENDS
;	COMDAT pdata
pdata	SEGMENT
$pdata$?dtor$3@?0??constructFDN@FDN@@AEAAXHHHHH@Z@4HA DD imagerel ?dtor$3@?0??constructFDN@FDN@@AEAAXHHHHH@Z@4HA
	DD	imagerel ?dtor$3@?0??constructFDN@FDN@@AEAAXHHHHH@Z@4HA+29
	DD	imagerel $unwind$?dtor$3@?0??constructFDN@FDN@@AEAAXHHHHH@Z@4HA
pdata	ENDS
;	COMDAT pdata
pdata	SEGMENT
$pdata$?dtor$10@?0??constructFDN@FDN@@AEAAXHHHHH@Z@4HA DD imagerel ?dtor$10@?0??constructFDN@FDN@@AEAAXHHHHH@Z@4HA
	DD	imagerel ?dtor$10@?0??constructFDN@FDN@@AEAAXHHHHH@Z@4HA+29
	DD	imagerel $unwind$?dtor$10@?0??constructFDN@FDN@@AEAAXHHHHH@Z@4HA
pdata	ENDS
;	COMDAT pdata
pdata	SEGMENT
$pdata$?dtor$4@?0??constructFDN@FDN@@AEAAXHHHHH@Z@4HA DD imagerel ?dtor$4@?0??constructFDN@FDN@@AEAAXHHHHH@Z@4HA
	DD	imagerel ?dtor$4@?0??constructFDN@FDN@@AEAAXHHHHH@Z@4HA+29
	DD	imagerel $unwind$?dtor$4@?0??constructFDN@FDN@@AEAAXHHHHH@Z@4HA
pdata	ENDS
;	COMDAT pdata
pdata	SEGMENT
$pdata$?setEqualDiffuserDelayLengths@FDN@@AEAAXMMW4DelayDistribution@@@Z DD imagerel $LN29
	DD	imagerel $LN29+209
	DD	imagerel $unwind$?setEqualDiffuserDelayLengths@FDN@@AEAAXMMW4DelayDistribution@@@Z
pdata	ENDS
;	COMDAT pdata
pdata	SEGMENT
$pdata$?setDoubledDiffuserDelayLengths@FDN@@AEAAXMMW4DelayDistribution@@@Z DD imagerel $LN29
	DD	imagerel $LN29+187
	DD	imagerel $unwind$?setDoubledDiffuserDelayLengths@FDN@@AEAAXMMW4DelayDistribution@@@Z
pdata	ENDS
;	COMDAT pdata
pdata	SEGMENT
$pdata$?processAudio@FDN@@QEAAXPEAM0@Z DD imagerel $LN178
	DD	imagerel $LN178+1217
	DD	imagerel $unwind$?processAudio@FDN@@QEAAXPEAM0@Z
pdata	ENDS
;	COMDAT pdata
pdata	SEGMENT
$pdata$?setSampleRate@FDN@@QEAAXH@Z DD imagerel $LN112
	DD	imagerel $LN112+509
	DD	imagerel $unwind$?setSampleRate@FDN@@QEAAXH@Z
pdata	ENDS
;	COMDAT pdata
pdata	SEGMENT
$pdata$?setFeedbackDelayLengths@FDN@@QEAAXMMW4DelayDistribution@@@Z DD imagerel $LN11
	DD	imagerel $LN11+87
	DD	imagerel $unwind$?setFeedbackDelayLengths@FDN@@QEAAXMMW4DelayDistribution@@@Z
pdata	ENDS
;	COMDAT pdata
pdata	SEGMENT
$pdata$?setDiffuserDelayLengths@FDN@@QEAAXMW4DiffuserDelayLogic@@W4DelayDistribution@@M@Z DD imagerel $LN61
	DD	imagerel $LN61+365
	DD	imagerel $unwind$?setDiffuserDelayLengths@FDN@@QEAAXMW4DiffuserDelayLogic@@W4DelayDistribution@@M@Z
pdata	ENDS
;	COMDAT pdata
pdata	SEGMENT
$pdata$?setStereoSpread@FDN@@QEAAXM@Z DD imagerel $LN29
	DD	imagerel $LN29+108
	DD	imagerel $unwind$?setStereoSpread@FDN@@QEAAXM@Z
pdata	ENDS
;	COMDAT pdata
pdata	SEGMENT
$pdata$?setHighPassType@FDN@@QEAAXW4HPFilterType@@@Z DD imagerel $LN16
	DD	imagerel $LN16+82
	DD	imagerel $unwind$?setHighPassType@FDN@@QEAAXW4HPFilterType@@@Z
pdata	ENDS
;	COMDAT pdata
pdata	SEGMENT
$pdata$?setLowPassType@FDN@@QEAAXW4LPFilterType@@@Z DD imagerel $LN16
	DD	imagerel $LN16+87
	DD	imagerel $unwind$?setLowPassType@FDN@@QEAAXW4LPFilterType@@@Z
pdata	ENDS
;	COMDAT pdata
pdata	SEGMENT
$pdata$?setHighPassFrequency@FDN@@QEAAXM@Z DD imagerel $LN16
	DD	imagerel $LN16+94
	DD	imagerel $unwind$?setHighPassFrequency@FDN@@QEAAXM@Z
pdata	ENDS
;	COMDAT pdata
pdata	SEGMENT
$pdata$?setLowPassFrequency@FDN@@QEAAXM@Z DD imagerel $LN16
	DD	imagerel $LN16+91
	DD	imagerel $unwind$?setLowPassFrequency@FDN@@QEAAXM@Z
pdata	ENDS
;	COMDAT pdata
pdata	SEGMENT
$pdata$?setDampingType@FDN@@QEAAXW4LPFilterType@@@Z DD imagerel $LN20
	DD	imagerel $LN20+76
	DD	imagerel $unwind$?setDampingType@FDN@@QEAAXW4LPFilterType@@@Z
pdata	ENDS
;	COMDAT pdata
pdata	SEGMENT
$pdata$?setDampingFrequency@FDN@@QEAAXM@Z DD imagerel $LN20
	DD	imagerel $LN20+93
	DD	imagerel $unwind$?setDampingFrequency@FDN@@QEAAXM@Z
pdata	ENDS
;	COMDAT pdata
pdata	SEGMENT
$pdata$?setModMix@FDN@@QEAAXM@Z DD imagerel $LN4
	DD	imagerel $LN4+73
	DD	imagerel $unwind$?setModMix@FDN@@QEAAXM@Z
pdata	ENDS
;	COMDAT pdata
pdata	SEGMENT
$pdata$?setRoomSize@FDN@@QEAAXMW4DiffuserDelayLogic@@W4DelayDistribution@@1@Z DD imagerel $LN113
	DD	imagerel $LN113+745
	DD	imagerel $unwind$?setRoomSize@FDN@@QEAAXMW4DiffuserDelayLogic@@W4DelayDistribution@@1@Z
pdata	ENDS
;	COMDAT pdata
pdata	SEGMENT
$pdata$?setDecayInSeconds@FDN@@QEAAXM@Z DD imagerel $LN20
	DD	imagerel $LN20+187
	DD	imagerel $unwind$?setDecayInSeconds@FDN@@QEAAXM@Z
pdata	ENDS
;	COMDAT pdata
pdata	SEGMENT
$pdata$?initialize@FDN@@QEAAXMMHM@Z DD imagerel $LN436
	DD	imagerel $LN436+1904
	DD	imagerel $unwind$?initialize@FDN@@QEAAXMMHM@Z
pdata	ENDS
;	COMDAT pdata
pdata	SEGMENT
$pdata$??1FDN@@QEAA@XZ DD imagerel $LN368
	DD	imagerel $LN368+1471
	DD	imagerel $unwind$??1FDN@@QEAA@XZ
pdata	ENDS
;	COMDAT pdata
pdata	SEGMENT
$pdata$??0FDN@@QEAA@HHHHH@Z DD imagerel $LN61
	DD	imagerel $LN61+162
	DD	imagerel $unwind$??0FDN@@QEAA@HHHHH@Z
pdata	ENDS
;	COMDAT pdata
pdata	SEGMENT
$pdata$?processAudio@Modulation@@UEAAMM@Z DD imagerel $LN11
	DD	imagerel $LN11+112
	DD	imagerel $unwind$?processAudio@Modulation@@UEAAMM@Z
pdata	ENDS
;	COMDAT pdata
pdata	SEGMENT
$pdata$?setModType@Modulation@@QEAAXW4ModulationType@@@Z DD imagerel $LN29
	DD	imagerel $LN29+151
	DD	imagerel $unwind$?setModType@Modulation@@QEAAXW4ModulationType@@@Z
pdata	ENDS
;	COMDAT pdata
pdata	SEGMENT
$pdata$?init@Modulation@@QEAAXW4ModulationType@@H@Z DD imagerel $LN31
	DD	imagerel $LN31+164
	DD	imagerel $unwind$?init@Modulation@@QEAAXW4ModulationType@@H@Z
pdata	ENDS
;	COMDAT pdata
pdata	SEGMENT
$pdata$??1Modulation@@QEAA@XZ DD imagerel $LN13
	DD	imagerel $LN13+71
	DD	imagerel $unwind$??1Modulation@@QEAA@XZ
pdata	ENDS
;	COMDAT pdata
pdata	SEGMENT
$pdata$??0Modulation@@QEAA@XZ DD imagerel $LN6
	DD	imagerel $LN6+33
	DD	imagerel $unwind$??0Modulation@@QEAA@XZ
pdata	ENDS
;	COMDAT pdata
pdata	SEGMENT
$pdata$?processAudio@HighPassFilter@@QEAAMM@Z DD imagerel $LN6
	DD	imagerel $LN6+118
	DD	imagerel $unwind$?processAudio@HighPassFilter@@QEAAMM@Z
pdata	ENDS
;	COMDAT pdata
pdata	SEGMENT
$pdata$?updateGains@HighPassFilter@@QEAAXXZ DD imagerel $LN13
	DD	imagerel $LN13+828
	DD	imagerel $unwind$?updateGains@HighPassFilter@@QEAAXXZ
pdata	ENDS
;	COMDAT pdata
pdata	SEGMENT
$pdata$??0HighPassFilter@@QEAA@HMW4HPFilterType@@@Z DD imagerel $LN4
	DD	imagerel $LN4+63
	DD	imagerel $unwind$??0HighPassFilter@@QEAA@HMW4HPFilterType@@@Z
pdata	ENDS
;	COMDAT pdata
pdata	SEGMENT
$pdata$?setRandomInRangeDelayLines@ModMultiChannelFeedback@@AEAAXXZ DD imagerel $LN23
	DD	imagerel $LN23+227
	DD	imagerel $unwind$?setRandomInRangeDelayLines@ModMultiChannelFeedback@@AEAAXXZ
pdata	ENDS
;	COMDAT pdata
pdata	SEGMENT
$pdata$?setDelayExponential@ModMultiChannelFeedback@@AEAAXXZ DD imagerel $LN75
	DD	imagerel $LN75+316
	DD	imagerel $unwind$?setDelayExponential@ModMultiChannelFeedback@@AEAAXXZ
pdata	ENDS
;	COMDAT pdata
pdata	SEGMENT
$pdata$?allocateDelayLines@ModMultiChannelFeedback@@AEAAXXZ DD imagerel $LN22
	DD	imagerel $LN22+109
	DD	imagerel $unwind$?allocateDelayLines@ModMultiChannelFeedback@@AEAAXXZ
pdata	ENDS
;	COMDAT pdata
pdata	SEGMENT
$pdata$?dtor$0@?0??allocateDelayLines@ModMultiChannelFeedback@@AEAAXXZ@4HA DD imagerel ?dtor$0@?0??allocateDelayLines@ModMultiChannelFeedback@@AEAAXXZ@4HA
	DD	imagerel ?dtor$0@?0??allocateDelayLines@ModMultiChannelFeedback@@AEAAXXZ@4HA+29
	DD	imagerel $unwind$?dtor$0@?0??allocateDelayLines@ModMultiChannelFeedback@@AEAAXXZ@4HA
pdata	ENDS
;	COMDAT pdata
pdata	SEGMENT
$pdata$?deleteDelayLines@ModMultiChannelFeedback@@AEAAXXZ DD imagerel $LN32
	DD	imagerel $LN32+194
	DD	imagerel $unwind$?deleteDelayLines@ModMultiChannelFeedback@@AEAAXXZ
pdata	ENDS
;	COMDAT pdata
pdata	SEGMENT
$pdata$?constructMCF@ModMultiChannelFeedback@@AEAAXH@Z DD imagerel $LN33
	DD	imagerel $LN33+171
	DD	imagerel $unwind$?constructMCF@ModMultiChannelFeedback@@AEAAXH@Z
pdata	ENDS
;	COMDAT pdata
pdata	SEGMENT
$pdata$?dtor$1@?0??constructMCF@ModMultiChannelFeedback@@AEAAXH@Z@4HA DD imagerel ?dtor$1@?0??constructMCF@ModMultiChannelFeedback@@AEAAXH@Z@4HA
	DD	imagerel ?dtor$1@?0??constructMCF@ModMultiChannelFeedback@@AEAAXH@Z@4HA+29
	DD	imagerel $unwind$?dtor$1@?0??constructMCF@ModMultiChannelFeedback@@AEAAXH@Z@4HA
pdata	ENDS
;	COMDAT pdata
pdata	SEGMENT
$pdata$?processAudio@ModMultiChannelFeedback@@QEAAXPEAM0@Z DD imagerel $LN146
	DD	imagerel $LN146+715
	DD	imagerel $unwind$?processAudio@ModMultiChannelFeedback@@QEAAXPEAM0@Z
pdata	ENDS
;	COMDAT pdata
pdata	SEGMENT
$pdata$?setOscillatorType@ModMultiChannelFeedback@@QEAAXW4OscillatorType@@@Z DD imagerel $LN20
	DD	imagerel $LN20+91
	DD	imagerel $unwind$?setOscillatorType@ModMultiChannelFeedback@@QEAAXW4OscillatorType@@@Z
pdata	ENDS
;	COMDAT pdata
pdata	SEGMENT
$pdata$?setFilterType@ModMultiChannelFeedback@@QEAAXW4LPFilterType@@@Z DD imagerel $LN18
	DD	imagerel $LN18+75
	DD	imagerel $unwind$?setFilterType@ModMultiChannelFeedback@@QEAAXW4LPFilterType@@@Z
pdata	ENDS
;	COMDAT pdata
pdata	SEGMENT
$pdata$?setDampingFrequency@ModMultiChannelFeedback@@QEAAXM@Z DD imagerel $LN18
	DD	imagerel $LN18+92
	DD	imagerel $unwind$?setDampingFrequency@ModMultiChannelFeedback@@QEAAXM@Z
pdata	ENDS
;	COMDAT pdata
pdata	SEGMENT
$pdata$?setDelayLengths@ModMultiChannelFeedback@@QEAAXMMW4DelayDistribution@@@Z DD imagerel $LN9
	DD	imagerel $LN9+57
	DD	imagerel $unwind$?setDelayLengths@ModMultiChannelFeedback@@QEAAXMMW4DelayDistribution@@@Z
pdata	ENDS
;	COMDAT pdata
pdata	SEGMENT
$pdata$?setSampleRate@ModMultiChannelFeedback@@QEAAXH@Z DD imagerel $LN14
	DD	imagerel $LN14+80
	DD	imagerel $unwind$?setSampleRate@ModMultiChannelFeedback@@QEAAXH@Z
pdata	ENDS
;	COMDAT pdata
pdata	SEGMENT
$pdata$?init@ModMultiChannelFeedback@@QEAAXMH@Z DD imagerel $LN18
	DD	imagerel $LN18+120
	DD	imagerel $unwind$?init@ModMultiChannelFeedback@@QEAAXMH@Z
pdata	ENDS
;	COMDAT pdata
pdata	SEGMENT
$pdata$?setDecayInSeconds@ModMultiChannelFeedback@@QEAAXM@Z DD imagerel $LN18
	DD	imagerel $LN18+170
	DD	imagerel $unwind$?setDecayInSeconds@ModMultiChannelFeedback@@QEAAXM@Z
pdata	ENDS
;	COMDAT pdata
pdata	SEGMENT
$pdata$??1ModMultiChannelFeedback@@QEAA@XZ DD imagerel $LN31
	DD	imagerel $LN31+114
	DD	imagerel $unwind$??1ModMultiChannelFeedback@@QEAA@XZ
pdata	ENDS
;	COMDAT pdata
pdata	SEGMENT
$pdata$??0ModMultiChannelFeedback@@QEAA@H@Z DD imagerel $LN42
	DD	imagerel $LN42+188
	DD	imagerel $unwind$??0ModMultiChannelFeedback@@QEAA@H@Z
pdata	ENDS
;	COMDAT pdata
pdata	SEGMENT
$pdata$?dtor$2@?0???0ModMultiChannelFeedback@@QEAA@H@Z@4HA DD imagerel ?dtor$2@?0???0ModMultiChannelFeedback@@QEAA@H@Z@4HA
	DD	imagerel ?dtor$2@?0???0ModMultiChannelFeedback@@QEAA@H@Z@4HA+29
	DD	imagerel $unwind$?dtor$2@?0???0ModMultiChannelFeedback@@QEAA@H@Z@4HA
pdata	ENDS
;	COMDAT pdata
pdata	SEGMENT
$pdata$??_GModMultiChannelDelay@@QEAAPEAXI@Z DD imagerel $LN6
	DD	imagerel $LN6+36
	DD	imagerel $unwind$??_GModMultiChannelDelay@@QEAAPEAXI@Z
pdata	ENDS
;	COMDAT pdata
pdata	SEGMENT
$pdata$?constructBlocks@ModMultiChannelDiffuser@@AEAAXXZ DD imagerel $LN55
	DD	imagerel $LN55+244
	DD	imagerel $unwind$?constructBlocks@ModMultiChannelDiffuser@@AEAAXXZ
pdata	ENDS
;	COMDAT pdata
pdata	SEGMENT
$pdata$?dtor$0@?0??constructBlocks@ModMultiChannelDiffuser@@AEAAXXZ@4HA DD imagerel ?dtor$0@?0??constructBlocks@ModMultiChannelDiffuser@@AEAAXXZ@4HA
	DD	imagerel ?dtor$0@?0??constructBlocks@ModMultiChannelDiffuser@@AEAAXXZ@4HA+29
	DD	imagerel $unwind$?dtor$0@?0??constructBlocks@ModMultiChannelDiffuser@@AEAAXXZ@4HA
pdata	ENDS
;	COMDAT pdata
pdata	SEGMENT
$pdata$?dtor$4@?0??constructBlocks@ModMultiChannelDiffuser@@AEAAXXZ@4HA DD imagerel ?dtor$4@?0??constructBlocks@ModMultiChannelDiffuser@@AEAAXXZ@4HA
	DD	imagerel ?dtor$4@?0??constructBlocks@ModMultiChannelDiffuser@@AEAAXXZ@4HA+29
	DD	imagerel $unwind$?dtor$4@?0??constructBlocks@ModMultiChannelDiffuser@@AEAAXXZ@4HA
pdata	ENDS
;	COMDAT pdata
pdata	SEGMENT
$pdata$?dtor$1@?0??constructBlocks@ModMultiChannelDiffuser@@AEAAXXZ@4HA DD imagerel ?dtor$1@?0??constructBlocks@ModMultiChannelDiffuser@@AEAAXXZ@4HA
	DD	imagerel ?dtor$1@?0??constructBlocks@ModMultiChannelDiffuser@@AEAAXXZ@4HA+29
	DD	imagerel $unwind$?dtor$1@?0??constructBlocks@ModMultiChannelDiffuser@@AEAAXXZ@4HA
pdata	ENDS
;	COMDAT pdata
pdata	SEGMENT
$pdata$?dtor$2@?0??constructBlocks@ModMultiChannelDiffuser@@AEAAXXZ@4HA DD imagerel ?dtor$2@?0??constructBlocks@ModMultiChannelDiffuser@@AEAAXXZ@4HA
	DD	imagerel ?dtor$2@?0??constructBlocks@ModMultiChannelDiffuser@@AEAAXXZ@4HA+29
	DD	imagerel $unwind$?dtor$2@?0??constructBlocks@ModMultiChannelDiffuser@@AEAAXXZ@4HA
pdata	ENDS
;	COMDAT pdata
pdata	SEGMENT
$pdata$?deleteBlocks@ModMultiChannelDiffuser@@AEAAXXZ DD imagerel $LN32
	DD	imagerel $LN32+180
	DD	imagerel $unwind$?deleteBlocks@ModMultiChannelDiffuser@@AEAAXXZ
pdata	ENDS
;	COMDAT pdata
pdata	SEGMENT
$pdata$?deleteInternalArrays@ModMultiChannelDiffuser@@AEAAXXZ DD imagerel $LN8
	DD	imagerel $LN8+55
	DD	imagerel $unwind$?deleteInternalArrays@ModMultiChannelDiffuser@@AEAAXXZ
pdata	ENDS
;	COMDAT pdata
pdata	SEGMENT
$pdata$?initInternalArrays@ModMultiChannelDiffuser@@AEAAXXZ DD imagerel $LN4
	DD	imagerel $LN4+88
	DD	imagerel $unwind$?initInternalArrays@ModMultiChannelDiffuser@@AEAAXXZ
pdata	ENDS
;	COMDAT pdata
pdata	SEGMENT
$pdata$?constructMCDF@ModMultiChannelDiffuser@@AEAAXH@Z DD imagerel $LN61
	DD	imagerel $LN61+317
	DD	imagerel $unwind$?constructMCDF@ModMultiChannelDiffuser@@AEAAXH@Z
pdata	ENDS
;	COMDAT pdata
pdata	SEGMENT
$pdata$?dtor$0@?0??constructMCDF@ModMultiChannelDiffuser@@AEAAXH@Z@4HA DD imagerel ?dtor$0@?0??constructMCDF@ModMultiChannelDiffuser@@AEAAXH@Z@4HA
	DD	imagerel ?dtor$0@?0??constructMCDF@ModMultiChannelDiffuser@@AEAAXH@Z@4HA+29
	DD	imagerel $unwind$?dtor$0@?0??constructMCDF@ModMultiChannelDiffuser@@AEAAXH@Z@4HA
pdata	ENDS
;	COMDAT pdata
pdata	SEGMENT
$pdata$?dtor$4@?0??constructMCDF@ModMultiChannelDiffuser@@AEAAXH@Z@4HA DD imagerel ?dtor$4@?0??constructMCDF@ModMultiChannelDiffuser@@AEAAXH@Z@4HA
	DD	imagerel ?dtor$4@?0??constructMCDF@ModMultiChannelDiffuser@@AEAAXH@Z@4HA+29
	DD	imagerel $unwind$?dtor$4@?0??constructMCDF@ModMultiChannelDiffuser@@AEAAXH@Z@4HA
pdata	ENDS
;	COMDAT pdata
pdata	SEGMENT
$pdata$?dtor$1@?0??constructMCDF@ModMultiChannelDiffuser@@AEAAXH@Z@4HA DD imagerel ?dtor$1@?0??constructMCDF@ModMultiChannelDiffuser@@AEAAXH@Z@4HA
	DD	imagerel ?dtor$1@?0??constructMCDF@ModMultiChannelDiffuser@@AEAAXH@Z@4HA+29
	DD	imagerel $unwind$?dtor$1@?0??constructMCDF@ModMultiChannelDiffuser@@AEAAXH@Z@4HA
pdata	ENDS
;	COMDAT pdata
pdata	SEGMENT
$pdata$?dtor$2@?0??constructMCDF@ModMultiChannelDiffuser@@AEAAXH@Z@4HA DD imagerel ?dtor$2@?0??constructMCDF@ModMultiChannelDiffuser@@AEAAXH@Z@4HA
	DD	imagerel ?dtor$2@?0??constructMCDF@ModMultiChannelDiffuser@@AEAAXH@Z@4HA+29
	DD	imagerel $unwind$?dtor$2@?0??constructMCDF@ModMultiChannelDiffuser@@AEAAXH@Z@4HA
pdata	ENDS
;	COMDAT pdata
pdata	SEGMENT
$pdata$?processAudio@ModMultiChannelDiffuser@@QEAAXPEAM0@Z DD imagerel $LN27
	DD	imagerel $LN27+193
	DD	imagerel $unwind$?processAudio@ModMultiChannelDiffuser@@QEAAXPEAM0@Z
pdata	ENDS
;	COMDAT pdata
pdata	SEGMENT
$pdata$?setSampleRate@ModMultiChannelDiffuser@@QEAAXH@Z DD imagerel $LN16
	DD	imagerel $LN16+90
	DD	imagerel $unwind$?setSampleRate@ModMultiChannelDiffuser@@QEAAXH@Z
pdata	ENDS
;	COMDAT pdata
pdata	SEGMENT
$pdata$?setOscillatorType@ModMultiChannelDiffuser@@QEAAXW4OscillatorType@@@Z DD imagerel $LN22
	DD	imagerel $LN22+92
	DD	imagerel $unwind$?setOscillatorType@ModMultiChannelDiffuser@@QEAAXW4OscillatorType@@@Z
pdata	ENDS
;	COMDAT pdata
pdata	SEGMENT
$pdata$?setMakeUpGainDB@ModMultiChannelDiffuser@@QEAAXM@Z DD imagerel $LN18
	DD	imagerel $LN18+73
	DD	imagerel $unwind$?setMakeUpGainDB@ModMultiChannelDiffuser@@QEAAXM@Z
pdata	ENDS
;	COMDAT pdata
pdata	SEGMENT
$pdata$?init@ModMultiChannelDiffuser@@QEAAXMH@Z DD imagerel $LN34
	DD	imagerel $LN34+163
	DD	imagerel $unwind$?init@ModMultiChannelDiffuser@@QEAAXMH@Z
pdata	ENDS
;	COMDAT pdata
pdata	SEGMENT
$pdata$??1ModMultiChannelDiffuser@@QEAA@XZ DD imagerel $LN40
	DD	imagerel $LN40+220
	DD	imagerel $unwind$??1ModMultiChannelDiffuser@@QEAA@XZ
pdata	ENDS
;	COMDAT pdata
pdata	SEGMENT
$pdata$??0ModMultiChannelDiffuser@@QEAA@H@Z DD imagerel $LN63
	DD	imagerel $LN63+320
	DD	imagerel $unwind$??0ModMultiChannelDiffuser@@QEAA@H@Z
pdata	ENDS
;	COMDAT pdata
pdata	SEGMENT
$pdata$?dtor$0@?0???0ModMultiChannelDiffuser@@QEAA@H@Z@4HA DD imagerel ?dtor$0@?0???0ModMultiChannelDiffuser@@QEAA@H@Z@4HA
	DD	imagerel ?dtor$0@?0???0ModMultiChannelDiffuser@@QEAA@H@Z@4HA+29
	DD	imagerel $unwind$?dtor$0@?0???0ModMultiChannelDiffuser@@QEAA@H@Z@4HA
pdata	ENDS
;	COMDAT pdata
pdata	SEGMENT
$pdata$?dtor$4@?0???0ModMultiChannelDiffuser@@QEAA@H@Z@4HA DD imagerel ?dtor$4@?0???0ModMultiChannelDiffuser@@QEAA@H@Z@4HA
	DD	imagerel ?dtor$4@?0???0ModMultiChannelDiffuser@@QEAA@H@Z@4HA+29
	DD	imagerel $unwind$?dtor$4@?0???0ModMultiChannelDiffuser@@QEAA@H@Z@4HA
pdata	ENDS
;	COMDAT pdata
pdata	SEGMENT
$pdata$?dtor$1@?0???0ModMultiChannelDiffuser@@QEAA@H@Z@4HA DD imagerel ?dtor$1@?0???0ModMultiChannelDiffuser@@QEAA@H@Z@4HA
	DD	imagerel ?dtor$1@?0???0ModMultiChannelDiffuser@@QEAA@H@Z@4HA+29
	DD	imagerel $unwind$?dtor$1@?0???0ModMultiChannelDiffuser@@QEAA@H@Z@4HA
pdata	ENDS
;	COMDAT pdata
pdata	SEGMENT
$pdata$?dtor$2@?0???0ModMultiChannelDiffuser@@QEAA@H@Z@4HA DD imagerel ?dtor$2@?0???0ModMultiChannelDiffuser@@QEAA@H@Z@4HA
	DD	imagerel ?dtor$2@?0???0ModMultiChannelDiffuser@@QEAA@H@Z@4HA+29
	DD	imagerel $unwind$?dtor$2@?0???0ModMultiChannelDiffuser@@QEAA@H@Z@4HA
pdata	ENDS
;	COMDAT pdata
pdata	SEGMENT
$pdata$??_GModDelay@@QEAAPEAXI@Z DD imagerel $LN14
	DD	imagerel $LN14+88
	DD	imagerel $unwind$??_GModDelay@@QEAAPEAXI@Z
pdata	ENDS
;	COMDAT pdata
pdata	SEGMENT
$pdata$?constructMCDL@ModMultiChannelDelay@@AEAAXH@Z DD imagerel $LN35
	DD	imagerel $LN35+152
	DD	imagerel $unwind$?constructMCDL@ModMultiChannelDelay@@AEAAXH@Z
pdata	ENDS
;	COMDAT pdata
pdata	SEGMENT
$pdata$?dtor$0@?0??constructMCDL@ModMultiChannelDelay@@AEAAXH@Z@4HA DD imagerel ?dtor$0@?0??constructMCDL@ModMultiChannelDelay@@AEAAXH@Z@4HA
	DD	imagerel ?dtor$0@?0??constructMCDL@ModMultiChannelDelay@@AEAAXH@Z@4HA+29
	DD	imagerel $unwind$?dtor$0@?0??constructMCDL@ModMultiChannelDelay@@AEAAXH@Z@4HA
pdata	ENDS
;	COMDAT pdata
pdata	SEGMENT
$pdata$?constructDelayObjects@ModMultiChannelDelay@@AEAAXXZ DD imagerel $LN22
	DD	imagerel $LN22+109
	DD	imagerel $unwind$?constructDelayObjects@ModMultiChannelDelay@@AEAAXXZ
pdata	ENDS
;	COMDAT pdata
pdata	SEGMENT
$pdata$?dtor$0@?0??constructDelayObjects@ModMultiChannelDelay@@AEAAXXZ@4HA DD imagerel ?dtor$0@?0??constructDelayObjects@ModMultiChannelDelay@@AEAAXXZ@4HA
	DD	imagerel ?dtor$0@?0??constructDelayObjects@ModMultiChannelDelay@@AEAAXXZ@4HA+29
	DD	imagerel $unwind$?dtor$0@?0??constructDelayObjects@ModMultiChannelDelay@@AEAAXXZ@4HA
pdata	ENDS
;	COMDAT pdata
pdata	SEGMENT
$pdata$?deleteDelayLines@ModMultiChannelDelay@@AEAAXXZ DD imagerel $LN32
	DD	imagerel $LN32+188
	DD	imagerel $unwind$?deleteDelayLines@ModMultiChannelDelay@@AEAAXXZ
pdata	ENDS
;	COMDAT pdata
pdata	SEGMENT
$pdata$?setExponentialDelayLengths@ModMultiChannelDelay@@AEAAXXZ DD imagerel $LN75
	DD	imagerel $LN75+319
	DD	imagerel $unwind$?setExponentialDelayLengths@ModMultiChannelDelay@@AEAAXXZ
pdata	ENDS
;	COMDAT pdata
pdata	SEGMENT
$pdata$?setRandomInRangeDelayLines@ModMultiChannelDelay@@AEAAXXZ DD imagerel $LN23
	DD	imagerel $LN23+248
	DD	imagerel $unwind$?setRandomInRangeDelayLines@ModMultiChannelDelay@@AEAAXXZ
pdata	ENDS
;	COMDAT pdata
pdata	SEGMENT
$pdata$?setEqualDelayLines@ModMultiChannelDelay@@AEAAXXZ DD imagerel $LN21
	DD	imagerel $LN21+101
	DD	imagerel $unwind$?setEqualDelayLines@ModMultiChannelDelay@@AEAAXXZ
pdata	ENDS
;	COMDAT pdata
pdata	SEGMENT
$pdata$?processAudio@ModMultiChannelDelay@@QEAAXPEAM0@Z DD imagerel $LN14
	DD	imagerel $LN14+111
	DD	imagerel $unwind$?processAudio@ModMultiChannelDelay@@QEAAXPEAM0@Z
pdata	ENDS
;	COMDAT pdata
pdata	SEGMENT
$pdata$?setSampleRate@ModMultiChannelDelay@@QEAAXH@Z DD imagerel $LN14
	DD	imagerel $LN14+83
	DD	imagerel $unwind$?setSampleRate@ModMultiChannelDelay@@QEAAXH@Z
pdata	ENDS
;	COMDAT pdata
pdata	SEGMENT
$pdata$?setOscillatorType@ModMultiChannelDelay@@QEAAXW4OscillatorType@@@Z DD imagerel $LN20
	DD	imagerel $LN20+91
	DD	imagerel $unwind$?setOscillatorType@ModMultiChannelDelay@@QEAAXW4OscillatorType@@@Z
pdata	ENDS
;	COMDAT pdata
pdata	SEGMENT
$pdata$?setMakeUpGaindB@ModMultiChannelDelay@@QEAAXM@Z DD imagerel $LN16
	DD	imagerel $LN16+72
	DD	imagerel $unwind$?setMakeUpGaindB@ModMultiChannelDelay@@QEAAXM@Z
pdata	ENDS
;	COMDAT pdata
pdata	SEGMENT
$pdata$?setDelayLinesLength@ModMultiChannelDelay@@QEAAXMMW4DelayDistribution@@@Z DD imagerel $LN121
	DD	imagerel $LN121+659
	DD	imagerel $unwind$?setDelayLinesLength@ModMultiChannelDelay@@QEAAXMMW4DelayDistribution@@@Z
pdata	ENDS
;	COMDAT pdata
pdata	SEGMENT
$pdata$?initDelayLines@ModMultiChannelDelay@@QEAAXMH@Z DD imagerel $LN17
	DD	imagerel $LN17+103
	DD	imagerel $unwind$?initDelayLines@ModMultiChannelDelay@@QEAAXMH@Z
pdata	ENDS
;	COMDAT pdata
pdata	SEGMENT
$pdata$??1ModMultiChannelDelay@@QEAA@XZ DD imagerel $LN60
	DD	imagerel $LN60+280
	DD	imagerel $unwind$??1ModMultiChannelDelay@@QEAA@XZ
pdata	ENDS
;	COMDAT pdata
pdata	SEGMENT
$pdata$??0ModMultiChannelDelay@@QEAA@H@Z DD imagerel $LN44
	DD	imagerel $LN44+168
	DD	imagerel $unwind$??0ModMultiChannelDelay@@QEAA@H@Z
pdata	ENDS
;	COMDAT pdata
pdata	SEGMENT
$pdata$?dtor$1@?0???0ModMultiChannelDelay@@QEAA@H@Z@4HA DD imagerel ?dtor$1@?0???0ModMultiChannelDelay@@QEAA@H@Z@4HA
	DD	imagerel ?dtor$1@?0???0ModMultiChannelDelay@@QEAA@H@Z@4HA+29
	DD	imagerel $unwind$?dtor$1@?0???0ModMultiChannelDelay@@QEAA@H@Z@4HA
pdata	ENDS
;	COMDAT pdata
pdata	SEGMENT
$pdata$??_GFlipPolarity@@QEAAPEAXI@Z DD imagerel $LN6
	DD	imagerel $LN6+36
	DD	imagerel $unwind$??_GFlipPolarity@@QEAAPEAXI@Z
pdata	ENDS
;	COMDAT pdata
pdata	SEGMENT
$pdata$??_GHadamard@@QEAAPEAXI@Z DD imagerel $LN18
	DD	imagerel $LN18+104
	DD	imagerel $unwind$??_GHadamard@@QEAAPEAXI@Z
pdata	ENDS
;	COMDAT pdata
pdata	SEGMENT
$pdata$??_GMultiChannelDelay@@QEAAPEAXI@Z DD imagerel $LN6
	DD	imagerel $LN6+36
	DD	imagerel $unwind$??_GMultiChannelDelay@@QEAAPEAXI@Z
pdata	ENDS
;	COMDAT pdata
pdata	SEGMENT
$pdata$?constructBlocks@MultiChannelDiffuser@@AEAAXXZ DD imagerel $LN14
	DD	imagerel $LN14+105
	DD	imagerel $unwind$?constructBlocks@MultiChannelDiffuser@@AEAAXXZ
pdata	ENDS
;	COMDAT pdata
pdata	SEGMENT
$pdata$?dtor$0@?0??constructBlocks@MultiChannelDiffuser@@AEAAXXZ@4HA DD imagerel ?dtor$0@?0??constructBlocks@MultiChannelDiffuser@@AEAAXXZ@4HA
	DD	imagerel ?dtor$0@?0??constructBlocks@MultiChannelDiffuser@@AEAAXXZ@4HA+29
	DD	imagerel $unwind$?dtor$0@?0??constructBlocks@MultiChannelDiffuser@@AEAAXXZ@4HA
pdata	ENDS
;	COMDAT pdata
pdata	SEGMENT
$pdata$?dtor$1@?0??constructBlocks@MultiChannelDiffuser@@AEAAXXZ@4HA DD imagerel ?dtor$1@?0??constructBlocks@MultiChannelDiffuser@@AEAAXXZ@4HA
	DD	imagerel ?dtor$1@?0??constructBlocks@MultiChannelDiffuser@@AEAAXXZ@4HA+29
	DD	imagerel $unwind$?dtor$1@?0??constructBlocks@MultiChannelDiffuser@@AEAAXXZ@4HA
pdata	ENDS
;	COMDAT pdata
pdata	SEGMENT
$pdata$?dtor$2@?0??constructBlocks@MultiChannelDiffuser@@AEAAXXZ@4HA DD imagerel ?dtor$2@?0??constructBlocks@MultiChannelDiffuser@@AEAAXXZ@4HA
	DD	imagerel ?dtor$2@?0??constructBlocks@MultiChannelDiffuser@@AEAAXXZ@4HA+29
	DD	imagerel $unwind$?dtor$2@?0??constructBlocks@MultiChannelDiffuser@@AEAAXXZ@4HA
pdata	ENDS
;	COMDAT pdata
pdata	SEGMENT
$pdata$?deleteBlocks@MultiChannelDiffuser@@AEAAXXZ DD imagerel $LN32
	DD	imagerel $LN32+180
	DD	imagerel $unwind$?deleteBlocks@MultiChannelDiffuser@@AEAAXXZ
pdata	ENDS
;	COMDAT pdata
pdata	SEGMENT
$pdata$?deleteInternalArrays@MultiChannelDiffuser@@AEAAXXZ DD imagerel $LN8
	DD	imagerel $LN8+55
	DD	imagerel $unwind$?deleteInternalArrays@MultiChannelDiffuser@@AEAAXXZ
pdata	ENDS
;	COMDAT pdata
pdata	SEGMENT
$pdata$?initInternalArrays@MultiChannelDiffuser@@AEAAXXZ DD imagerel $LN4
	DD	imagerel $LN4+88
	DD	imagerel $unwind$?initInternalArrays@MultiChannelDiffuser@@AEAAXXZ
pdata	ENDS
;	COMDAT pdata
pdata	SEGMENT
$pdata$?constructMCDF@MultiChannelDiffuser@@AEAAXH@Z DD imagerel $LN20
	DD	imagerel $LN20+190
	DD	imagerel $unwind$?constructMCDF@MultiChannelDiffuser@@AEAAXH@Z
pdata	ENDS
;	COMDAT pdata
pdata	SEGMENT
$pdata$?dtor$0@?0??constructMCDF@MultiChannelDiffuser@@AEAAXH@Z@4HA DD imagerel ?dtor$0@?0??constructMCDF@MultiChannelDiffuser@@AEAAXH@Z@4HA
	DD	imagerel ?dtor$0@?0??constructMCDF@MultiChannelDiffuser@@AEAAXH@Z@4HA+29
	DD	imagerel $unwind$?dtor$0@?0??constructMCDF@MultiChannelDiffuser@@AEAAXH@Z@4HA
pdata	ENDS
;	COMDAT pdata
pdata	SEGMENT
$pdata$?dtor$1@?0??constructMCDF@MultiChannelDiffuser@@AEAAXH@Z@4HA DD imagerel ?dtor$1@?0??constructMCDF@MultiChannelDiffuser@@AEAAXH@Z@4HA
	DD	imagerel ?dtor$1@?0??constructMCDF@MultiChannelDiffuser@@AEAAXH@Z@4HA+29
	DD	imagerel $unwind$?dtor$1@?0??constructMCDF@MultiChannelDiffuser@@AEAAXH@Z@4HA
pdata	ENDS
;	COMDAT pdata
pdata	SEGMENT
$pdata$?dtor$2@?0??constructMCDF@MultiChannelDiffuser@@AEAAXH@Z@4HA DD imagerel ?dtor$2@?0??constructMCDF@MultiChannelDiffuser@@AEAAXH@Z@4HA
	DD	imagerel ?dtor$2@?0??constructMCDF@MultiChannelDiffuser@@AEAAXH@Z@4HA+29
	DD	imagerel $unwind$?dtor$2@?0??constructMCDF@MultiChannelDiffuser@@AEAAXH@Z@4HA
pdata	ENDS
;	COMDAT pdata
pdata	SEGMENT
$pdata$?processAudio@MultiChannelDiffuser@@QEAAXPEAM0@Z DD imagerel $LN27
	DD	imagerel $LN27+193
	DD	imagerel $unwind$?processAudio@MultiChannelDiffuser@@QEAAXPEAM0@Z
pdata	ENDS
;	COMDAT pdata
pdata	SEGMENT
$pdata$?setSampleRate@MultiChannelDiffuser@@QEAAXH@Z DD imagerel $LN16
	DD	imagerel $LN16+90
	DD	imagerel $unwind$?setSampleRate@MultiChannelDiffuser@@QEAAXH@Z
pdata	ENDS
;	COMDAT pdata
pdata	SEGMENT
$pdata$?init@MultiChannelDiffuser@@QEAAXMH@Z DD imagerel $LN19
	DD	imagerel $LN19+111
	DD	imagerel $unwind$?init@MultiChannelDiffuser@@QEAAXMH@Z
pdata	ENDS
;	COMDAT pdata
pdata	SEGMENT
$pdata$??1MultiChannelDiffuser@@QEAA@XZ DD imagerel $LN40
	DD	imagerel $LN40+220
	DD	imagerel $unwind$??1MultiChannelDiffuser@@QEAA@XZ
pdata	ENDS
;	COMDAT pdata
pdata	SEGMENT
$pdata$??0MultiChannelDiffuser@@QEAA@H@Z DD imagerel $LN22
	DD	imagerel $LN22+193
	DD	imagerel $unwind$??0MultiChannelDiffuser@@QEAA@H@Z
pdata	ENDS
;	COMDAT pdata
pdata	SEGMENT
$pdata$?dtor$0@?0???0MultiChannelDiffuser@@QEAA@H@Z@4HA DD imagerel ?dtor$0@?0???0MultiChannelDiffuser@@QEAA@H@Z@4HA
	DD	imagerel ?dtor$0@?0???0MultiChannelDiffuser@@QEAA@H@Z@4HA+29
	DD	imagerel $unwind$?dtor$0@?0???0MultiChannelDiffuser@@QEAA@H@Z@4HA
pdata	ENDS
;	COMDAT pdata
pdata	SEGMENT
$pdata$?dtor$1@?0???0MultiChannelDiffuser@@QEAA@H@Z@4HA DD imagerel ?dtor$1@?0???0MultiChannelDiffuser@@QEAA@H@Z@4HA
	DD	imagerel ?dtor$1@?0???0MultiChannelDiffuser@@QEAA@H@Z@4HA+29
	DD	imagerel $unwind$?dtor$1@?0???0MultiChannelDiffuser@@QEAA@H@Z@4HA
pdata	ENDS
;	COMDAT pdata
pdata	SEGMENT
$pdata$?dtor$2@?0???0MultiChannelDiffuser@@QEAA@H@Z@4HA DD imagerel ?dtor$2@?0???0MultiChannelDiffuser@@QEAA@H@Z@4HA
	DD	imagerel ?dtor$2@?0???0MultiChannelDiffuser@@QEAA@H@Z@4HA+29
	DD	imagerel $unwind$?dtor$2@?0???0MultiChannelDiffuser@@QEAA@H@Z@4HA
pdata	ENDS
;	COMDAT pdata
pdata	SEGMENT
$pdata$?setNumberOfChannels@FlipPolarity@@QEAAXH@Z DD imagerel $LN35
	DD	imagerel $LN35+137
	DD	imagerel $unwind$?setNumberOfChannels@FlipPolarity@@QEAAXH@Z
pdata	ENDS
;	COMDAT pdata
pdata	SEGMENT
$pdata$??1FlipPolarity@@QEAA@XZ DD imagerel $LN36
	DD	imagerel $LN36+103
	DD	imagerel $unwind$??1FlipPolarity@@QEAA@XZ
pdata	ENDS
;	COMDAT pdata
pdata	SEGMENT
$pdata$??0FlipPolarity@@QEAA@H@Z DD imagerel $LN44
	DD	imagerel $LN44+158
	DD	imagerel $unwind$??0FlipPolarity@@QEAA@H@Z
pdata	ENDS
;	COMDAT pdata
pdata	SEGMENT
$pdata$?processAudio@Hadamard@@QEAAXPEAM0@Z DD imagerel $LN22
	DD	imagerel $LN22+141
	DD	imagerel $unwind$?processAudio@Hadamard@@QEAAXPEAM0@Z
pdata	ENDS
;	COMDAT pdata
pdata	SEGMENT
$pdata$?hadamardScaled@Hadamard@@QEAAXPEAMH@Z DD imagerel $LN13
	DD	imagerel $LN13+95
	DD	imagerel $unwind$?hadamardScaled@Hadamard@@QEAAXPEAMH@Z
pdata	ENDS
;	COMDAT pdata
pdata	SEGMENT
$pdata$?hadamardUnscaled@Hadamard@@QEAAXPEAMH@Z DD imagerel $LN15
	DD	imagerel $LN15+149
	DD	imagerel $unwind$?hadamardUnscaled@Hadamard@@QEAAXPEAMH@Z
pdata	ENDS
;	COMDAT pdata
pdata	SEGMENT
$pdata$?setNumberOfChannels@Hadamard@@QEAAXH@Z DD imagerel $LN42
	DD	imagerel $LN42+376
	DD	imagerel $unwind$?setNumberOfChannels@Hadamard@@QEAAXH@Z
pdata	ENDS
;	COMDAT pdata
pdata	SEGMENT
$pdata$?deleteMatrix@Hadamard@@QEAAXXZ DD imagerel $LN12
	DD	imagerel $LN12+88
	DD	imagerel $unwind$?deleteMatrix@Hadamard@@QEAAXXZ
pdata	ENDS
;	COMDAT pdata
pdata	SEGMENT
$pdata$??1Hadamard@@QEAA@XZ DD imagerel $LN15
	DD	imagerel $LN15+88
	DD	imagerel $unwind$??1Hadamard@@QEAA@XZ
pdata	ENDS
;	COMDAT pdata
pdata	SEGMENT
$pdata$??0Hadamard@@QEAA@H@Z DD imagerel $LN44
	DD	imagerel $LN44+328
	DD	imagerel $unwind$??0Hadamard@@QEAA@H@Z
pdata	ENDS
;	COMDAT pdata
pdata	SEGMENT
$pdata$??_GDelay@@QEAAPEAXI@Z DD imagerel $LN6
	DD	imagerel $LN6+36
	DD	imagerel $unwind$??_GDelay@@QEAAPEAXI@Z
pdata	ENDS
;	COMDAT pdata
pdata	SEGMENT
$pdata$?constructMCDL@MultiChannelDelay@@AEAAXH@Z DD imagerel $LN32
	DD	imagerel $LN32+169
	DD	imagerel $unwind$?constructMCDL@MultiChannelDelay@@AEAAXH@Z
pdata	ENDS
;	COMDAT pdata
pdata	SEGMENT
$pdata$?constructDelayObjects@MultiChannelDelay@@AEAAXXZ DD imagerel $LN30
	DD	imagerel $LN30+167
	DD	imagerel $unwind$?constructDelayObjects@MultiChannelDelay@@AEAAXXZ
pdata	ENDS
;	COMDAT pdata
pdata	SEGMENT
$pdata$?deleteDelayLines@MultiChannelDelay@@AEAAXXZ DD imagerel $LN24
	DD	imagerel $LN24+136
	DD	imagerel $unwind$?deleteDelayLines@MultiChannelDelay@@AEAAXXZ
pdata	ENDS
;	COMDAT pdata
pdata	SEGMENT
$pdata$?setExponentialDelayLengths@MultiChannelDelay@@AEAAXXZ DD imagerel $LN73
	DD	imagerel $LN73+314
	DD	imagerel $unwind$?setExponentialDelayLengths@MultiChannelDelay@@AEAAXXZ
pdata	ENDS
;	COMDAT pdata
pdata	SEGMENT
$pdata$?setRandomInRangeDelayLines@MultiChannelDelay@@AEAAXXZ DD imagerel $LN21
	DD	imagerel $LN21+243
	DD	imagerel $unwind$?setRandomInRangeDelayLines@MultiChannelDelay@@AEAAXXZ
pdata	ENDS
;	COMDAT pdata
pdata	SEGMENT
$pdata$?setEqualDelayLines@MultiChannelDelay@@AEAAXXZ DD imagerel $LN19
	DD	imagerel $LN19+96
	DD	imagerel $unwind$?setEqualDelayLines@MultiChannelDelay@@AEAAXXZ
pdata	ENDS
;	COMDAT pdata
pdata	SEGMENT
$pdata$?processAudio@MultiChannelDelay@@QEAAXPEAM0@Z DD imagerel $LN14
	DD	imagerel $LN14+111
	DD	imagerel $unwind$?processAudio@MultiChannelDelay@@QEAAXPEAM0@Z
pdata	ENDS
;	COMDAT pdata
pdata	SEGMENT
$pdata$?setSampleRate@MultiChannelDelay@@QEAAXH@Z DD imagerel $LN14
	DD	imagerel $LN14+83
	DD	imagerel $unwind$?setSampleRate@MultiChannelDelay@@QEAAXH@Z
pdata	ENDS
;	COMDAT pdata
pdata	SEGMENT
$pdata$?setDelayLinesLength@MultiChannelDelay@@QEAAXMMW4DelayDistribution@@@Z DD imagerel $LN116
	DD	imagerel $LN116+690
	DD	imagerel $unwind$?setDelayLinesLength@MultiChannelDelay@@QEAAXMMW4DelayDistribution@@@Z
pdata	ENDS
;	COMDAT pdata
pdata	SEGMENT
$pdata$?initDelayLines@MultiChannelDelay@@QEAAXMH@Z DD imagerel $LN17
	DD	imagerel $LN17+110
	DD	imagerel $unwind$?initDelayLines@MultiChannelDelay@@QEAAXMH@Z
pdata	ENDS
;	COMDAT pdata
pdata	SEGMENT
$pdata$??1MultiChannelDelay@@QEAA@XZ DD imagerel $LN52
	DD	imagerel $LN52+224
	DD	imagerel $unwind$??1MultiChannelDelay@@QEAA@XZ
pdata	ENDS
;	COMDAT pdata
pdata	SEGMENT
$pdata$??0MultiChannelDelay@@QEAA@H@Z DD imagerel $LN41
	DD	imagerel $LN41+173
	DD	imagerel $unwind$??0MultiChannelDelay@@QEAA@H@Z
pdata	ENDS
;	COMDAT pdata
pdata	SEGMENT
$pdata$??_GLFO@@QEAAPEAXI@Z DD imagerel $LN6
	DD	imagerel $LN6+36
	DD	imagerel $unwind$??_GLFO@@QEAAPEAXI@Z
pdata	ENDS
;	COMDAT pdata
pdata	SEGMENT
$pdata$?processAudio@ModDelay@@UEAAMM@Z DD imagerel $LN9
	DD	imagerel $LN9+91
	DD	imagerel $unwind$?processAudio@ModDelay@@UEAAMM@Z
pdata	ENDS
;	COMDAT pdata
pdata	SEGMENT
$pdata$?init@ModDelay@@QEAAXMHW4OscillatorType@@@Z DD imagerel $LN19
	DD	imagerel $LN19+145
	DD	imagerel $unwind$?init@ModDelay@@QEAAXMHW4OscillatorType@@@Z
pdata	ENDS
;	COMDAT pdata
pdata	SEGMENT
$pdata$??1ModDelay@@QEAA@XZ DD imagerel $LN10
	DD	imagerel $LN10+71
	DD	imagerel $unwind$??1ModDelay@@QEAA@XZ
pdata	ENDS
;	COMDAT pdata
pdata	SEGMENT
$pdata$??0ModDelay@@QEAA@XZ DD imagerel $LN36
	DD	imagerel $LN36+288
	DD	imagerel $unwind$??0ModDelay@@QEAA@XZ
pdata	ENDS
;	COMDAT pdata
pdata	SEGMENT
$pdata$?dtor$1@?0???0ModDelay@@QEAA@XZ@4HA DD imagerel ?dtor$1@?0???0ModDelay@@QEAA@XZ@4HA
	DD	imagerel ?dtor$1@?0???0ModDelay@@QEAA@XZ@4HA+29
	DD	imagerel $unwind$?dtor$1@?0???0ModDelay@@QEAA@XZ@4HA
pdata	ENDS
;	COMDAT pdata
pdata	SEGMENT
$pdata$?createTable@LFO@@AEAAXXZ DD imagerel $LN68
	DD	imagerel $LN68+433
	DD	imagerel $unwind$?createTable@LFO@@AEAAXXZ
pdata	ENDS
;	COMDAT pdata
pdata	SEGMENT
$pdata$??1LFO@@QEAA@XZ DD imagerel $LN33
	DD	imagerel $LN33+99
	DD	imagerel $unwind$??1LFO@@QEAA@XZ
pdata	ENDS
;	COMDAT pdata
pdata	SEGMENT
$pdata$??0LFO@@QEAA@W4OscillatorType@@@Z DD imagerel $LN12
	DD	imagerel $LN12+72
	DD	imagerel $unwind$??0LFO@@QEAA@W4OscillatorType@@@Z
pdata	ENDS
;	COMDAT pdata
pdata	SEGMENT
$pdata$?randomInRange@@YAMMM@Z DD imagerel $LN4
	DD	imagerel $LN4+68
	DD	imagerel $unwind$?randomInRange@@YAMMM@Z
pdata	ENDS
;	COMDAT pdata
pdata	SEGMENT
$pdata$?exponentialVector@@YA?AV?$vector@MV?$allocator@M@std@@@std@@MMH@Z DD imagerel $LN16
	DD	imagerel $LN16+242
	DD	imagerel $unwind$?exponentialVector@@YA?AV?$vector@MV?$allocator@M@std@@@std@@MMH@Z
pdata	ENDS
;	COMDAT pdata
pdata	SEGMENT
$pdata$??__EMIN_LPF_FREQUENCY_LOG@@YAXXZ DD imagerel ??__EMIN_LPF_FREQUENCY_LOG@@YAXXZ
	DD	imagerel ??__EMIN_LPF_FREQUENCY_LOG@@YAXXZ+38
	DD	imagerel $unwind$??__EMIN_LPF_FREQUENCY_LOG@@YAXXZ
pdata	ENDS
;	COMDAT pdata
pdata	SEGMENT
$pdata$??__EMAX_LPF_FREQUENCY_LOG@@YAXXZ DD imagerel ??__EMAX_LPF_FREQUENCY_LOG@@YAXXZ
	DD	imagerel ??__EMAX_LPF_FREQUENCY_LOG@@YAXXZ+38
	DD	imagerel $unwind$??__EMAX_LPF_FREQUENCY_LOG@@YAXXZ
pdata	ENDS
;	COMDAT pdata
pdata	SEGMENT
$pdata$?createEffectInstance@@YAPEAVAudioEffect@@P6A_JPEAUAEffect@@HH_JPEAXM@Z@Z DD imagerel $LN8
	DD	imagerel $LN8+42
	DD	imagerel $unwind$?createEffectInstance@@YAPEAVAudioEffect@@P6A_JPEAUAEffect@@HH_JPEAXM@Z@Z
pdata	ENDS
;	COMDAT pdata
pdata	SEGMENT
$pdata$?dtor$0@?0??createEffectInstance@@YAPEAVAudioEffect@@P6A_JPEAUAEffect@@HH_JPEAXM@Z@Z@4HA DD imagerel ?dtor$0@?0??createEffectInstance@@YAPEAVAudioEffect@@P6A_JPEAUAEffect@@HH_JPEAXM@Z@Z@4HA
	DD	imagerel ?dtor$0@?0??createEffectInstance@@YAPEAVAudioEffect@@P6A_JPEAUAEffect@@HH_JPEAXM@Z@Z@4HA+29
	DD	imagerel $unwind$?dtor$0@?0??createEffectInstance@@YAPEAVAudioEffect@@P6A_JPEAUAEffect@@HH_JPEAXM@Z@Z@4HA
pdata	ENDS
;	COMDAT xdata
xdata	SEGMENT
$unwind$?dtor$0@?0??createEffectInstance@@YAPEAVAudioEffect@@P6A_JPEAUAEffect@@HH_JPEAXM@Z@Z@4HA DD 020601H
	DD	050023206H
xdata	ENDS
;	COMDAT xdata
xdata	SEGMENT
$ip2state$?createEffectInstance@@YAPEAVAudioEffect@@P6A_JPEAUAEffect@@HH_JPEAXM@Z@Z DB 04H
	DB	01cH
	DB	00H
	DB	' '
	DB	02H
xdata	ENDS
;	COMDAT xdata
xdata	SEGMENT
$stateUnwindMap$?createEffectInstance@@YAPEAVAudioEffect@@P6A_JPEAUAEffect@@HH_JPEAXM@Z@Z DB 02H
	DB	0eH
	DD	imagerel ?dtor$0@?0??createEffectInstance@@YAPEAVAudioEffect@@P6A_JPEAUAEffect@@HH_JPEAXM@Z@Z@4HA
xdata	ENDS
;	COMDAT xdata
xdata	SEGMENT
$cppxdata$?createEffectInstance@@YAPEAVAudioEffect@@P6A_JPEAUAEffect@@HH_JPEAXM@Z@Z DB 028H
	DD	imagerel $stateUnwindMap$?createEffectInstance@@YAPEAVAudioEffect@@P6A_JPEAUAEffect@@HH_JPEAXM@Z@Z
	DD	imagerel $ip2state$?createEffectInstance@@YAPEAVAudioEffect@@P6A_JPEAUAEffect@@HH_JPEAXM@Z@Z
xdata	ENDS
;	COMDAT xdata
xdata	SEGMENT
$unwind$?createEffectInstance@@YAPEAVAudioEffect@@P6A_JPEAUAEffect@@HH_JPEAXM@Z@Z DD 020611H
	DD	030023206H
	DD	imagerel __CxxFrameHandler4
	DD	imagerel $cppxdata$?createEffectInstance@@YAPEAVAudioEffect@@P6A_JPEAUAEffect@@HH_JPEAXM@Z@Z
xdata	ENDS
;	COMDAT xdata
xdata	SEGMENT
$unwind$??__EMAX_LPF_FREQUENCY_LOG@@YAXXZ DD 010401H
	DD	04204H
xdata	ENDS
;	COMDAT xdata
xdata	SEGMENT
$unwind$??__EMIN_LPF_FREQUENCY_LOG@@YAXXZ DD 010401H
	DD	04204H
xdata	ENDS
;	COMDAT xdata
xdata	SEGMENT
$unwind$?exponentialVector@@YA?AV?$vector@MV?$allocator@M@std@@@std@@MMH@Z DD 0103201H
	DD	028832H
	DD	03782aH
	DD	04681dH
	DD	0f7419H
	DD	0e6419H
	DD	0d5419H
	DD	0c3419H
	DD	0e0159219H
xdata	ENDS
;	COMDAT xdata
xdata	SEGMENT
$unwind$?randomInRange@@YAMMM@Z DD 051101H
	DD	027811H
	DD	036809H
	DD	08204H
xdata	ENDS
;	COMDAT xdata
xdata	SEGMENT
$ip2state$??0LFO@@QEAA@W4OscillatorType@@@Z DB 02H
	DB	'r'
	DB	02H
xdata	ENDS
;	COMDAT xdata
xdata	SEGMENT
$stateUnwindMap$??0LFO@@QEAA@W4OscillatorType@@@Z DB 02H
	DB	0eH
	DD	imagerel ?dtor$0@?0???0LFO@@QEAA@W4OscillatorType@@@Z@4HA
xdata	ENDS
;	COMDAT xdata
xdata	SEGMENT
$cppxdata$??0LFO@@QEAA@W4OscillatorType@@@Z DB 028H
	DD	imagerel $stateUnwindMap$??0LFO@@QEAA@W4OscillatorType@@@Z
	DD	imagerel $ip2state$??0LFO@@QEAA@W4OscillatorType@@@Z
xdata	ENDS
;	COMDAT xdata
xdata	SEGMENT
$unwind$??0LFO@@QEAA@W4OscillatorType@@@Z DD 020a11H
	DD	03006320aH
	DD	imagerel __CxxFrameHandler4
	DD	imagerel $cppxdata$??0LFO@@QEAA@W4OscillatorType@@@Z
xdata	ENDS
;	COMDAT xdata
xdata	SEGMENT
$unwind$??1LFO@@QEAA@XZ DD 020601H
	DD	030023206H
xdata	ENDS
;	COMDAT xdata
xdata	SEGMENT
$unwind$?createTable@LFO@@AEAAXXZ DD 0102f01H
	DD	02882fH
	DD	037824H
	DD	04681cH
	DD	0106418H
	DD	0f5418H
	DD	0e3418H
	DD	0f0149218H
	DD	07010e012H
xdata	ENDS
;	COMDAT xdata
xdata	SEGMENT
$unwind$?dtor$1@?0???0ModDelay@@QEAA@XZ@4HA DD 020601H
	DD	050023206H
xdata	ENDS
;	COMDAT xdata
xdata	SEGMENT
$ip2state$??0ModDelay@@QEAA@XZ DB 06H
	DB	0beH
	DB	02H
	DB	09cH
	DB	04H
	DB	'x'
	DB	08H
xdata	ENDS
;	COMDAT xdata
xdata	SEGMENT
$stateUnwindMap$??0ModDelay@@QEAA@XZ DB 08H
	DB	0cH
	DD	imagerel ??1CombFilter@@QEAA@XZ
	DB	060H
	DB	03cH
	DD	imagerel ??1LPCombFilter@@QEAA@XZ
	DB	060H
	DB	036H
	DD	imagerel ?dtor$1@?0???0ModDelay@@QEAA@XZ@4HA
	DB	02eH
	DD	imagerel ?dtor$4@?0???0ModDelay@@QEAA@XZ@4HA
xdata	ENDS
;	COMDAT xdata
xdata	SEGMENT
$cppxdata$??0ModDelay@@QEAA@XZ DB 028H
	DD	imagerel $stateUnwindMap$??0ModDelay@@QEAA@XZ
	DD	imagerel $ip2state$??0ModDelay@@QEAA@XZ
xdata	ENDS
;	COMDAT xdata
xdata	SEGMENT
$unwind$??0ModDelay@@QEAA@XZ DD 061511H
	DD	097415H
	DD	083415H
	DD	0f0113215H
	DD	imagerel __CxxFrameHandler4
	DD	imagerel $cppxdata$??0ModDelay@@QEAA@XZ
xdata	ENDS
;	COMDAT xdata
xdata	SEGMENT
$unwind$??1ModDelay@@QEAA@XZ DD 040a01H
	DD	06340aH
	DD	07006320aH
xdata	ENDS
;	COMDAT xdata
xdata	SEGMENT
$unwind$?init@ModDelay@@QEAAXMHW4OscillatorType@@@Z DD 060f01H
	DD	02680fH
	DD	08340aH
	DD	07006520aH
xdata	ENDS
;	COMDAT xdata
xdata	SEGMENT
$unwind$?processAudio@ModDelay@@UEAAMM@Z DD 040e01H
	DD	02680eH
	DD	030025206H
xdata	ENDS
;	COMDAT xdata
xdata	SEGMENT
$unwind$??_GLFO@@QEAAPEAXI@Z DD 020601H
	DD	030023206H
xdata	ENDS
;	COMDAT xdata
xdata	SEGMENT
$ip2state$??0MultiChannelDelay@@QEAA@H@Z DB 04H
	DB	'f'
	DB	02H
	DB	0d4H
	DB	00H
xdata	ENDS
;	COMDAT xdata
xdata	SEGMENT
$stateUnwindMap$??0MultiChannelDelay@@QEAA@H@Z DB 02H
	DB	0eH
	DD	imagerel ?dtor$0@?0???0MultiChannelDelay@@QEAA@H@Z@4HA
xdata	ENDS
;	COMDAT xdata
xdata	SEGMENT
$cppxdata$??0MultiChannelDelay@@QEAA@H@Z DB 028H
	DD	imagerel $stateUnwindMap$??0MultiChannelDelay@@QEAA@H@Z
	DD	imagerel $ip2state$??0MultiChannelDelay@@QEAA@H@Z
xdata	ENDS
;	COMDAT xdata
xdata	SEGMENT
$unwind$??0MultiChannelDelay@@QEAA@H@Z DD 061111H
	DD	093411H
	DD	0700d3211H
	DD	0500b600cH
	DD	imagerel __CxxFrameHandler4
	DD	imagerel $cppxdata$??0MultiChannelDelay@@QEAA@H@Z
xdata	ENDS
;	COMDAT xdata
xdata	SEGMENT
$unwind$??1MultiChannelDelay@@QEAA@XZ DD 081401H
	DD	086414H
	DD	075414H
	DD	063414H
	DD	070103214H
xdata	ENDS
;	COMDAT xdata
xdata	SEGMENT
$unwind$?initDelayLines@MultiChannelDelay@@QEAAXMH@Z DD 0a1801H
	DD	026818H
	DD	0a6414H
	DD	095414H
	DD	083414H
	DD	070105214H
xdata	ENDS
;	COMDAT xdata
xdata	SEGMENT
$ip2state$?setDelayLinesLength@MultiChannelDelay@@QEAAXMMW4DelayDistribution@@@Z DB 04H
	DB	01dH, 06H
	DB	00H
	DB	','
	DB	02H
xdata	ENDS
;	COMDAT xdata
xdata	SEGMENT
$stateUnwindMap$?setDelayLinesLength@MultiChannelDelay@@QEAAXMMW4DelayDistribution@@@Z DB 02H
	DB	0aH
	DD	imagerel ??1?$vector@MV?$allocator@M@std@@@std@@QEAA@XZ
	DB	040H
xdata	ENDS
;	COMDAT xdata
xdata	SEGMENT
$cppxdata$?setDelayLinesLength@MultiChannelDelay@@QEAAXMMW4DelayDistribution@@@Z DB 028H
	DD	imagerel $stateUnwindMap$?setDelayLinesLength@MultiChannelDelay@@QEAAXMMW4DelayDistribution@@@Z
	DD	imagerel $ip2state$?setDelayLinesLength@MultiChannelDelay@@QEAAXMMW4DelayDistribution@@@Z
xdata	ENDS
;	COMDAT xdata
xdata	SEGMENT
$unwind$?setDelayLinesLength@MultiChannelDelay@@QEAAXMMW4DelayDistribution@@@Z DD 0e2211H
	DD	058822H
	DD	06681dH
	DD	0137419H
	DD	0126419H
	DD	0115419H
	DD	0103419H
	DD	0e015d219H
	DD	imagerel __CxxFrameHandler4
	DD	imagerel $cppxdata$?setDelayLinesLength@MultiChannelDelay@@QEAAXMMW4DelayDistribution@@@Z
xdata	ENDS
;	COMDAT xdata
xdata	SEGMENT
$unwind$?setSampleRate@MultiChannelDelay@@QEAAXH@Z DD 081401H
	DD	086414H
	DD	075414H
	DD	063414H
	DD	070103214H
xdata	ENDS
;	COMDAT xdata
xdata	SEGMENT
$unwind$?processAudio@MultiChannelDelay@@QEAAXPEAM0@Z DD 0a1901H
	DD	097419H
	DD	086419H
	DD	075419H
	DD	063419H
	DD	0e0153219H
xdata	ENDS
;	COMDAT xdata
xdata	SEGMENT
$unwind$?setEqualDelayLines@MultiChannelDelay@@AEAAXXZ DD 060f01H
	DD	07640fH
	DD	06340fH
	DD	0700b320fH
xdata	ENDS
;	COMDAT xdata
xdata	SEGMENT
$unwind$?setRandomInRangeDelayLines@MultiChannelDelay@@AEAAXXZ DD 0a3401H
	DD	028834H
	DD	03682fH
	DD	0b6410H
	DD	0a3410H
	DD	0700c7210H
xdata	ENDS
;	COMDAT xdata
xdata	SEGMENT
$ip2state$?setExponentialDelayLengths@MultiChannelDelay@@AEAAXXZ DB 04H
	DB	'>'
	DB	00H
	DB	','
	DB	02H
xdata	ENDS
;	COMDAT xdata
xdata	SEGMENT
$stateUnwindMap$?setExponentialDelayLengths@MultiChannelDelay@@AEAAXXZ DB 02H
	DB	0aH
	DD	imagerel ??1?$vector@MV?$allocator@M@std@@@std@@QEAA@XZ
	DB	040H
xdata	ENDS
;	COMDAT xdata
xdata	SEGMENT
$cppxdata$?setExponentialDelayLengths@MultiChannelDelay@@AEAAXXZ DB 028H
	DD	imagerel $stateUnwindMap$?setExponentialDelayLengths@MultiChannelDelay@@AEAAXXZ
	DD	imagerel $ip2state$?setExponentialDelayLengths@MultiChannelDelay@@AEAAXXZ
xdata	ENDS
;	COMDAT xdata
xdata	SEGMENT
$unwind$?setExponentialDelayLengths@MultiChannelDelay@@AEAAXXZ DD 081511H
	DD	0e7415H
	DD	0d6415H
	DD	0c3415H
	DD	0e0119215H
	DD	imagerel __CxxFrameHandler4
	DD	imagerel $cppxdata$?setExponentialDelayLengths@MultiChannelDelay@@AEAAXXZ
xdata	ENDS
;	COMDAT xdata
xdata	SEGMENT
$unwind$?deleteDelayLines@MultiChannelDelay@@AEAAXXZ DD 081401H
	DD	086414H
	DD	075414H
	DD	063414H
	DD	070103214H
xdata	ENDS
;	COMDAT xdata
xdata	SEGMENT
$unwind$?constructDelayObjects@MultiChannelDelay@@AEAAXXZ DD 060f01H
	DD	08640fH
	DD	07340fH
	DD	0700b320fH
xdata	ENDS
;	COMDAT xdata
xdata	SEGMENT
$unwind$?constructMCDL@MultiChannelDelay@@AEAAXH@Z DD 081401H
	DD	096414H
	DD	085414H
	DD	073414H
	DD	070103214H
xdata	ENDS
;	COMDAT xdata
xdata	SEGMENT
$unwind$??_GDelay@@QEAAPEAXI@Z DD 020601H
	DD	030023206H
xdata	ENDS
;	COMDAT xdata
xdata	SEGMENT
$unwind$??0Hadamard@@QEAA@H@Z DD 0a1901H
	DD	097419H
	DD	086419H
	DD	075419H
	DD	063419H
	DD	0e0153219H
xdata	ENDS
;	COMDAT xdata
xdata	SEGMENT
$unwind$??1Hadamard@@QEAA@XZ DD 060f01H
	DD	07640fH
	DD	06340fH
	DD	0700b320fH
xdata	ENDS
;	COMDAT xdata
xdata	SEGMENT
$unwind$?deleteMatrix@Hadamard@@QEAAXXZ DD 060f01H
	DD	07640fH
	DD	06340fH
	DD	0700b320fH
xdata	ENDS
;	COMDAT xdata
xdata	SEGMENT
$unwind$?setNumberOfChannels@Hadamard@@QEAAXH@Z DD 0a1901H
	DD	097419H
	DD	086419H
	DD	075419H
	DD	063419H
	DD	0e0153219H
xdata	ENDS
;	COMDAT xdata
xdata	SEGMENT
$unwind$?hadamardUnscaled@Hadamard@@QEAAXPEAMH@Z DD 081e01H
	DD	08641eH
	DD	07541eH
	DD	06341eH
	DD	0701a321eH
xdata	ENDS
;	COMDAT xdata
xdata	SEGMENT
$unwind$?hadamardScaled@Hadamard@@QEAAXPEAMH@Z DD 040a01H
	DD	06340aH
	DD	07006320aH
xdata	ENDS
;	COMDAT xdata
xdata	SEGMENT
$unwind$?processAudio@Hadamard@@QEAAXPEAM0@Z DD 060f01H
	DD	07640fH
	DD	06340fH
	DD	0700b320fH
xdata	ENDS
;	COMDAT xdata
xdata	SEGMENT
$ip2state$??0FlipPolarity@@QEAA@H@Z DB 02H
	DB	011H, 02H
	DB	02H
xdata	ENDS
;	COMDAT xdata
xdata	SEGMENT
$stateUnwindMap$??0FlipPolarity@@QEAA@H@Z DB 02H
	DB	0cH
	DD	imagerel ??1?$vector@HV?$allocator@H@std@@@std@@QEAA@XZ
	DB	060H
xdata	ENDS
;	COMDAT xdata
xdata	SEGMENT
$cppxdata$??0FlipPolarity@@QEAA@H@Z DB 028H
	DD	imagerel $stateUnwindMap$??0FlipPolarity@@QEAA@H@Z
	DD	imagerel $ip2state$??0FlipPolarity@@QEAA@H@Z
xdata	ENDS
;	COMDAT xdata
xdata	SEGMENT
$unwind$??0FlipPolarity@@QEAA@H@Z DD 040f11H
	DD	08340fH
	DD	0700b320fH
	DD	imagerel __CxxFrameHandler4
	DD	imagerel $cppxdata$??0FlipPolarity@@QEAA@H@Z
xdata	ENDS
;	COMDAT xdata
xdata	SEGMENT
$unwind$??1FlipPolarity@@QEAA@XZ DD 020601H
	DD	030023206H
xdata	ENDS
;	COMDAT xdata
xdata	SEGMENT
$unwind$?setNumberOfChannels@FlipPolarity@@QEAAXH@Z DD 040a01H
	DD	06340aH
	DD	07006320aH
xdata	ENDS
;	COMDAT xdata
xdata	SEGMENT
$unwind$?dtor$2@?0???0MultiChannelDiffuser@@QEAA@H@Z@4HA DD 020601H
	DD	050023206H
xdata	ENDS
;	COMDAT xdata
xdata	SEGMENT
$unwind$?dtor$1@?0???0MultiChannelDiffuser@@QEAA@H@Z@4HA DD 020601H
	DD	050023206H
xdata	ENDS
;	COMDAT xdata
xdata	SEGMENT
$unwind$?dtor$0@?0???0MultiChannelDiffuser@@QEAA@H@Z@4HA DD 020601H
	DD	050023206H
xdata	ENDS
;	COMDAT xdata
xdata	SEGMENT
$ip2state$??0MultiChannelDiffuser@@QEAA@H@Z DB 0cH
	DB	'<'
	DB	00H
	DB	01eH
	DB	02H
	DB	01eH
	DB	00H
	DB	01eH
	DB	04H
	DB	01eH
	DB	00H
	DB	01eH
	DB	06H
xdata	ENDS
;	COMDAT xdata
xdata	SEGMENT
$stateUnwindMap$??0MultiChannelDiffuser@@QEAA@H@Z DB 06H
	DB	0eH
	DD	imagerel ?dtor$0@?0???0MultiChannelDiffuser@@QEAA@H@Z@4HA
	DB	036H
	DD	imagerel ?dtor$1@?0???0MultiChannelDiffuser@@QEAA@H@Z@4HA
	DB	05eH
	DD	imagerel ?dtor$2@?0???0MultiChannelDiffuser@@QEAA@H@Z@4HA
xdata	ENDS
;	COMDAT xdata
xdata	SEGMENT
$cppxdata$??0MultiChannelDiffuser@@QEAA@H@Z DB 028H
	DD	imagerel $stateUnwindMap$??0MultiChannelDiffuser@@QEAA@H@Z
	DD	imagerel $ip2state$??0MultiChannelDiffuser@@QEAA@H@Z
xdata	ENDS
;	COMDAT xdata
xdata	SEGMENT
$unwind$??0MultiChannelDiffuser@@QEAA@H@Z DD 040a11H
	DD	07340aH
	DD	07006320aH
	DD	imagerel __CxxFrameHandler4
	DD	imagerel $cppxdata$??0MultiChannelDiffuser@@QEAA@H@Z
xdata	ENDS
;	COMDAT xdata
xdata	SEGMENT
$unwind$??1MultiChannelDiffuser@@QEAA@XZ DD 081401H
	DD	086414H
	DD	075414H
	DD	063414H
	DD	070103214H
xdata	ENDS
;	COMDAT xdata
xdata	SEGMENT
$unwind$?init@MultiChannelDiffuser@@QEAAXMH@Z DD 081501H
	DD	087415H
	DD	076415H
	DD	063415H
	DD	0e0113215H
xdata	ENDS
;	COMDAT xdata
xdata	SEGMENT
$unwind$?setSampleRate@MultiChannelDiffuser@@QEAAXH@Z DD 081501H
	DD	087415H
	DD	076415H
	DD	063415H
	DD	0e0113215H
xdata	ENDS
;	COMDAT xdata
xdata	SEGMENT
$unwind$?processAudio@MultiChannelDiffuser@@QEAAXPEAM0@Z DD 0c1c01H
	DD	0c641cH
	DD	0b541cH
	DD	0a341cH
	DD	0f018321cH
	DD	0d014e016H
	DD	07010c012H
xdata	ENDS
;	COMDAT xdata
xdata	SEGMENT
$unwind$?dtor$2@?0??constructMCDF@MultiChannelDiffuser@@AEAAXH@Z@4HA DD 020601H
	DD	050023206H
xdata	ENDS
;	COMDAT xdata
xdata	SEGMENT
$unwind$?dtor$1@?0??constructMCDF@MultiChannelDiffuser@@AEAAXH@Z@4HA DD 020601H
	DD	050023206H
xdata	ENDS
;	COMDAT xdata
xdata	SEGMENT
$unwind$?dtor$0@?0??constructMCDF@MultiChannelDiffuser@@AEAAXH@Z@4HA DD 020601H
	DD	050023206H
xdata	ENDS
;	COMDAT xdata
xdata	SEGMENT
$ip2state$?constructMCDF@MultiChannelDiffuser@@AEAAXH@Z DB 0cH
	DB	'<'
	DB	00H
	DB	01eH
	DB	02H
	DB	01eH
	DB	00H
	DB	01eH
	DB	04H
	DB	01eH
	DB	00H
	DB	01eH
	DB	06H
xdata	ENDS
;	COMDAT xdata
xdata	SEGMENT
$stateUnwindMap$?constructMCDF@MultiChannelDiffuser@@AEAAXH@Z DB 06H
	DB	0eH
	DD	imagerel ?dtor$0@?0??constructMCDF@MultiChannelDiffuser@@AEAAXH@Z@4HA
	DB	036H
	DD	imagerel ?dtor$1@?0??constructMCDF@MultiChannelDiffuser@@AEAAXH@Z@4HA
	DB	05eH
	DD	imagerel ?dtor$2@?0??constructMCDF@MultiChannelDiffuser@@AEAAXH@Z@4HA
xdata	ENDS
;	COMDAT xdata
xdata	SEGMENT
$cppxdata$?constructMCDF@MultiChannelDiffuser@@AEAAXH@Z DB 028H
	DD	imagerel $stateUnwindMap$?constructMCDF@MultiChannelDiffuser@@AEAAXH@Z
	DD	imagerel $ip2state$?constructMCDF@MultiChannelDiffuser@@AEAAXH@Z
xdata	ENDS
;	COMDAT xdata
xdata	SEGMENT
$unwind$?constructMCDF@MultiChannelDiffuser@@AEAAXH@Z DD 040a11H
	DD	07340aH
	DD	07006320aH
	DD	imagerel __CxxFrameHandler4
	DD	imagerel $cppxdata$?constructMCDF@MultiChannelDiffuser@@AEAAXH@Z
xdata	ENDS
;	COMDAT xdata
xdata	SEGMENT
$unwind$?initInternalArrays@MultiChannelDiffuser@@AEAAXXZ DD 040a01H
	DD	06340aH
	DD	07006320aH
xdata	ENDS
;	COMDAT xdata
xdata	SEGMENT
$unwind$?deleteInternalArrays@MultiChannelDiffuser@@AEAAXXZ DD 020601H
	DD	030023206H
xdata	ENDS
;	COMDAT xdata
xdata	SEGMENT
$unwind$?deleteBlocks@MultiChannelDiffuser@@AEAAXXZ DD 081401H
	DD	086414H
	DD	075414H
	DD	063414H
	DD	070103214H
xdata	ENDS
;	COMDAT xdata
xdata	SEGMENT
$unwind$?dtor$2@?0??constructBlocks@MultiChannelDiffuser@@AEAAXXZ@4HA DD 020601H
	DD	050023206H
xdata	ENDS
;	COMDAT xdata
xdata	SEGMENT
$unwind$?dtor$1@?0??constructBlocks@MultiChannelDiffuser@@AEAAXXZ@4HA DD 020601H
	DD	050023206H
xdata	ENDS
;	COMDAT xdata
xdata	SEGMENT
$unwind$?dtor$0@?0??constructBlocks@MultiChannelDiffuser@@AEAAXXZ@4HA DD 020601H
	DD	050023206H
xdata	ENDS
;	COMDAT xdata
xdata	SEGMENT
$ip2state$?constructBlocks@MultiChannelDiffuser@@AEAAXXZ DB 0cH
	DB	01cH
	DB	00H
	DB	01eH
	DB	02H
	DB	01eH
	DB	00H
	DB	01eH
	DB	04H
	DB	01eH
	DB	00H
	DB	01eH
	DB	06H
xdata	ENDS
;	COMDAT xdata
xdata	SEGMENT
$stateUnwindMap$?constructBlocks@MultiChannelDiffuser@@AEAAXXZ DB 06H
	DB	0eH
	DD	imagerel ?dtor$0@?0??constructBlocks@MultiChannelDiffuser@@AEAAXXZ@4HA
	DB	036H
	DD	imagerel ?dtor$1@?0??constructBlocks@MultiChannelDiffuser@@AEAAXXZ@4HA
	DB	05eH
	DD	imagerel ?dtor$2@?0??constructBlocks@MultiChannelDiffuser@@AEAAXXZ@4HA
xdata	ENDS
;	COMDAT xdata
xdata	SEGMENT
$cppxdata$?constructBlocks@MultiChannelDiffuser@@AEAAXXZ DB 028H
	DD	imagerel $stateUnwindMap$?constructBlocks@MultiChannelDiffuser@@AEAAXXZ
	DD	imagerel $ip2state$?constructBlocks@MultiChannelDiffuser@@AEAAXXZ
xdata	ENDS
;	COMDAT xdata
xdata	SEGMENT
$unwind$?constructBlocks@MultiChannelDiffuser@@AEAAXXZ DD 020611H
	DD	030023206H
	DD	imagerel __CxxFrameHandler4
	DD	imagerel $cppxdata$?constructBlocks@MultiChannelDiffuser@@AEAAXXZ
xdata	ENDS
;	COMDAT xdata
xdata	SEGMENT
$unwind$??_GMultiChannelDelay@@QEAAPEAXI@Z DD 020601H
	DD	030023206H
xdata	ENDS
;	COMDAT xdata
xdata	SEGMENT
$unwind$??_GHadamard@@QEAAPEAXI@Z DD 060f01H
	DD	07640fH
	DD	06340fH
	DD	0700b320fH
xdata	ENDS
;	COMDAT xdata
xdata	SEGMENT
$unwind$??_GFlipPolarity@@QEAAPEAXI@Z DD 020601H
	DD	030023206H
xdata	ENDS
;	COMDAT xdata
xdata	SEGMENT
$unwind$?dtor$1@?0???0ModMultiChannelDelay@@QEAA@H@Z@4HA DD 020601H
	DD	050023206H
xdata	ENDS
;	COMDAT xdata
xdata	SEGMENT
$ip2state$??0ModMultiChannelDelay@@QEAA@H@Z DB 06H
	DB	'l'
	DB	02H
	DB	01aH
	DB	04H
	DB	'N'
	DB	02H
xdata	ENDS
;	COMDAT xdata
xdata	SEGMENT
$stateUnwindMap$??0ModMultiChannelDelay@@QEAA@H@Z DB 04H
	DB	0eH
	DD	imagerel ?dtor$0@?0???0ModMultiChannelDelay@@QEAA@H@Z@4HA
	DB	02eH
	DD	imagerel ?dtor$1@?0???0ModMultiChannelDelay@@QEAA@H@Z@4HA
xdata	ENDS
;	COMDAT xdata
xdata	SEGMENT
$cppxdata$??0ModMultiChannelDelay@@QEAA@H@Z DB 028H
	DD	imagerel $stateUnwindMap$??0ModMultiChannelDelay@@QEAA@H@Z
	DD	imagerel $ip2state$??0ModMultiChannelDelay@@QEAA@H@Z
xdata	ENDS
;	COMDAT xdata
xdata	SEGMENT
$unwind$??0ModMultiChannelDelay@@QEAA@H@Z DD 061111H
	DD	093411H
	DD	0700d3211H
	DD	0500b600cH
	DD	imagerel __CxxFrameHandler4
	DD	imagerel $cppxdata$??0ModMultiChannelDelay@@QEAA@H@Z
xdata	ENDS
;	COMDAT xdata
xdata	SEGMENT
$unwind$??1ModMultiChannelDelay@@QEAA@XZ DD 0a1901H
	DD	097419H
	DD	086419H
	DD	075419H
	DD	063419H
	DD	0e0153219H
xdata	ENDS
;	COMDAT xdata
xdata	SEGMENT
$unwind$?initDelayLines@ModMultiChannelDelay@@QEAAXMH@Z DD 081401H
	DD	086414H
	DD	075414H
	DD	063414H
	DD	070103214H
xdata	ENDS
;	COMDAT xdata
xdata	SEGMENT
$ip2state$?setDelayLinesLength@ModMultiChannelDelay@@QEAAXMMW4DelayDistribution@@@Z DB 04H
	DB	08dH, 05H
	DB	00H
	DB	','
	DB	02H
xdata	ENDS
;	COMDAT xdata
xdata	SEGMENT
$stateUnwindMap$?setDelayLinesLength@ModMultiChannelDelay@@QEAAXMMW4DelayDistribution@@@Z DB 02H
	DB	0aH
	DD	imagerel ??1?$vector@MV?$allocator@M@std@@@std@@QEAA@XZ
	DB	040H
xdata	ENDS
;	COMDAT xdata
xdata	SEGMENT
$cppxdata$?setDelayLinesLength@ModMultiChannelDelay@@QEAAXMMW4DelayDistribution@@@Z DB 028H
	DD	imagerel $stateUnwindMap$?setDelayLinesLength@ModMultiChannelDelay@@QEAAXMMW4DelayDistribution@@@Z
	DD	imagerel $ip2state$?setDelayLinesLength@ModMultiChannelDelay@@QEAAXMMW4DelayDistribution@@@Z
xdata	ENDS
;	COMDAT xdata
xdata	SEGMENT
$unwind$?setDelayLinesLength@ModMultiChannelDelay@@QEAAXMMW4DelayDistribution@@@Z DD 0e2211H
	DD	058822H
	DD	06681dH
	DD	0137419H
	DD	0126419H
	DD	0115419H
	DD	0103419H
	DD	0e015d219H
	DD	imagerel __CxxFrameHandler4
	DD	imagerel $cppxdata$?setDelayLinesLength@ModMultiChannelDelay@@QEAAXMMW4DelayDistribution@@@Z
xdata	ENDS
;	COMDAT xdata
xdata	SEGMENT
$unwind$?setMakeUpGaindB@ModMultiChannelDelay@@QEAAXM@Z DD 060f01H
	DD	07640fH
	DD	06340fH
	DD	0700b320fH
xdata	ENDS
;	COMDAT xdata
xdata	SEGMENT
$unwind$?setOscillatorType@ModMultiChannelDelay@@QEAAXW4OscillatorType@@@Z DD 060f01H
	DD	07640fH
	DD	06340fH
	DD	0700b320fH
xdata	ENDS
;	COMDAT xdata
xdata	SEGMENT
$unwind$?setSampleRate@ModMultiChannelDelay@@QEAAXH@Z DD 081401H
	DD	086414H
	DD	075414H
	DD	063414H
	DD	070103214H
xdata	ENDS
;	COMDAT xdata
xdata	SEGMENT
$unwind$?processAudio@ModMultiChannelDelay@@QEAAXPEAM0@Z DD 0a1901H
	DD	097419H
	DD	086419H
	DD	075419H
	DD	063419H
	DD	0e0153219H
xdata	ENDS
;	COMDAT xdata
xdata	SEGMENT
$unwind$?setEqualDelayLines@ModMultiChannelDelay@@AEAAXXZ DD 060f01H
	DD	07640fH
	DD	06340fH
	DD	0700b320fH
xdata	ENDS
;	COMDAT xdata
xdata	SEGMENT
$unwind$?setRandomInRangeDelayLines@ModMultiChannelDelay@@AEAAXXZ DD 0a3401H
	DD	028834H
	DD	03682fH
	DD	0b6410H
	DD	0a3410H
	DD	0700c7210H
xdata	ENDS
;	COMDAT xdata
xdata	SEGMENT
$ip2state$?setExponentialDelayLengths@ModMultiChannelDelay@@AEAAXXZ DB 04H
	DB	'>'
	DB	00H
	DB	','
	DB	02H
xdata	ENDS
;	COMDAT xdata
xdata	SEGMENT
$stateUnwindMap$?setExponentialDelayLengths@ModMultiChannelDelay@@AEAAXXZ DB 02H
	DB	0aH
	DD	imagerel ??1?$vector@MV?$allocator@M@std@@@std@@QEAA@XZ
	DB	040H
xdata	ENDS
;	COMDAT xdata
xdata	SEGMENT
$cppxdata$?setExponentialDelayLengths@ModMultiChannelDelay@@AEAAXXZ DB 028H
	DD	imagerel $stateUnwindMap$?setExponentialDelayLengths@ModMultiChannelDelay@@AEAAXXZ
	DD	imagerel $ip2state$?setExponentialDelayLengths@ModMultiChannelDelay@@AEAAXXZ
xdata	ENDS
;	COMDAT xdata
xdata	SEGMENT
$unwind$?setExponentialDelayLengths@ModMultiChannelDelay@@AEAAXXZ DD 081511H
	DD	0e7415H
	DD	0d6415H
	DD	0c3415H
	DD	0e0119215H
	DD	imagerel __CxxFrameHandler4
	DD	imagerel $cppxdata$?setExponentialDelayLengths@ModMultiChannelDelay@@AEAAXXZ
xdata	ENDS
;	COMDAT xdata
xdata	SEGMENT
$unwind$?deleteDelayLines@ModMultiChannelDelay@@AEAAXXZ DD 0a1901H
	DD	097419H
	DD	086419H
	DD	075419H
	DD	063419H
	DD	0e0153219H
xdata	ENDS
;	COMDAT xdata
xdata	SEGMENT
$unwind$?dtor$0@?0??constructDelayObjects@ModMultiChannelDelay@@AEAAXXZ@4HA DD 020601H
	DD	050023206H
xdata	ENDS
;	COMDAT xdata
xdata	SEGMENT
$ip2state$?constructDelayObjects@ModMultiChannelDelay@@AEAAXXZ DB 06H
	DB	':'
	DB	00H
	DB	01aH
	DB	02H
	DB	'P'
	DB	00H
xdata	ENDS
;	COMDAT xdata
xdata	SEGMENT
$stateUnwindMap$?constructDelayObjects@ModMultiChannelDelay@@AEAAXXZ DB 02H
	DB	0eH
	DD	imagerel ?dtor$0@?0??constructDelayObjects@ModMultiChannelDelay@@AEAAXXZ@4HA
xdata	ENDS
;	COMDAT xdata
xdata	SEGMENT
$cppxdata$?constructDelayObjects@ModMultiChannelDelay@@AEAAXXZ DB 028H
	DD	imagerel $stateUnwindMap$?constructDelayObjects@ModMultiChannelDelay@@AEAAXXZ
	DD	imagerel $ip2state$?constructDelayObjects@ModMultiChannelDelay@@AEAAXXZ
xdata	ENDS
;	COMDAT xdata
xdata	SEGMENT
$unwind$?constructDelayObjects@ModMultiChannelDelay@@AEAAXXZ DD 060f11H
	DD	09640fH
	DD	08340fH
	DD	0700b320fH
	DD	imagerel __CxxFrameHandler4
	DD	imagerel $cppxdata$?constructDelayObjects@ModMultiChannelDelay@@AEAAXXZ
xdata	ENDS
;	COMDAT xdata
xdata	SEGMENT
$unwind$?dtor$0@?0??constructMCDL@ModMultiChannelDelay@@AEAAXH@Z@4HA DD 020601H
	DD	050023206H
xdata	ENDS
;	COMDAT xdata
xdata	SEGMENT
$ip2state$?constructMCDL@ModMultiChannelDelay@@AEAAXH@Z DB 06H
	DB	'D'
	DB	00H
	DB	01aH
	DB	02H
	DB	'P'
	DB	00H
xdata	ENDS
;	COMDAT xdata
xdata	SEGMENT
$stateUnwindMap$?constructMCDL@ModMultiChannelDelay@@AEAAXH@Z DB 02H
	DB	0eH
	DD	imagerel ?dtor$0@?0??constructMCDL@ModMultiChannelDelay@@AEAAXH@Z@4HA
xdata	ENDS
;	COMDAT xdata
xdata	SEGMENT
$cppxdata$?constructMCDL@ModMultiChannelDelay@@AEAAXH@Z DB 028H
	DD	imagerel $stateUnwindMap$?constructMCDL@ModMultiChannelDelay@@AEAAXH@Z
	DD	imagerel $ip2state$?constructMCDL@ModMultiChannelDelay@@AEAAXH@Z
xdata	ENDS
;	COMDAT xdata
xdata	SEGMENT
$unwind$?constructMCDL@ModMultiChannelDelay@@AEAAXH@Z DD 060c11H
	DD	09340cH
	DD	07008320cH
	DD	050066007H
	DD	imagerel __CxxFrameHandler4
	DD	imagerel $cppxdata$?constructMCDL@ModMultiChannelDelay@@AEAAXH@Z
xdata	ENDS
;	COMDAT xdata
xdata	SEGMENT
$unwind$??_GModDelay@@QEAAPEAXI@Z DD 040a01H
	DD	06340aH
	DD	07006320aH
xdata	ENDS
;	COMDAT xdata
xdata	SEGMENT
$unwind$?dtor$2@?0???0ModMultiChannelDiffuser@@QEAA@H@Z@4HA DD 020601H
	DD	050023206H
xdata	ENDS
;	COMDAT xdata
xdata	SEGMENT
$unwind$?dtor$1@?0???0ModMultiChannelDiffuser@@QEAA@H@Z@4HA DD 020601H
	DD	050023206H
xdata	ENDS
;	COMDAT xdata
xdata	SEGMENT
$unwind$?dtor$4@?0???0ModMultiChannelDiffuser@@QEAA@H@Z@4HA DD 020601H
	DD	050023206H
xdata	ENDS
;	COMDAT xdata
xdata	SEGMENT
$unwind$?dtor$0@?0???0ModMultiChannelDiffuser@@QEAA@H@Z@4HA DD 020601H
	DD	050023206H
xdata	ENDS
;	COMDAT xdata
xdata	SEGMENT
$ip2state$??0ModMultiChannelDiffuser@@QEAA@H@Z DB 010H
	DB	':'
	DB	00H
	DB	'`'
	DB	04H
	DB	01aH
	DB	06H
	DB	'N'
	DB	04H
	DB	'n'
	DB	00H
	DB	' '
	DB	08H
	DB	01eH
	DB	00H
	DB	' '
	DB	0aH
xdata	ENDS
;	COMDAT xdata
xdata	SEGMENT
$stateUnwindMap$??0ModMultiChannelDiffuser@@QEAA@H@Z DB 0aH
	DB	0eH
	DD	imagerel ?dtor$0@?0???0ModMultiChannelDiffuser@@QEAA@H@Z@4HA
	DB	02eH
	DD	imagerel ?dtor$3@?0???0ModMultiChannelDiffuser@@QEAA@H@Z@4HA
	DB	02eH
	DD	imagerel ?dtor$4@?0???0ModMultiChannelDiffuser@@QEAA@H@Z@4HA
	DB	086H
	DD	imagerel ?dtor$1@?0???0ModMultiChannelDiffuser@@QEAA@H@Z@4HA
	DB	0aeH
	DD	imagerel ?dtor$2@?0???0ModMultiChannelDiffuser@@QEAA@H@Z@4HA
xdata	ENDS
;	COMDAT xdata
xdata	SEGMENT
$cppxdata$??0ModMultiChannelDiffuser@@QEAA@H@Z DB 028H
	DD	imagerel $stateUnwindMap$??0ModMultiChannelDiffuser@@QEAA@H@Z
	DD	imagerel $ip2state$??0ModMultiChannelDiffuser@@QEAA@H@Z
xdata	ENDS
;	COMDAT xdata
xdata	SEGMENT
$unwind$??0ModMultiChannelDiffuser@@QEAA@H@Z DD 060b11H
	DD	0e007320bH
	DD	060047005H
	DD	030025003H
	DD	imagerel __CxxFrameHandler4
	DD	imagerel $cppxdata$??0ModMultiChannelDiffuser@@QEAA@H@Z
xdata	ENDS
;	COMDAT xdata
xdata	SEGMENT
$unwind$??1ModMultiChannelDiffuser@@QEAA@XZ DD 081401H
	DD	086414H
	DD	075414H
	DD	063414H
	DD	070103214H
xdata	ENDS
;	COMDAT xdata
xdata	SEGMENT
$unwind$?init@ModMultiChannelDiffuser@@QEAAXMH@Z DD 0a1801H
	DD	0a6418H
	DD	095418H
	DD	083418H
	DD	0f0143218H
	DD	07010e012H
xdata	ENDS
;	COMDAT xdata
xdata	SEGMENT
$unwind$?setMakeUpGainDB@ModMultiChannelDiffuser@@QEAAXM@Z DD 060f01H
	DD	07640fH
	DD	06340fH
	DD	0700b320fH
xdata	ENDS
;	COMDAT xdata
xdata	SEGMENT
$unwind$?setOscillatorType@ModMultiChannelDiffuser@@QEAAXW4OscillatorType@@@Z DD 060f01H
	DD	07640fH
	DD	06340fH
	DD	0700b320fH
xdata	ENDS
;	COMDAT xdata
xdata	SEGMENT
$unwind$?setSampleRate@ModMultiChannelDiffuser@@QEAAXH@Z DD 081501H
	DD	087415H
	DD	076415H
	DD	063415H
	DD	0e0113215H
xdata	ENDS
;	COMDAT xdata
xdata	SEGMENT
$unwind$?processAudio@ModMultiChannelDiffuser@@QEAAXPEAM0@Z DD 0c1c01H
	DD	0c641cH
	DD	0b541cH
	DD	0a341cH
	DD	0f018321cH
	DD	0d014e016H
	DD	07010c012H
xdata	ENDS
;	COMDAT xdata
xdata	SEGMENT
$unwind$?dtor$2@?0??constructMCDF@ModMultiChannelDiffuser@@AEAAXH@Z@4HA DD 020601H
	DD	050023206H
xdata	ENDS
;	COMDAT xdata
xdata	SEGMENT
$unwind$?dtor$1@?0??constructMCDF@ModMultiChannelDiffuser@@AEAAXH@Z@4HA DD 020601H
	DD	050023206H
xdata	ENDS
;	COMDAT xdata
xdata	SEGMENT
$unwind$?dtor$4@?0??constructMCDF@ModMultiChannelDiffuser@@AEAAXH@Z@4HA DD 020601H
	DD	050023206H
xdata	ENDS
;	COMDAT xdata
xdata	SEGMENT
$unwind$?dtor$0@?0??constructMCDF@ModMultiChannelDiffuser@@AEAAXH@Z@4HA DD 020601H
	DD	050023206H
xdata	ENDS
;	COMDAT xdata
xdata	SEGMENT
$ip2state$?constructMCDF@ModMultiChannelDiffuser@@AEAAXH@Z DB 010H
	DB	':'
	DB	00H
	DB	'`'
	DB	04H
	DB	01aH
	DB	06H
	DB	'N'
	DB	04H
	DB	'n'
	DB	00H
	DB	' '
	DB	08H
	DB	01eH
	DB	00H
	DB	' '
	DB	0aH
xdata	ENDS
;	COMDAT xdata
xdata	SEGMENT
$stateUnwindMap$?constructMCDF@ModMultiChannelDiffuser@@AEAAXH@Z DB 0aH
	DB	0eH
	DD	imagerel ?dtor$0@?0??constructMCDF@ModMultiChannelDiffuser@@AEAAXH@Z@4HA
	DB	02eH
	DD	imagerel ?dtor$3@?0??constructMCDF@ModMultiChannelDiffuser@@AEAAXH@Z@4HA
	DB	02eH
	DD	imagerel ?dtor$4@?0??constructMCDF@ModMultiChannelDiffuser@@AEAAXH@Z@4HA
	DB	086H
	DD	imagerel ?dtor$1@?0??constructMCDF@ModMultiChannelDiffuser@@AEAAXH@Z@4HA
	DB	0aeH
	DD	imagerel ?dtor$2@?0??constructMCDF@ModMultiChannelDiffuser@@AEAAXH@Z@4HA
xdata	ENDS
;	COMDAT xdata
xdata	SEGMENT
$cppxdata$?constructMCDF@ModMultiChannelDiffuser@@AEAAXH@Z DB 028H
	DD	imagerel $stateUnwindMap$?constructMCDF@ModMultiChannelDiffuser@@AEAAXH@Z
	DD	imagerel $ip2state$?constructMCDF@ModMultiChannelDiffuser@@AEAAXH@Z
xdata	ENDS
;	COMDAT xdata
xdata	SEGMENT
$unwind$?constructMCDF@ModMultiChannelDiffuser@@AEAAXH@Z DD 060b11H
	DD	0e007320bH
	DD	060047005H
	DD	030025003H
	DD	imagerel __CxxFrameHandler4
	DD	imagerel $cppxdata$?constructMCDF@ModMultiChannelDiffuser@@AEAAXH@Z
xdata	ENDS
;	COMDAT xdata
xdata	SEGMENT
$unwind$?initInternalArrays@ModMultiChannelDiffuser@@AEAAXXZ DD 040a01H
	DD	06340aH
	DD	07006320aH
xdata	ENDS
;	COMDAT xdata
xdata	SEGMENT
$unwind$?deleteInternalArrays@ModMultiChannelDiffuser@@AEAAXXZ DD 020601H
	DD	030023206H
xdata	ENDS
;	COMDAT xdata
xdata	SEGMENT
$unwind$?deleteBlocks@ModMultiChannelDiffuser@@AEAAXXZ DD 081401H
	DD	086414H
	DD	075414H
	DD	063414H
	DD	070103214H
xdata	ENDS
;	COMDAT xdata
xdata	SEGMENT
$unwind$?dtor$2@?0??constructBlocks@ModMultiChannelDiffuser@@AEAAXXZ@4HA DD 020601H
	DD	050023206H
xdata	ENDS
;	COMDAT xdata
xdata	SEGMENT
$unwind$?dtor$1@?0??constructBlocks@ModMultiChannelDiffuser@@AEAAXXZ@4HA DD 020601H
	DD	050023206H
xdata	ENDS
;	COMDAT xdata
xdata	SEGMENT
$unwind$?dtor$4@?0??constructBlocks@ModMultiChannelDiffuser@@AEAAXXZ@4HA DD 020601H
	DD	050023206H
xdata	ENDS
;	COMDAT xdata
xdata	SEGMENT
$unwind$?dtor$0@?0??constructBlocks@ModMultiChannelDiffuser@@AEAAXXZ@4HA DD 020601H
	DD	050023206H
xdata	ENDS
;	COMDAT xdata
xdata	SEGMENT
$ip2state$?constructBlocks@ModMultiChannelDiffuser@@AEAAXXZ DB 010H
	DB	'&'
	DB	00H
	DB	'd'
	DB	04H
	DB	01aH
	DB	06H
	DB	'N'
	DB	04H
	DB	'n'
	DB	00H
	DB	' '
	DB	08H
	DB	01eH
	DB	00H
	DB	' '
	DB	0aH
xdata	ENDS
;	COMDAT xdata
xdata	SEGMENT
$stateUnwindMap$?constructBlocks@ModMultiChannelDiffuser@@AEAAXXZ DB 0aH
	DB	0eH
	DD	imagerel ?dtor$0@?0??constructBlocks@ModMultiChannelDiffuser@@AEAAXXZ@4HA
	DB	02eH
	DD	imagerel ?dtor$3@?0??constructBlocks@ModMultiChannelDiffuser@@AEAAXXZ@4HA
	DB	02eH
	DD	imagerel ?dtor$4@?0??constructBlocks@ModMultiChannelDiffuser@@AEAAXXZ@4HA
	DB	086H
	DD	imagerel ?dtor$1@?0??constructBlocks@ModMultiChannelDiffuser@@AEAAXXZ@4HA
	DB	0aeH
	DD	imagerel ?dtor$2@?0??constructBlocks@ModMultiChannelDiffuser@@AEAAXXZ@4HA
xdata	ENDS
;	COMDAT xdata
xdata	SEGMENT
$cppxdata$?constructBlocks@ModMultiChannelDiffuser@@AEAAXXZ DB 028H
	DD	imagerel $stateUnwindMap$?constructBlocks@ModMultiChannelDiffuser@@AEAAXXZ
	DD	imagerel $ip2state$?constructBlocks@ModMultiChannelDiffuser@@AEAAXXZ
xdata	ENDS
;	COMDAT xdata
xdata	SEGMENT
$unwind$?constructBlocks@ModMultiChannelDiffuser@@AEAAXXZ DD 060b11H
	DD	0e007320bH
	DD	060047005H
	DD	030025003H
	DD	imagerel __CxxFrameHandler4
	DD	imagerel $cppxdata$?constructBlocks@ModMultiChannelDiffuser@@AEAAXXZ
xdata	ENDS
;	COMDAT xdata
xdata	SEGMENT
$unwind$??_GModMultiChannelDelay@@QEAAPEAXI@Z DD 020601H
	DD	030023206H
xdata	ENDS
;	COMDAT xdata
xdata	SEGMENT
$unwind$?dtor$2@?0???0ModMultiChannelFeedback@@QEAA@H@Z@4HA DD 020601H
	DD	050023206H
xdata	ENDS
;	COMDAT xdata
xdata	SEGMENT
$ip2state$??0ModMultiChannelFeedback@@QEAA@H@Z DB 08H
	DB	'P'
	DB	02H
	DB	098H
	DB	04H
	DB	012H
	DB	02H
	DB	'\'
	DB	00H
xdata	ENDS
;	COMDAT xdata
xdata	SEGMENT
$stateUnwindMap$??0ModMultiChannelFeedback@@QEAA@H@Z DB 04H
	DB	0eH
	DD	imagerel ?dtor$0@?0???0ModMultiChannelFeedback@@QEAA@H@Z@4HA
	DB	02eH
	DD	imagerel ?dtor$2@?0???0ModMultiChannelFeedback@@QEAA@H@Z@4HA
xdata	ENDS
;	COMDAT xdata
xdata	SEGMENT
$cppxdata$??0ModMultiChannelFeedback@@QEAA@H@Z DB 028H
	DD	imagerel $stateUnwindMap$??0ModMultiChannelFeedback@@QEAA@H@Z
	DD	imagerel $ip2state$??0ModMultiChannelFeedback@@QEAA@H@Z
xdata	ENDS
;	COMDAT xdata
xdata	SEGMENT
$unwind$??0ModMultiChannelFeedback@@QEAA@H@Z DD 061211H
	DD	093412H
	DD	0e00e3212H
	DD	0600b700cH
	DD	imagerel __CxxFrameHandler4
	DD	imagerel $cppxdata$??0ModMultiChannelFeedback@@QEAA@H@Z
xdata	ENDS
;	COMDAT xdata
xdata	SEGMENT
$unwind$??1ModMultiChannelFeedback@@QEAA@XZ DD 020601H
	DD	030023206H
xdata	ENDS
;	COMDAT xdata
xdata	SEGMENT
$unwind$?setDecayInSeconds@ModMultiChannelFeedback@@QEAAXM@Z DD 0a1901H
	DD	026819H
	DD	0a7415H
	DD	096415H
	DD	083415H
	DD	0e0115215H
xdata	ENDS
;	COMDAT xdata
xdata	SEGMENT
$unwind$?init@ModMultiChannelFeedback@@QEAAXMH@Z DD 081401H
	DD	086414H
	DD	075414H
	DD	063414H
	DD	070103214H
xdata	ENDS
;	COMDAT xdata
xdata	SEGMENT
$unwind$?setSampleRate@ModMultiChannelFeedback@@QEAAXH@Z DD 081401H
	DD	086414H
	DD	075414H
	DD	063414H
	DD	070103214H
xdata	ENDS
;	COMDAT xdata
xdata	SEGMENT
$unwind$?setDelayLengths@ModMultiChannelFeedback@@QEAAXMMW4DelayDistribution@@@Z DD 010401H
	DD	04204H
xdata	ENDS
;	COMDAT xdata
xdata	SEGMENT
$unwind$?setDampingFrequency@ModMultiChannelFeedback@@QEAAXM@Z DD 081601H
	DD	026816H
	DD	09640fH
	DD	08340fH
	DD	0700b520fH
xdata	ENDS
;	COMDAT xdata
xdata	SEGMENT
$unwind$?setFilterType@ModMultiChannelFeedback@@QEAAXW4LPFilterType@@@Z DD 060f01H
	DD	07640fH
	DD	06340fH
	DD	0700b320fH
xdata	ENDS
;	COMDAT xdata
xdata	SEGMENT
$unwind$?setOscillatorType@ModMultiChannelFeedback@@QEAAXW4OscillatorType@@@Z DD 060f01H
	DD	07640fH
	DD	06340fH
	DD	0700b320fH
xdata	ENDS
;	COMDAT xdata
xdata	SEGMENT
$ip2state$?processAudio@ModMultiChannelFeedback@@QEAAXPEAM0@Z DB 04H
	DB	'f'
	DB	00H
	DB	01aH
	DB	02H
xdata	ENDS
;	COMDAT xdata
xdata	SEGMENT
$stateUnwindMap$?processAudio@ModMultiChannelFeedback@@QEAAXPEAM0@Z DB 02H
	DB	0aH
	DD	imagerel ??1?$vector@MV?$allocator@M@std@@@std@@QEAA@XZ
	DB	070H
xdata	ENDS
;	COMDAT xdata
xdata	SEGMENT
$cppxdata$?processAudio@ModMultiChannelFeedback@@QEAAXPEAM0@Z DB 028H
	DD	imagerel $stateUnwindMap$?processAudio@ModMultiChannelFeedback@@QEAAXPEAM0@Z
	DD	imagerel $ip2state$?processAudio@ModMultiChannelFeedback@@QEAAXPEAM0@Z
xdata	ENDS
;	COMDAT xdata
xdata	SEGMENT
$unwind$?processAudio@ModMultiChannelFeedback@@QEAAXPEAM0@Z DD 0e2311H
	DD	056823H
	DD	014741fH
	DD	013641fH
	DD	012341fH
	DD	0f018b21fH
	DD	0d014e016H
	DD	05010c012H
	DD	imagerel __CxxFrameHandler4
	DD	imagerel $cppxdata$?processAudio@ModMultiChannelFeedback@@QEAAXPEAM0@Z
xdata	ENDS
;	COMDAT xdata
xdata	SEGMENT
$unwind$?dtor$1@?0??constructMCF@ModMultiChannelFeedback@@AEAAXH@Z@4HA DD 020601H
	DD	050023206H
xdata	ENDS
;	COMDAT xdata
xdata	SEGMENT
$ip2state$?constructMCF@ModMultiChannelFeedback@@AEAAXH@Z DB 06H
	DB	'2'
	DB	00H
	DB	098H
	DB	02H
	DB	012H
	DB	00H
xdata	ENDS
;	COMDAT xdata
xdata	SEGMENT
$stateUnwindMap$?constructMCF@ModMultiChannelFeedback@@AEAAXH@Z DB 02H
	DB	0eH
	DD	imagerel ?dtor$1@?0??constructMCF@ModMultiChannelFeedback@@AEAAXH@Z@4HA
xdata	ENDS
;	COMDAT xdata
xdata	SEGMENT
$cppxdata$?constructMCF@ModMultiChannelFeedback@@AEAAXH@Z DB 028H
	DD	imagerel $stateUnwindMap$?constructMCF@ModMultiChannelFeedback@@AEAAXH@Z
	DD	imagerel $ip2state$?constructMCF@ModMultiChannelFeedback@@AEAAXH@Z
xdata	ENDS
;	COMDAT xdata
xdata	SEGMENT
$unwind$?constructMCF@ModMultiChannelFeedback@@AEAAXH@Z DD 060f11H
	DD	09640fH
	DD	07340fH
	DD	0700b320fH
	DD	imagerel __CxxFrameHandler4
	DD	imagerel $cppxdata$?constructMCF@ModMultiChannelFeedback@@AEAAXH@Z
xdata	ENDS
;	COMDAT xdata
xdata	SEGMENT
$unwind$?deleteDelayLines@ModMultiChannelFeedback@@AEAAXXZ DD 0a1901H
	DD	097419H
	DD	086419H
	DD	075419H
	DD	063419H
	DD	0e0153219H
xdata	ENDS
;	COMDAT xdata
xdata	SEGMENT
$unwind$?dtor$0@?0??allocateDelayLines@ModMultiChannelFeedback@@AEAAXXZ@4HA DD 020601H
	DD	050023206H
xdata	ENDS
;	COMDAT xdata
xdata	SEGMENT
$ip2state$?allocateDelayLines@ModMultiChannelFeedback@@AEAAXXZ DB 06H
	DB	':'
	DB	00H
	DB	01aH
	DB	02H
	DB	'P'
	DB	00H
xdata	ENDS
;	COMDAT xdata
xdata	SEGMENT
$stateUnwindMap$?allocateDelayLines@ModMultiChannelFeedback@@AEAAXXZ DB 02H
	DB	0eH
	DD	imagerel ?dtor$0@?0??allocateDelayLines@ModMultiChannelFeedback@@AEAAXXZ@4HA
xdata	ENDS
;	COMDAT xdata
xdata	SEGMENT
$cppxdata$?allocateDelayLines@ModMultiChannelFeedback@@AEAAXXZ DB 028H
	DD	imagerel $stateUnwindMap$?allocateDelayLines@ModMultiChannelFeedback@@AEAAXXZ
	DD	imagerel $ip2state$?allocateDelayLines@ModMultiChannelFeedback@@AEAAXXZ
xdata	ENDS
;	COMDAT xdata
xdata	SEGMENT
$unwind$?allocateDelayLines@ModMultiChannelFeedback@@AEAAXXZ DD 060f11H
	DD	09640fH
	DD	08340fH
	DD	0700b320fH
	DD	imagerel __CxxFrameHandler4
	DD	imagerel $cppxdata$?allocateDelayLines@ModMultiChannelFeedback@@AEAAXXZ
xdata	ENDS
;	COMDAT xdata
xdata	SEGMENT
$ip2state$?setDelayExponential@ModMultiChannelFeedback@@AEAAXXZ DB 04H
	DB	'>'
	DB	00H
	DB	'0'
	DB	02H
xdata	ENDS
;	COMDAT xdata
xdata	SEGMENT
$stateUnwindMap$?setDelayExponential@ModMultiChannelFeedback@@AEAAXXZ DB 02H
	DB	0aH
	DD	imagerel ??1?$vector@MV?$allocator@M@std@@@std@@QEAA@XZ
	DB	040H
xdata	ENDS
;	COMDAT xdata
xdata	SEGMENT
$cppxdata$?setDelayExponential@ModMultiChannelFeedback@@AEAAXXZ DB 028H
	DD	imagerel $stateUnwindMap$?setDelayExponential@ModMultiChannelFeedback@@AEAAXXZ
	DD	imagerel $ip2state$?setDelayExponential@ModMultiChannelFeedback@@AEAAXXZ
xdata	ENDS
;	COMDAT xdata
xdata	SEGMENT
$unwind$?setDelayExponential@ModMultiChannelFeedback@@AEAAXXZ DD 081511H
	DD	0e7415H
	DD	0d6415H
	DD	0c3415H
	DD	0e0119215H
	DD	imagerel __CxxFrameHandler4
	DD	imagerel $cppxdata$?setDelayExponential@ModMultiChannelFeedback@@AEAAXXZ
xdata	ENDS
;	COMDAT xdata
xdata	SEGMENT
$unwind$?setRandomInRangeDelayLines@ModMultiChannelFeedback@@AEAAXXZ DD 0c2401H
	DD	028824H
	DD	03781fH
	DD	04681bH
	DD	0d6410H
	DD	0c3410H
	DD	0700c9210H
xdata	ENDS
;	COMDAT xdata
xdata	SEGMENT
$unwind$??0HighPassFilter@@QEAA@HMW4HPFilterType@@@Z DD 020601H
	DD	030023206H
xdata	ENDS
;	COMDAT xdata
xdata	SEGMENT
$unwind$?updateGains@HighPassFilter@@QEAAXXZ DD 0c2401H
	DD	02a824H
	DD	03981fH
	DD	04881aH
	DD	057815H
	DD	06680cH
	DD	03004d208H
xdata	ENDS
;	COMDAT xdata
xdata	SEGMENT
$unwind$?processAudio@HighPassFilter@@QEAAMM@Z DD 032e01H
	DD	0682eH
	DD	02204H
xdata	ENDS
;	COMDAT xdata
xdata	SEGMENT
$unwind$??0Modulation@@QEAA@XZ DD 020601H
	DD	030023206H
xdata	ENDS
;	COMDAT xdata
xdata	SEGMENT
$unwind$??1Modulation@@QEAA@XZ DD 040a01H
	DD	06340aH
	DD	07006320aH
xdata	ENDS
;	COMDAT xdata
xdata	SEGMENT
$unwind$?init@Modulation@@QEAAXW4ModulationType@@H@Z DD 020601H
	DD	030023206H
xdata	ENDS
;	COMDAT xdata
xdata	SEGMENT
$unwind$?setModType@Modulation@@QEAAXW4ModulationType@@@Z DD 020601H
	DD	030023206H
xdata	ENDS
;	COMDAT xdata
xdata	SEGMENT
$unwind$?processAudio@Modulation@@UEAAMM@Z DD 040e01H
	DD	02680eH
	DD	030025206H
xdata	ENDS
;	COMDAT xdata
xdata	SEGMENT
$ip2state$??0FDN@@QEAA@HHHHH@Z DB 02H
	DB	'M', 02H
	DB	010H
xdata	ENDS
;	COMDAT xdata
xdata	SEGMENT
$stateUnwindMap$??0FDN@@QEAA@HHHHH@Z DB 010H
	DB	0eH
	DD	imagerel ?dtor$0@?0???0FDN@@QEAA@HHHHH@Z@4HA
	DB	02eH
	DD	imagerel ?dtor$1@?0???0FDN@@QEAA@HHHHH@Z@4HA
	DB	02eH
	DD	imagerel ?dtor$2@?0???0FDN@@QEAA@HHHHH@Z@4HA
	DB	02eH
	DD	imagerel ?dtor$3@?0???0FDN@@QEAA@HHHHH@Z@4HA
	DB	02eH
	DD	imagerel ?dtor$4@?0???0FDN@@QEAA@HHHHH@Z@4HA
	DB	02eH
	DD	imagerel ?dtor$5@?0???0FDN@@QEAA@HHHHH@Z@4HA
	DB	02eH
	DD	imagerel ?dtor$6@?0???0FDN@@QEAA@HHHHH@Z@4HA
	DB	02eH
	DD	imagerel ?dtor$7@?0???0FDN@@QEAA@HHHHH@Z@4HA
xdata	ENDS
;	COMDAT xdata
xdata	SEGMENT
$cppxdata$??0FDN@@QEAA@HHHHH@Z DB 028H
	DD	imagerel $stateUnwindMap$??0FDN@@QEAA@HHHHH@Z
	DD	imagerel $ip2state$??0FDN@@QEAA@HHHHH@Z
xdata	ENDS
;	COMDAT xdata
xdata	SEGMENT
$unwind$??0FDN@@QEAA@HHHHH@Z DD 020a11H
	DD	03006520aH
	DD	imagerel __CxxFrameHandler4
	DD	imagerel $cppxdata$??0FDN@@QEAA@HHHHH@Z
xdata	ENDS
;	COMDAT xdata
xdata	SEGMENT
$unwind$??1FDN@@QEAA@XZ DD 0c1d01H
	DD	0b741dH
	DD	0a641dH
	DD	09541dH
	DD	08341dH
	DD	0f019321dH
	DD	0d015e017H
xdata	ENDS
;	COMDAT xdata
xdata	SEGMENT
$unwind$?initialize@FDN@@QEAAXMMHM@Z DD 0c2001H
	DD	0c6420H
	DD	0b5420H
	DD	0a3420H
	DD	0f01c3220H
	DD	0d018e01aH
	DD	07014c016H
xdata	ENDS
;	COMDAT xdata
xdata	SEGMENT
$unwind$?setDecayInSeconds@FDN@@QEAAXM@Z DD 0a1f01H
	DD	02681fH
	DD	0a7415H
	DD	096415H
	DD	083415H
	DD	0e0115215H
xdata	ENDS
;	COMDAT xdata
xdata	SEGMENT
$unwind$?setRoomSize@FDN@@QEAAXMW4DiffuserDelayLogic@@W4DelayDistribution@@1@Z DD 0125e01H
	DD	02a85eH
	DD	038850H
	DD	047836H
	DD	05681fH
	DD	0126418H
	DD	0115418H
	DD	0103418H
	DD	0f014b218H
	DD	07010e012H
xdata	ENDS
;	COMDAT xdata
xdata	SEGMENT
$unwind$?setModMix@FDN@@QEAAXM@Z DD 020601H
	DD	030023206H
xdata	ENDS
;	COMDAT xdata
xdata	SEGMENT
$unwind$?setDampingFrequency@FDN@@QEAAXM@Z DD 081a01H
	DD	02681aH
	DD	09640fH
	DD	08340fH
	DD	0700b520fH
xdata	ENDS
;	COMDAT xdata
xdata	SEGMENT
$unwind$?setDampingType@FDN@@QEAAXW4LPFilterType@@@Z DD 060f01H
	DD	07640fH
	DD	06340fH
	DD	0700b320fH
xdata	ENDS
;	COMDAT xdata
xdata	SEGMENT
$unwind$?setLowPassFrequency@FDN@@QEAAXM@Z DD 081601H
	DD	026816H
	DD	09640fH
	DD	08340fH
	DD	0700b520fH
xdata	ENDS
;	COMDAT xdata
xdata	SEGMENT
$unwind$?setHighPassFrequency@FDN@@QEAAXM@Z DD 081601H
	DD	026816H
	DD	09640fH
	DD	08340fH
	DD	0700b520fH
xdata	ENDS
;	COMDAT xdata
xdata	SEGMENT
$unwind$?setLowPassType@FDN@@QEAAXW4LPFilterType@@@Z DD 081401H
	DD	086414H
	DD	075414H
	DD	063414H
	DD	070103214H
xdata	ENDS
;	COMDAT xdata
xdata	SEGMENT
$unwind$?setHighPassType@FDN@@QEAAXW4HPFilterType@@@Z DD 060f01H
	DD	07640fH
	DD	06340fH
	DD	0700b320fH
xdata	ENDS
;	COMDAT xdata
xdata	SEGMENT
$unwind$?setStereoSpread@FDN@@QEAAXM@Z DD 020501H
	DD	013405H
xdata	ENDS
;	COMDAT xdata
xdata	SEGMENT
$unwind$?setDiffuserDelayLengths@FDN@@QEAAXMW4DiffuserDelayLogic@@W4DelayDistribution@@M@Z DD 0c1f01H
	DD	02681fH
	DD	0b7419H
	DD	0a6419H
	DD	095419H
	DD	083419H
	DD	0e0155219H
xdata	ENDS
;	COMDAT xdata
xdata	SEGMENT
$unwind$?setFeedbackDelayLengths@FDN@@QEAAXMMW4DelayDistribution@@@Z DD 020601H
	DD	030023206H
xdata	ENDS
;	COMDAT xdata
xdata	SEGMENT
$unwind$?setSampleRate@FDN@@QEAAXH@Z DD 0c1c01H
	DD	0c641cH
	DD	0b541cH
	DD	0a341cH
	DD	0f018321cH
	DD	0d014e016H
	DD	07010c012H
xdata	ENDS
;	COMDAT xdata
xdata	SEGMENT
$unwind$?processAudio@FDN@@QEAAXPEAM0@Z DD 0c2501H
	DD	036825H
	DD	011341eH
	DD	0f01a721eH
	DD	0d016e018H
	DD	07012c014H
	DD	050106011H
xdata	ENDS
;	COMDAT xdata
xdata	SEGMENT
$unwind$?setDoubledDiffuserDelayLengths@FDN@@AEAAXMMW4DelayDistribution@@@Z DD 081701H
	DD	026817H
	DD	09640fH
	DD	08340fH
	DD	0700b520fH
xdata	ENDS
;	COMDAT xdata
xdata	SEGMENT
$unwind$?setEqualDiffuserDelayLengths@FDN@@AEAAXMMW4DelayDistribution@@@Z DD 0c1d01H
	DD	02681dH
	DD	0b7419H
	DD	0a6419H
	DD	095419H
	DD	083419H
	DD	0e0155219H
xdata	ENDS
;	COMDAT xdata
xdata	SEGMENT
$unwind$?dtor$4@?0??constructFDN@FDN@@AEAAXHHHHH@Z@4HA DD 020601H
	DD	050023206H
xdata	ENDS
;	COMDAT xdata
xdata	SEGMENT
$unwind$?dtor$10@?0??constructFDN@FDN@@AEAAXHHHHH@Z@4HA DD 020601H
	DD	050023206H
xdata	ENDS
;	COMDAT xdata
xdata	SEGMENT
$unwind$?dtor$3@?0??constructFDN@FDN@@AEAAXHHHHH@Z@4HA DD 020601H
	DD	050023206H
xdata	ENDS
;	COMDAT xdata
xdata	SEGMENT
$unwind$?dtor$7@?0??constructFDN@FDN@@AEAAXHHHHH@Z@4HA DD 020601H
	DD	050023206H
xdata	ENDS
;	COMDAT xdata
xdata	SEGMENT
$unwind$?dtor$2@?0??constructFDN@FDN@@AEAAXHHHHH@Z@4HA DD 020601H
	DD	050023206H
xdata	ENDS
;	COMDAT xdata
xdata	SEGMENT
$ip2state$?constructFDN@FDN@@AEAAXHHHHH@Z DB 018H
	DB	0beH
	DB	00H
	DB	0bcH
	DB	02H
	DB	'*'
	DB	04H
	DB	098H
	DB	06H
	DB	012H
	DB	04H
	DB	'X'
	DB	00H
	DB	'$'
	DB	08H
	DB	01eH
	DB	00H
	DB	')', 04H
	DB	0aH
	DB	'$'
	DB	00H
	DB	'z'
	DB	0cH
	DB	01eH
	DB	00H
xdata	ENDS
;	COMDAT xdata
xdata	SEGMENT
$stateUnwindMap$?constructFDN@FDN@@AEAAXHHHHH@Z DB 0cH
	DB	0eH
	DD	imagerel ?dtor$2@?0??constructFDN@FDN@@AEAAXHHHHH@Z@4HA
	DB	02eH
	DD	imagerel ?dtor$5@?0??constructFDN@FDN@@AEAAXHHHHH@Z@4HA
	DB	02eH
	DD	imagerel ?dtor$7@?0??constructFDN@FDN@@AEAAXHHHHH@Z@4HA
	DB	086H
	DD	imagerel ?dtor$3@?0??constructFDN@FDN@@AEAAXHHHHH@Z@4HA
	DB	0aeH
	DD	imagerel ?dtor$10@?0??constructFDN@FDN@@AEAAXHHHHH@Z@4HA
	DB	0d6H
	DD	imagerel ?dtor$4@?0??constructFDN@FDN@@AEAAXHHHHH@Z@4HA
xdata	ENDS
;	COMDAT xdata
xdata	SEGMENT
$cppxdata$?constructFDN@FDN@@AEAAXHHHHH@Z DB 028H
	DD	imagerel $stateUnwindMap$?constructFDN@FDN@@AEAAXHHHHH@Z
	DD	imagerel $ip2state$?constructFDN@FDN@@AEAAXHHHHH@Z
xdata	ENDS
;	COMDAT xdata
xdata	SEGMENT
$unwind$?constructFDN@FDN@@AEAAXHHHHH@Z DD 0a1e11H
	DD	0e641eH
	DD	0d341eH
	DD	0f017521eH
	DD	0c013e015H
	DD	050107011H
	DD	imagerel __CxxFrameHandler4
	DD	imagerel $cppxdata$?constructFDN@FDN@@AEAAXHHHHH@Z
xdata	ENDS
;	COMDAT xdata
xdata	SEGMENT
$unwind$?dtor$2@?0??constructDiffusionBlocks@FDN@@AEAAXXZ@4HA DD 020601H
	DD	050023206H
xdata	ENDS
;	COMDAT xdata
xdata	SEGMENT
$unwind$?dtor$5@?0??constructDiffusionBlocks@FDN@@AEAAXXZ@4HA DD 020601H
	DD	050023206H
xdata	ENDS
;	COMDAT xdata
xdata	SEGMENT
$unwind$?dtor$4@?0??constructDiffusionBlocks@FDN@@AEAAXXZ@4HA DD 020601H
	DD	050023206H
xdata	ENDS
;	COMDAT xdata
xdata	SEGMENT
$unwind$?dtor$7@?0??constructDiffusionBlocks@FDN@@AEAAXXZ@4HA DD 020601H
	DD	050023206H
xdata	ENDS
;	COMDAT xdata
xdata	SEGMENT
$unwind$?dtor$3@?0??constructDiffusionBlocks@FDN@@AEAAXXZ@4HA DD 020601H
	DD	050023206H
xdata	ENDS
;	COMDAT xdata
xdata	SEGMENT
$unwind$?dtor$1@?0??constructDiffusionBlocks@FDN@@AEAAXXZ@4HA DD 020601H
	DD	050023206H
xdata	ENDS
;	COMDAT xdata
xdata	SEGMENT
$unwind$?dtor$0@?0??constructDiffusionBlocks@FDN@@AEAAXXZ@4HA DD 020601H
	DD	050023206H
xdata	ENDS
;	COMDAT xdata
xdata	SEGMENT
$ip2state$?constructDiffusionBlocks@FDN@@AEAAXXZ DB 01eH
	DB	'h'
	DB	00H
	DB	'$'
	DB	02H
	DB	'L'
	DB	00H
	DB	'j'
	DB	04H
	DB	'B'
	DB	06H
	DB	'D'
	DB	08H
	DB	018H
	DB	0aH
	DB	'J'
	DB	08H
	DB	086H
	DB	04H
	DB	01eH
	DB	0cH
	DB	01eH
	DB	04H
	DB	01eH
	DB	0eH
	DB	0d8H
	DB	00H
	DB	'F'
	DB	010H
	DB	01eH
	DB	00H
xdata	ENDS
;	COMDAT xdata
xdata	SEGMENT
$stateUnwindMap$?constructDiffusionBlocks@FDN@@AEAAXXZ DB 010H
	DB	0eH
	DD	imagerel ?dtor$0@?0??constructDiffusionBlocks@FDN@@AEAAXXZ@4HA
	DB	036H
	DD	imagerel ?dtor$1@?0??constructDiffusionBlocks@FDN@@AEAAXXZ@4HA
	DB	02eH
	DD	imagerel ?dtor$3@?0??constructDiffusionBlocks@FDN@@AEAAXXZ@4HA
	DB	02eH
	DD	imagerel ?dtor$6@?0??constructDiffusionBlocks@FDN@@AEAAXXZ@4HA
	DB	02eH
	DD	imagerel ?dtor$7@?0??constructDiffusionBlocks@FDN@@AEAAXXZ@4HA
	DB	0a6H
	DD	imagerel ?dtor$4@?0??constructDiffusionBlocks@FDN@@AEAAXXZ@4HA
	DB	0ceH
	DD	imagerel ?dtor$5@?0??constructDiffusionBlocks@FDN@@AEAAXXZ@4HA
	DB	04dH
	DB	02H
	DD	imagerel ?dtor$2@?0??constructDiffusionBlocks@FDN@@AEAAXXZ@4HA
xdata	ENDS
;	COMDAT xdata
xdata	SEGMENT
$cppxdata$?constructDiffusionBlocks@FDN@@AEAAXXZ DB 028H
	DD	imagerel $stateUnwindMap$?constructDiffusionBlocks@FDN@@AEAAXXZ
	DD	imagerel $ip2state$?constructDiffusionBlocks@FDN@@AEAAXXZ
xdata	ENDS
;	COMDAT xdata
xdata	SEGMENT
$unwind$?constructDiffusionBlocks@FDN@@AEAAXXZ DD 091411H
	DD	0f00d6214H
	DD	0d009e00bH
	DD	07005c007H
	DD	030036004H
	DD	05002H
	DD	imagerel __CxxFrameHandler4
	DD	imagerel $cppxdata$?constructDiffusionBlocks@FDN@@AEAAXXZ
xdata	ENDS
;	COMDAT xdata
xdata	SEGMENT
$unwind$?constructFilters@FDN@@AEAAXXZ DD 081201H
	DD	0a5412H
	DD	093412H
	DD	0e00e3212H
	DD	0600b700cH
xdata	ENDS
;	COMDAT xdata
xdata	SEGMENT
$unwind$?dtor$0@?0??constructModulation@FDN@@AEAAXXZ@4HA DD 020601H
	DD	050023206H
xdata	ENDS
;	COMDAT xdata
xdata	SEGMENT
$ip2state$?constructModulation@FDN@@AEAAXXZ DB 06H
	DB	'>'
	DB	00H
	DB	' '
	DB	02H
	DB	'b'
	DB	00H
xdata	ENDS
;	COMDAT xdata
xdata	SEGMENT
$stateUnwindMap$?constructModulation@FDN@@AEAAXXZ DB 02H
	DB	0eH
	DD	imagerel ?dtor$0@?0??constructModulation@FDN@@AEAAXXZ@4HA
xdata	ENDS
;	COMDAT xdata
xdata	SEGMENT
$cppxdata$?constructModulation@FDN@@AEAAXXZ DB 028H
	DD	imagerel $stateUnwindMap$?constructModulation@FDN@@AEAAXXZ
	DD	imagerel $ip2state$?constructModulation@FDN@@AEAAXXZ
xdata	ENDS
;	COMDAT xdata
xdata	SEGMENT
$unwind$?constructModulation@FDN@@AEAAXXZ DD 060d11H
	DD	0a340dH
	DD	0e009320dH
	DD	060067007H
	DD	imagerel __CxxFrameHandler4
	DD	imagerel $cppxdata$?constructModulation@FDN@@AEAAXXZ
xdata	ENDS
;	COMDAT xdata
xdata	SEGMENT
$unwind$?deleteInterfaceBlocks@FDN@@AEAAXXZ DD 020601H
	DD	030023206H
xdata	ENDS
;	COMDAT xdata
xdata	SEGMENT
$unwind$?deleteDiffusionBlocks@FDN@@AEAAXXZ DD 0a1901H
	DD	097419H
	DD	086419H
	DD	075419H
	DD	063419H
	DD	0e0153219H
xdata	ENDS
;	COMDAT xdata
xdata	SEGMENT
$unwind$?deleteFeedbackBlock@FDN@@AEAAXXZ DD 020601H
	DD	030023206H
xdata	ENDS
;	COMDAT xdata
xdata	SEGMENT
$unwind$?deleteFilters@FDN@@AEAAXXZ DD 060f01H
	DD	07640fH
	DD	06340fH
	DD	0700b320fH
xdata	ENDS
;	COMDAT xdata
xdata	SEGMENT
$unwind$?deleteChorus@FDN@@AEAAXXZ DD 0a1901H
	DD	097419H
	DD	086419H
	DD	075419H
	DD	063419H
	DD	0e0153219H
xdata	ENDS
;	COMDAT xdata
xdata	SEGMENT
$unwind$?initInternalArrays@FDN@@AEAAXXZ DD 020601H
	DD	030023206H
xdata	ENDS
;	COMDAT xdata
xdata	SEGMENT
$unwind$??_GChannelSplitter@@QEAAPEAXI@Z DD 020601H
	DD	030023206H
xdata	ENDS
;	COMDAT xdata
xdata	SEGMENT
$unwind$??_GChannelMixer@@QEAAPEAXI@Z DD 020601H
	DD	030023206H
xdata	ENDS
;	COMDAT xdata
xdata	SEGMENT
$unwind$??_GMultiChannelDiffuser@@QEAAPEAXI@Z DD 020601H
	DD	030023206H
xdata	ENDS
;	COMDAT xdata
xdata	SEGMENT
$unwind$??_GModMultiChannelDiffuser@@QEAAPEAXI@Z DD 020601H
	DD	030023206H
xdata	ENDS
;	COMDAT xdata
xdata	SEGMENT
$unwind$??_GModMultiChannelFeedback@@QEAAPEAXI@Z DD 020601H
	DD	030023206H
xdata	ENDS
;	COMDAT xdata
xdata	SEGMENT
$unwind$??_GHighPassFilter@@QEAAPEAXI@Z DD 020601H
	DD	030023206H
xdata	ENDS
;	COMDAT xdata
xdata	SEGMENT
$unwind$??_GModulation@@QEAAPEAXI@Z DD 040a01H
	DD	06340aH
	DD	07006320aH
xdata	ENDS
;	COMDAT xdata
xdata	SEGMENT
$unwind$??__EkCTCorrFactorZero@@YAXXZ DD 010401H
	DD	04204H
xdata	ENDS
;	COMDAT xdata
xdata	SEGMENT
$unwind$??__EkCTCorrFactorAntiLog@@YAXXZ DD 010401H
	DD	04204H
xdata	ENDS
;	COMDAT xdata
xdata	SEGMENT
$unwind$?principalArg@@YANN@Z DD 010401H
	DD	04204H
xdata	ENDS
;	COMDAT xdata
xdata	SEGMENT
$unwind$?resample@@YA_NPEAN0IIW4interpolation@@N0@Z DD 060f01H
	DD	03740fH
	DD	02640aH
	DD	013405H
xdata	ENDS
;	COMDAT xdata
xdata	SEGMENT
$unwind$??1PhaseVocoder@@QEAA@XZ DD 020601H
	DD	030023206H
xdata	ENDS
;	COMDAT xdata
xdata	SEGMENT
$ip2state$??0PSMVocoder@@QEAA@XZ DB 02H
	DB	'=', 06H
	DB	02H
xdata	ENDS
;	COMDAT xdata
xdata	SEGMENT
$stateUnwindMap$??0PSMVocoder@@QEAA@XZ DB 02H
	DB	0eH
	DD	imagerel ?dtor$0@?0???0PSMVocoder@@QEAA@XZ@4HA
xdata	ENDS
;	COMDAT xdata
xdata	SEGMENT
$cppxdata$??0PSMVocoder@@QEAA@XZ DB 028H
	DD	imagerel $stateUnwindMap$??0PSMVocoder@@QEAA@XZ
	DD	imagerel $ip2state$??0PSMVocoder@@QEAA@XZ
xdata	ENDS
;	COMDAT xdata
xdata	SEGMENT
$unwind$??0PSMVocoder@@QEAA@XZ DD 081811H
	DD	096418H
	DD	085418H
	DD	073418H
	DD	070143218H
	DD	imagerel __CxxFrameHandler4
	DD	imagerel $cppxdata$??0PSMVocoder@@QEAA@XZ
xdata	ENDS
;	COMDAT xdata
xdata	SEGMENT
$unwind$??1PSMVocoder@@QEAA@XZ DD 020601H
	DD	030023206H
xdata	ENDS
;	COMDAT xdata
xdata	SEGMENT
$unwind$?reset@PSMVocoder@@UEAA_NN@Z DD 040a01H
	DD	06340aH
	DD	07006320aH
xdata	ENDS
;	COMDAT xdata
xdata	SEGMENT
$unwind$?setPitchShift@PSMVocoder@@QEAAXN@Z DD 0c3001H
	DD	028830H
	DD	03782bH
	DD	046827H
	DD	0d5410H
	DD	0c3410H
	DD	0700c9210H
xdata	ENDS
;	COMDAT xdata
xdata	SEGMENT
$unwind$?findPreviousNearestPeak@PSMVocoder@@QEAAHH@Z DD 0a1901H
	DD	097419H
	DD	086419H
	DD	075419H
	DD	063419H
	DD	0e0153219H
xdata	ENDS
;	COMDAT xdata
xdata	SEGMENT
$unwind$?findPeaksAndRegionsOfInfluence@PSMVocoder@@QEAAXXZ DD 0c1e01H
	DD	04681eH
	DD	0123417H
	DD	0f0109217H
	DD	0d00ce00eH
	DD	07008c00aH
	DD	050066007H
xdata	ENDS
;	COMDAT xdata
xdata	SEGMENT
$unwind$?processAudioSample@PSMVocoder@@UEAANN@Z DD 01d7801H
	DD	0802d878H
	DD	0803c86fH
	DD	0804b866H
	DD	0805a85dH
	DD	08069854H
	DD	08078848H
	DD	08087839H
	DD	0809682dH
	DD	0101c6425H
	DD	0101b5425H
	DD	0101a3425H
	DD	010140125H
	DD	0e016f018H
	DD	0c012d014H
	DD	07010H
xdata	ENDS
;	COMDAT xdata
xdata	SEGMENT
$unwind$?setParameters@PSMVocoder@@QEAAXAEBUPSMVocoderParameters@@@Z DD 040a01H
	DD	06340aH
	DD	07006320aH
xdata	ENDS
;	COMDAT xdata
xdata	SEGMENT
$unwind$??__EMIN_DAMPING_FREQUENCY_LOG@@YAXXZ DD 010401H
	DD	04204H
xdata	ENDS
;	COMDAT xdata
xdata	SEGMENT
$unwind$??__EMAX_DAMPING_FREQUENCY_LOG@@YAXXZ DD 010401H
	DD	04204H
xdata	ENDS
;	COMDAT xdata
xdata	SEGMENT
$unwind$??__ELPF_FILTER_MAX_FREQ_LOG@@YAXXZ DD 010401H
	DD	04204H
xdata	ENDS
;	COMDAT xdata
xdata	SEGMENT
$unwind$??__ELPF_FILTER_MIN_FREQ_LOG@@YAXXZ DD 010401H
	DD	04204H
xdata	ENDS
;	COMDAT xdata
xdata	SEGMENT
$unwind$?updateMix@Shimmer@@AEAAXXZ DD 020601H
	DD	030023206H
xdata	ENDS
;	COMDAT xdata
xdata	SEGMENT
$ip2state$??0Shimmer@@QEAA@P6A_JPEAUAEffect@@HH_JPEAXM@Z@Z DB 02H
	DB	0d5H, 03H
	DB	02H
xdata	ENDS
;	COMDAT xdata
xdata	SEGMENT
$stateUnwindMap$??0Shimmer@@QEAA@P6A_JPEAUAEffect@@HH_JPEAXM@Z@Z DB 02H
	DB	0cH
	DD	imagerel ??1AudioEffectX@@UEAA@XZ
	DB	060H
xdata	ENDS
;	COMDAT xdata
xdata	SEGMENT
$cppxdata$??0Shimmer@@QEAA@P6A_JPEAUAEffect@@HH_JPEAXM@Z@Z DB 028H
	DD	imagerel $stateUnwindMap$??0Shimmer@@QEAA@P6A_JPEAUAEffect@@HH_JPEAXM@Z@Z
	DD	imagerel $ip2state$??0Shimmer@@QEAA@P6A_JPEAUAEffect@@HH_JPEAXM@Z@Z
xdata	ENDS
;	COMDAT xdata
xdata	SEGMENT
$unwind$??0Shimmer@@QEAA@P6A_JPEAUAEffect@@HH_JPEAXM@Z@Z DD 040f11H
	DD	07340fH
	DD	0700b320fH
	DD	imagerel __CxxFrameHandler4
	DD	imagerel $cppxdata$??0Shimmer@@QEAA@P6A_JPEAUAEffect@@HH_JPEAXM@Z@Z
xdata	ENDS
;	COMDAT xdata
xdata	SEGMENT
$unwind$??_GShimmer@@UEAAPEAXI@Z DD 040a01H
	DD	06340aH
	DD	07006320aH
xdata	ENDS
;	COMDAT xdata
xdata	SEGMENT
$unwind$?dtor$3@?0??InitPlugin@Shimmer@@AEAAXXZ@4HA DD 020601H
	DD	050023206H
xdata	ENDS
;	COMDAT xdata
xdata	SEGMENT
$unwind$?dtor$2@?0??InitPlugin@Shimmer@@AEAAXXZ@4HA DD 020601H
	DD	050023206H
xdata	ENDS
;	COMDAT xdata
xdata	SEGMENT
$unwind$?dtor$1@?0??InitPlugin@Shimmer@@AEAAXXZ@4HA DD 020601H
	DD	050023206H
xdata	ENDS
;	COMDAT xdata
xdata	SEGMENT
$unwind$?dtor$0@?0??InitPlugin@Shimmer@@AEAAXXZ@4HA DD 020601H
	DD	050023206H
xdata	ENDS
;	COMDAT xdata
xdata	SEGMENT
$ip2state$?InitPlugin@Shimmer@@AEAAXXZ DB 012H
	DB	'B'
	DB	00H
	DB	':'
	DB	02H
	DB	'$'
	DB	00H
	DB	08dH, 03H
	DB	04H
	DB	01cH
	DB	00H
	DB	089H, 03H
	DB	06H
	DB	012H
	DB	00H
	DB	','
	DB	08H
	DB	012H
	DB	00H
xdata	ENDS
;	COMDAT xdata
xdata	SEGMENT
$stateUnwindMap$?InitPlugin@Shimmer@@AEAAXXZ DB 08H
	DB	0eH
	DD	imagerel ?dtor$0@?0??InitPlugin@Shimmer@@AEAAXXZ@4HA
	DB	036H
	DD	imagerel ?dtor$1@?0??InitPlugin@Shimmer@@AEAAXXZ@4HA
	DB	05eH
	DD	imagerel ?dtor$2@?0??InitPlugin@Shimmer@@AEAAXXZ@4HA
	DB	086H
	DD	imagerel ?dtor$3@?0??InitPlugin@Shimmer@@AEAAXXZ@4HA
xdata	ENDS
;	COMDAT xdata
xdata	SEGMENT
$cppxdata$?InitPlugin@Shimmer@@AEAAXXZ DB 028H
